Ac:_glClearStencil
p_f:_UInt16_System_IConvertible_ToChar_m2096055221_AdjustorThunk
yvf:_Array_TrueForAll_TisRuntimeObject_m1084992726_gshared
EGj:__ZN6il2cpp2vm5Array13GetByteLengthEP11Il2CppArray
foh:_Array_InternalArray__set_Item_TisDateTime_t3738529785_m1331437427_gshared
LSi:_KeyBuilder_get_Rng_m3373220441
lTa:__Z30GetIntermediateRendererManagerv
hya:__Z21SourceMipLevelForBlitiiii
rXa:__ZN31CanvasBatchIntermediateRenderer15AddAsRenderNodeER15RenderNodeQueueRK20DeprecatedSourceData
EXf:_TimeSpan_get_Hours_m550761902
Lei:__ZL63PlayableOutputHandle_t4208053793_CustomAttributesCacheGeneratorP21CustomAttributesCache
BU:__ZN11UnityEngine15CloudWebService26CloudServiceEventWithParam12ToJsonStringER9JSONWrite
Nve:_UnmanagedMemoryStream_Write_m930787521
_Ti:_AnalyticsEventTracker_SendEvent_m1365958832
Hr:__ZN11UnityEngine9Animation28GenericAnimationBindingCacheD2Ev
gDi:_X509Store_LoadCrl_m1881903843
Fqh:_Array_Sort_TisUICharInfo_t75501106_TisUICharInfo_t75501106_m722747892_gshared
R7a:__ZNSt3__26vectorI13dynamic_arrayI8Vector2fLj4EENS_9allocatorIS3_EEEC2INS_11__wrap_iterIPS3_EEEET_SB_RKS5_PNS_9enable_ifIXaasr21__is_forward_iteratorISB_EE5valuesr16is_constructibleIS3_NS_15iterator_traitsISB_E9referenceEEE5valueEvE4typeE
y_b:__Z18RestoreRenderStateR20CameraRenderOldStateR17ShaderPassContext
HAb:__Z18Transfer_BlittableI18StreamedBinaryReadILb1EELb1E5RectTIfEEvRK29SerializationCommandArgumentsR31RuntimeSerializationCommandInfo
zwb:__Z18Transfer_BlittableI24GenerateTypeTreeTransferLb0E11ColorRGBA32EvRK29SerializationCommandArgumentsR31RuntimeSerializationCommandInfo
sFb:__Z25scripting_class_from_name17ScriptingImagePtrPKcS1_
vyf:_Array_InternalArray__IndexOf_TisKeyValuePair_2_t3699644050_m1021241249_gshared
Npj:__ZN14dense_hash_mapI10KeyWrapperINSt3__24pairIPK12PropertyInfoP11Il2CppClassEEEj17ReflectionMapHashIS8_ENS9_14EqualsComparerINS1_8equal_toIS8_EEEENS1_9allocatorINS2_IKS9_jEEEEE15set_deleted_keyERSH_
VGb:__Z29scripting_class_enum_basetype17ScriptingClassPtr
D6d:_InternalEnumerator_1_get_Current_m1477715453_gshared
Xnb:__ZNK20LocalFileSystemPosix6ParentERK13FileEntryDataRN4core12basic_stringIcNS3_20StringStorageDefaultIcEEEE
ang:_RectTransform_GetWorldCorners_m3553547973
nzh:_Collection_1_System_Collections_IList_Remove_m1476284619_gshared
Xxe:_MonoType_IsPrimitiveImpl_m2401722705
qkf:_SHA1CryptoServiceProvider__ctor_m4195188793
Ccg:_CSSMeasureFunc_BeginInvoke_m3802154595
ofd:_Dropdown_Hide_m504034854
xMa:__ZN17PersistentManager22CheckInstanceIDsLoadedEPii
O4a:__ZN9Texture2D25CreateScaledAndPaddedDataEPP17SharedTextureDataS2_
grg:_Vector2_get_up_m2647420593
Mva:__ZN7ApiGLES17CopyBufferSubDataEjjlll
wBf:_Array_InternalArray__ICollection_CopyTo_TisUInt64_t4134040092_m691431926_gshared
wKe:_IPAddress_ToString_m1181734207
kTf:_StringBuilder_Append_m1965104174
vsc:__ZN5Unity9rapidjson15GenericDocumentINS0_4UTF8IcEE13JSONAllocatorS4_E11ParseStreamILj1ES3_NS0_25GenericInsituStringStreamIS3_EEEERS5_RT1_
kAg:_EqualityComparer_1__cctor_m3766928733_gshared
ESb:__ZN25CameraStackRenderingState20GetOrCreateBuiltinRTE24BuiltinRenderTextureTypeii17DepthBufferFormat19RenderTextureFormatj22RenderTextureReadWrite14VRTextureUsagei
CMi:_UnityAction_1_Invoke_m610765085_gshared
LO:__ZN11AudioModule26SetDefaultMicrophoneDriverEPv
Rie:_Kernel_modInverse_m652700340
j9a:__ZNK14Texture2DArray26CanReuploadDataToGfxDeviceEv
VWb:__ZN17PrePassRenderLoop14RenderBasePassEP13RenderTextureRK14LightingLayersR13dynamic_arrayI16RenderObjectDataLj4EERbR10MinMaxAABB
kqc:__ZN5IMGUI18RepaintModalWindowER8GUIState
v4:__ZNK15dense_hashtableINSt3__24pairIKN9ShaderLab7Program23ShaderKeywordSetAndHashEPKNS2_10SubProgramEEES4_NS3_24ShaderKeywordHashFunctorEN14dense_hash_mapIS4_S8_SA_NS0_8equal_toIS4_EE13stl_allocatorIS9_L18MemLabelIdentifier67ELi16EEE9SelectKeyESD_SG_E23find_position_with_hashERS5_j
L6e:_CompareInfo_Finalize_m404687489
U7a:__Z23SetSpriteMeshIndexCountP14SharedMeshDataj
gVf:_UTF8Decoder_GetChars_m1236346907
mpg:_TouchScreenKeyboard_Open_m231964201
W$a:__ZN7Texture13SetFilterModeEi
dIj:__ZN6il2cpp8metadata13GenericMethod9GetMethodEPK19Il2CppGenericMethod
xq:__ZNSt3__26vectorIN4core12basic_stringIcNS1_20StringStorageDefaultIcEEEENS_9allocatorIS5_EEE7reserveEj
wCe:_Default_SelectProperty_m1220817815
CAd:_RemotingConfiguration_IsRemotelyActivatedClientType_m4117048589
bqg:_Transform_TransformPoint_m226827784
Fpa:__ZN13GfxDeviceGLES11SetViewportERK5RectTIiE
Td:_emscripten_glDepthRange
Gxi:_SslStreamBase_BeginNegotiateHandshake_m4180435790
P0b:__ZNSt3__26vectorINS_4pairIN4core12basic_stringIcNS2_20StringStorageDefaultIcEEEES6_EE13stl_allocatorIS7_L18MemLabelIdentifier38ELi16EEE12__move_rangeEPS7_SC_SC_
Qia:__Z14resize_trimmedINSt3__26vectorIN9ShaderLab20SerializedSubProgram12UAVParameterENS0_9allocatorIS4_EEEEEvRT_j
Psc:__ZN5Unity9rapidjson13GenericReaderINS0_4UTF8IcEES3_13JSONAllocatorE11ParseObjectILj1ENS0_25GenericInsituStringStreamIS3_EENS0_15GenericDocumentIS3_S4_S4_EEEEvRT0_RT1_
L9c:_StandaloneInputModule_GetRawMoveVector_m2737091079
wti:__ZL62Selectable_t3250028441_CustomAttributesCacheGenerator_m_ColorsP21CustomAttributesCache
oyi:_SslStreamBase_EndWrite_m4073224031
V1:__ZNSt3__218__insertion_sort_3IRNS_6__lessI14ObjectLoadDataS2_EEPS2_EEvT0_S6_T_
Cxa:__ZN4crndL20crnd_default_reallocEPvjPjbS0_
_Vj:__ZNSt3__212basic_stringIcNS_11char_traitsIcEENS_9allocatorIcEEEC2ERKS5_
K8a:__ZN18SpriteAtlasManager19AddRequestingSpriteE4PPtrI6SpriteE
Rmc:__Z33Texture_CUSTOM_Internal_GetHeightP12Il2CppObject
Wsg:_ValueCollection_System_Collections_ICollection_get_SyncRoot_m3381653267_gshared
DZb:__ZN23ScriptableRenderContextC2Ev
did:_GridLayoutGroup_get_spacing_m2409263614
lKg:_List_1_CheckIndex_m581273900_gshared
mLc:_UNITY_FT_Stream_GetChar
gBb:__Z18Transfer_BlittableI18StreamedBinaryReadILb1EELb1EdEvRK29SerializationCommandArgumentsR31RuntimeSerializationCommandInfo
bHb:__Z26BuildSerializationCacheFor17ScriptingClassPtrRb
ODa:__ZN7ApiGLES15BlitFramebufferEN2gl6HandleILNS0_10ObjectTypeE9EEENS0_15FramebufferReadES3_S3_iiiiiiiiNS0_15FramebufferTypeE
G8g:__Z112RuntimeInvoker_RuntimeObject_RuntimeObject_RuntimeObject_RuntimeObject_RuntimeObject_RuntimeObject_RuntimeObjectPFvvEPK10MethodInfoPvPS4_
S5d:_InternalEnumerator_1_System_Collections_IEnumerator_get_Current_m3553395619_AdjustorThunk
aXe:_Array_SetValue_m3998268557
fzc:__ZN8JSONRead8TransferI8Vector4fEEvRT_PKc17TransferMetaFlagsb
vcd:_ColorBlock_set_highlightedColor_m2089444414_AdjustorThunk
Kmg:_RectTransform_INTERNAL_set_anchoredPosition_m939517950
Pqe:_Context_EndSwitchingSecurityParameters_m4148956166
qGc:_otv_PairPos_validate
jw:__ZN7mecanim9animation14CopyHumanPosesEPKNS0_18AnimationNodeStateEPS1_RKNS_6bitsetILj83EEE
hhj:__ZN6il2cpp6icalls8mscorlib6SystemL8IsStaticEPK12PropertyInfo
sIb:__Z9InitInputv
lIc:_UNITY_tt_face_build_cmaps
ilj:__ZN6il2cpp2gc19AppendOnlyGCHashMapINSt3__24pairIPK10MethodInfoP11Il2CppClassEEP22Il2CppReflectionMethod17ReflectionMapHashIS9_ENS2_8equal_toIS9_EEE3AddERKS9_SB_
apb:__ZN16MemoryFileSystem6DeleteER13FileEntryDatab
Z1g:__Z81RuntimeInvoker_Void_t1185182177_RuntimeObject_Int64_t3736567304_Int32_t2950945753PFvvEPK10MethodInfoPvPS4_
wLg:_List_1_set_Item_m1979164443_gshared
Kzf:_Array_InternalArray__ICollection_Add_TisLink_t3209266973_m77922316_gshared
zya:__ZL21BlitScaleStbImageImplRK14ImageReferenceRS_NS_10ColorSpaceE
pZe:_Boolean_System_IConvertible_ToUInt16_m3465173538_AdjustorThunk
qsb:__Z29Transfer_Blittable_ArrayFieldI14SafeBinaryReadyEvRT_R9ArrayInfoRK23StaticTransferFieldInfo
AM:__ZN20SoundChannelInstance15setChannelGroupEPN4FMOD12ChannelGroupE
GEi:_Match__ctor_m2425511580
u7f:_KeyPairPersistence_Remove_m1876145547
oc:invoke_vifffii
nQa:__ZN20ArchiveStorageReader17MakeStorageUnusedEv
oPa:__ZNK25MultiBlocksMemoryFileData5CloneEv
MNj:_GC_add_ext_descriptor
zjj:__ZNK15dense_hashtableINSt3__24pairIK10KeyWrapperINS1_IPK14Il2CppAssemblyP11Il2CppClassEEEjEES9_17ReflectionMapHashIS8_EN14dense_hash_mapIS9_jSD_NS9_14EqualsComparerINS0_8equal_toIS8_EEEENS0_9allocatorISB_EEE9SelectKeyESI_SK_E23find_position_with_hashERSA_j
Lsh:_LayoutGroup_SetProperty_TisSingle_t1397266774_m793506911_gshared
eGd:_CryptoConfig_CreateFromName_m1538277313
$Xj:dynCall_iiiiiiiiiiii
rKd:_InputField_set_caretPositionInternal_m3823580651
K$c:__ZN18UnityConnectClient16IsServiceEnabledEv
jUd:_Selectable_set_interactable_m3105888815
FXa:__ZL26KeywordSetToStringDontSortRKNSt3__26vectorIN4core12basic_stringIcNS1_20StringStorageDefaultIcEEEENS_9allocatorIS5_EEEERS5_
RYc:__Z54Register_UnityEngine_Analytics_CustomEventData_AddCharv
rAa:__ZN6prcoreL17RemapGenericFloatI16TexFormatRGFloat17TexFormatRGBAHalfEEvPKNS_9InnerInfoE
GG:__ZN12AudioManager22CreateFMODSoundFromWWWEP10IWWWStream15FMOD_SOUND_TYPE17FMOD_SOUND_FORMATjjbbP10SampleClip
z9b:__ZNK32RendererMaterialAnimationBinding15GenerateBindingERKN4core12basic_stringIcNS0_20StringStorageDefaultIcEEEEbRN11UnityEngine9Animation14GenericBindingE
_pd:_TargetException__ctor_m4172127019
ZOg:_List_1_CheckCollection_m274117203_gshared
Yni:__ZL70EventSystem_t1003666588_CustomAttributesCacheGenerator_m_FirstSelectedP21CustomAttributesCache
k0:__ZN8Remapper23GetOrGenerateInstanceIDERK26SerializedObjectIdentifier
hdd:_ColorTween_get_startColor_m3792586410_AdjustorThunk
Ya:invoke_iiiiiifffiiifii
W_g:__Z85RuntimeInvoker_Void_t1185182177_Int32_t2950945753_Int32_t2950945753_Int32_t2950945753PFvvEPK10MethodInfoPvPS4_
QOe:_X509Chain__ctor_m2878811474
FAe:_CustomInfo__ctor_m426096741
g6c:_EventSystem_ToString_m3779610692
d8a:__ZN6Sprite8TransferI24GenerateTypeTreeTransferEEvRT_
Vnc:__Z48Register_UnityEngine_Transform_SetAsFirstSiblingv
p2a:__ZNK18DelayedCallManager22GetTypeVirtualInternalEv
g8a:__ZN7SubMesh8TransferI24GenerateTypeTreeTransferEEvRT_
Kpg:_Transform_INTERNAL_set_localPosition_m1936358505
Kej:_NativeTypeAttribute__ctor_m133676646
bCh:_Collection_1_System_Collections_IList_Contains_m296643274_gshared
kff:_DirectoryInfo__ctor_m126519516
qmd:_MethodBase_GetMethodFromIntPtr_m3014201362
dgc:__ZN9Transform23SetSiblingIndexInternalEib
uDf:_Enumerator_MoveNext_m635366482
WTe:_X509Extension_Equals_m1222951829
Du:__ZN7mecanim5human12HumanPoseSubERNS0_9HumanPoseERKS1_S4_
$Bj:__ZN6il2cpp8metadata15GenericMetadata15GetGenericClassEiPK17Il2CppGenericInst
Rqb:__Z18Transfer_BlittableI14SafeBinaryReadLb0E10Matrix4x4fEvRK29SerializationCommandArgumentsR31RuntimeSerializationCommandInfo
sGb:__Z24GetFixedBehaviourManagerv
Xfj:__ZN6il2cpp2vm10ThreadPool4WaitEP17Il2CppAsyncResultPPv
qWd:_Text_UpdateGeometry_m3634850647
oTj:_vfprintf
Jqc:__ZN10GUIManager12AddGUIScriptER8ListNodeI13MonoBehaviourE
KDf:_Stack_Clear_m2010200235
WCc:_cf2_getVStore
Y7c:_PointerEventData_set_pointerPressRaycast_m1363193059
AQb:__ZN20DynamicPropertySheetD0Ev
zsd:_SafeHandle_Dispose_m4229010569
T0b:__ZN14SafeBinaryRead17RegisterConverterEPKcS1_PFbPvRS_E
Wfi:__ZL77RuntimePlatform_t4159857903_CustomAttributesCacheGenerator_OSXDashboardPlayerP21CustomAttributesCache
B8:__ZN35RegisterRuntimeInitializeAndCleanup8RegisterEPFvPvES2_iS0_
UBa:__ZN7ApiGLES20DrawElementsIndirectE16GfxPrimitiveTypejjj
xFe:_FieldBuilder_SetValue_m828035213
vnh:_Array_InternalArray__Insert_TisSingle_t1397266774_m3161726127_gshared
yOh:__ZN28GenericInterfaceFuncInvoker0IfE6InvokeEPK10MethodInfoP12Il2CppObject
Znc:__Z21Object_CUSTOM_DestroyP12Il2CppObjectf
soa:__ZN8Material26ResetAllCachedMaterialDataEP6Shader
R5g:__Z63RuntimeInvoker_Void_t1185182177_RuntimeObject_Int16_t2552820387PFvvEPK10MethodInfoPvPS4_
yLc:_UNITY_TT_Get_MM_Var
BDd:_ObjectManager_AddFixup_m2154325362
$7d:_Comparer_1__cctor_m3761458313_gshared
OLf:_DateTimeOffset_CompareTo_m1350732322_AdjustorThunk
aa:invoke_diddi
zTc:__ZNK2UI6Canvas13GetRenderModeEv
yeg:_PersistentCall__ctor_m1217622171
zxf:_Array_compare_TisCustomAttributeTypedArgument_t2723150157_m1384644047_gshared
e9f:_StrongName_get_TokenAlgorithm_m1794722022
aqb:__Z18Transfer_BlittableI14SafeBinaryReadLb0EiEvRK29SerializationCommandArgumentsR31RuntimeSerializationCommandInfo
kej:__ZN6il2cpp2vm13MetadataCache30GetPropertyDefinitionFromIndexEi
TSi:_SymmetricTransform_Transform_m1683494363
Rlg:_Rect_Contains_m1232228501
q0c:__ZN22BaseUnityConnectClient17InitializeSessionERKN4core12basic_stringIcNS0_20StringStorageDefaultIcEEEES6_N19CloudServiceHandler13InitModeFlagsE
rVh:__ZL56KeyCollection_t4251528776_CustomAttributesCacheGeneratorP21CustomAttributesCache
Ibh:__Z74RuntimeInvoker_RuntimeObject_Int32_t2950945753_RuntimeObject_RuntimeObjectPFvvEPK10MethodInfoPvPS4_
TUg:_List_1_get_Item_m200663048_gshared
AVb:__ZN15JobDataGuardian11DecreaseRefI18ShadowMapJobHeaderEEvPT_
a2j:_emscripten_glDeleteBuffers__wrapper
Ehc:__ZN13MonoBehaviour34StopCoroutineFromEnumeratorManagedE18ScriptingObjectPtr
LE:__ZN7mecanim9animation14AvatarConstant15InitializeClassEv
hAc:__ZN11UnityEngine9Analytics18SceneLoadTimeEvent12SetSceneLoadERKN4core12basic_stringIcNS2_20StringStorageDefaultIcEEEEiyyyy
qib:__ZN30RuntimeInitializeOnLoadManager8TransferI18StreamedBinaryReadILb0EEEEvRT_
DFf:_DateTimeOffset__ctor_m2084804982
NHc:_UNITY_tt_face_load_pclt
ahc:__ZL34GetComponentsImplementationRecurseILb1ELi0ELi2EEbR10GameObjectbRK17CompareParametersRK39GetComponentsImplementation_ReturnValue
cGa:__ZN20ComputeShaderVariantD2Ev
Qgg:_Material_GetTexture_m3545614349
IYg:__Z64RuntimeInvoker_RuntimeObject_Int32_t2950945753_Int16_t2552820387PFvvEPK10MethodInfoPvPS4_
gBg:_EqualityComparer_1__cctor_m4244842342_gshared
XPb:__ZNK6Camera18WorldToScreenPointERK8Vector3fPb
Zng:_SendMouseEvents_DoSendMouseEvents_m2140870850
sXc:__ZN14UnityAnalyticsD0Ev
GFi:_PatternCompiler_EmitJump_m3915926156
WCa:__Z18IsCompressedFormat14GraphicsFormat
Yu:__ZN7mecanim9animation19AdjustPoseForMotionERKNS0_14AvatarConstantERKNS0_14SkeletonTQSMapERKN4math4trsXERNS_10ValueArrayERNS_8skeleton13SkeletonPoseTIS8_EESG_
TXf:__Z33il2cpp_codegen_check_add_overflowxx
wZ:__ZNSt3__227__insertion_sort_incompleteIRPFbRKN18AwakeFromLoadQueue4ItemES4_EPS2_EEbT0_S9_T_
cgi:__ZL73RuntimePlatform_t4159857903_CustomAttributesCacheGenerator_MetroPlayerARMP21CustomAttributesCache
Eef:_InvalidOperationException__ctor_m1685032583
jcj:__ZN14dense_hash_mapI10KeyWrapperIN6il2cpp5utils13dynamic_arrayIPK10Il2CppTypeLj4EEEEPFvvENS1_8metadata19Il2CppSignatureHashENS8_14EqualsComparerINSB_22Il2CppSignatureCompareEEENSt3__29allocatorINSG_4pairIKS8_SA_EEEEE15set_deleted_keyERSJ_
zYf:_TimeSpan_op_Subtraction_m3592306516
eDg:_EqualityComparer_1_System_Collections_IEqualityComparer_GetHashCode_m1517903420_gshared
F5a:__ZN26EnlightenSystemInformation8TransferI14SafeBinaryReadEEvRT_
vhb:__ZN24GenerateTypeTreeTransfer8TransferINSt3__26vectorIN15ResourceManager10DependencyE13stl_allocatorIS4_L18MemLabelIdentifier52ELi16EEEEEEvRT_PKc17TransferMetaFlags
r3i:_CanvasRenderer_SplitUIVertexStreams_m2753637362
ldh:__Z119RuntimeInvoker_Void_t1185182177_RuntimeObject_Single_t1397266774_Single_t1397266774_SByte_t1669577662_Int32_t2950945753PFvvEPK10MethodInfoPvPS4_
L1c:__ZN11UnityEngine15PlatformWrapper20SetPlayerPrefsUInt64ERKN4core12basic_stringIcNS1_20StringStorageDefaultIcEEEEy
vcb:__ZN12MeshRendererD0Ev
YP:__ZN12AudioManager35GetCurrentSpatializerDefinitionNameEv
N5i:_CustomEventData_InternalDestroy_m2184675245
Eh:_utime
bii:__ZL56PlayableGraph_t3515989261_CustomAttributesCacheGeneratorP21CustomAttributesCache
ZHi:_BalancingGroup_Compile_m2575117193
UB:__Z28SetExposedSkeletonTransformsRKN7mecanim9animation14AvatarConstantERKN11UnityEngine9Animation30AnimatorGenericBindingConstantERKNS_8skeleton13SkeletonPoseTIN4math4trsXEEERKNSA_INSB_7affineXEEERNS5_21AvatarBindingConstantEy
arj:__ZNSt3__26vectorIN6il2cpp2vm17TypeNameParseInfoENS_9allocatorIS3_EEE8allocateEj
BEi:_Mark_get_Index_m3048692661_AdjustorThunk
yn:FUNCTION_TABLE_viiiiif
B7d:_DefaultComparer_Compare_m3931992727_gshared
Dn:FUNCTION_TABLE_viiiiii
u6d:_InternalEnumerator_1_System_Collections_IEnumerator_get_Current_m1847780851_AdjustorThunk
JRi:_GUILayoutUtility_get_spaceStyle_m3392862907
xcf:_Int32_System_IConvertible_ToType_m3009233912_AdjustorThunk
EFf:_DateTimeOffset__ctor_m74032857
tD:__ZN7mecanim9animation22DestroyAvatarWorkspaceEPNS0_15AvatarWorkspaceERNS_6memory9AllocatorE
sZf:_Type_type_is_assignable_from_m76737532
ZWb:__ZN15LightmapSTCacheC2ER13BatchRendererR15RenderLoopStats
i2a:__ZN14PlayableOutput17SetSourcePlayableEP8Playable
JC:__ZN7mecanim9animation29MotionOutputGetDeltaTransformEPKNS0_12MotionOutputE
cMh:_ReadOnlyCollection_1_System_Collections_Generic_ICollectionU3CTU3E_Add_m2369252587_gshared
gAc:__ZN27PerformanceReportingManager21OnSceneTimingCallbackERK15SceneLoadTimingRKN4core12basic_stringIcNS3_20StringStorageDefaultIcEEEE
qnc:__Z43Transform_CUSTOM_INTERNAL_get_localRotationP12Il2CppObjectP11Quaternionf
r7e:_CultureInfo_get_Parent_m672689885
fOj:__ZN6il2cpp6icalls8mscorlib6System10Reflection4Emit13ModuleBuilder13RegisterTokenEP29Il2CppReflectionModuleBuilderP12Il2CppObjecti
f0j:_glGetShaderInfoLog__wrapper
kDd:_ObjectReader_ReadObjectGraph_m340866276
hi:_emscripten_glGetTexParameteriv
DZc:__ZN11UnityEngine7Connect15DeviceInfoEvent7GFXInfoD2Ev
D1j:_glGenTextures__wrapper
lja:__ZN9ShaderLab20SerializedSubProgram14ConstantBufferaSERKS1_
g5b:__Z13RegisterClassI4MeshEvv
Aji:__ZL74SharedBetweenAnimatorsAttribute_t2857104338_CustomAttributesCacheGeneratorP21CustomAttributesCache
H$a:__ZN8PlayableD0Ev
Bg:emscriptenWebGLGetBufferBinding
jI:__ZN12AudioManager8TransferI19StreamedBinaryWriteILb0EEEEvRT_
MUd:_Slider_UpdateCachedReferences_m3259451627
l4g:__Z50RuntimeInvoker_Double_t594665363_Double_t594665363PFvvEPK10MethodInfoPvPS4_
YBb:__ZN18StreamedBinaryReadILb1EE21TransferSTLStyleArrayI13dynamic_arrayI11ColorRGBA32Lj4EEEEvRT_17TransferMetaFlags
Nuj:__ZN15dense_hashtableINSt3__24pairIK10KeyWrapperINS1_IP11Il2CppClassjEEES4_EES6_N6il2cpp8metadata14ArrayClassHashEN14dense_hash_mapIS6_S4_SB_NS6_14EqualsComparerINSA_17ArrayClassCompareEEENS0_9allocatorIS8_EEE9SelectKeyESF_SH_E6insertERKS8_
Lfd:_U3CShowU3Ec__AnonStorey1_U3CU3Em__0_m2340880019
v$c:__ZN22BaseUnityConnectClient38PrepareConfigRequestOnMainThreadStaticEPS_
Lzi:_TlsStream_Flush_m3793197834
Fnb:__ZN22LocalFileSystemHandler9MakeLocalER13FileEntryDatab
DJj:__ZN6il2cpp2vm8Profiler10AllocationEP12Il2CppObjectP11Il2CppClass
ori:__ZL61Graphic_t1660335611_CustomAttributesCacheGenerator_m_MaterialP21CustomAttributesCache
WPc:__ZNSt3__23mapIN20TextRenderingPrivate7FontRefENS1_6OSFontENS_4lessIS2_EENS_9allocatorINS_4pairIKS2_S3_EEEEEixERS8_
Aga:__Z13FormatOrderedPKcz
Thj:__ZN6il2cpp2vm8basepathEPKc
VNe:_X509Chain_GetAuthorityKeyIdentifier_m614536199
tNc:__ZN14SafeBinaryRead21TransferSTLStyleArrayI10vector_mapINSt3__24pairIttEEfN20TextRenderingPrivate8FontImpl14KerningCompareENS2_9allocatorINS3_IS4_fEEEEEEEvRT_17TransferMetaFlags
Cpe:_TlsServerFinished__ctor_m1445633918
xAe:_NumberFormatter_FastIntegerToString_m390846811
dgi:__ZL68RuntimePlatform_t4159857903_CustomAttributesCacheGenerator_WP8PlayerP21CustomAttributesCache
KWb:__ZN25DeferredRenderLoopScratchD0Ev
bx:__ZN27AnimationLayerMixerPlayable14SetInputWeightEif
B7c:_PhysicsRaycaster_Raycast_m776323695
Gqg:_UnityException__ctor_m1456865679
zu:__ZN7mecanim9animation17EvaluateHumanPoseERKNS0_18ClipMuscleConstantERKNS0_15ClipMuscleInputEPKfRKNS0_12MotionOutputERNS_5human9HumanPoseE
via:__ZN15dense_hashtableINSt3__24pairIKiN4core17string_with_labelILi1EEEEEi18SInt32HashFunctionN14dense_hash_mapIiS5_S7_NS0_8equal_toIiEE13stl_allocatorIS6_L18MemLabelIdentifier1ELi16EEE9SelectKeyESA_SD_E9copy_fromERKSG_j
VCe:_CustomAttributeNamedArgument_GetHashCode_m2317130892
Sgb:__ZN15ResourceManagerD0Ev
GBd:_WellKnownClientTypeEntry_ToString_m1119458503
I4:__ZN22CreateGpuProgramOutputD2Ev
WTg:_List_1_get_Item_m1378751541_gshared
skf:_SHA1CryptoServiceProvider_Finalize_m1793183797
NEg:_HashSet_1_System_Collections_Generic_ICollectionU3CTU3E_CopyTo_m408073502_gshared
GP:__ZN14AudioBehaviourC2E10MemLabelId18ObjectCreationMode
Qmb:__ZN12HandlerChain4OpenER13FileEntryData14FilePermission16FileAutoBehavior
qjh:__Z72RuntimeInvoker_Void_t1185182177_Int32_t2950945753_RaycastHit_t1056001966PFvvEPK10MethodInfoPvPS4_
mlj:__ZN15dense_hashtableINSt3__24pairIK10KeyWrapperINS1_IPK10MethodInfoP11Il2CppClassEEEjEES9_17ReflectionMapHashIS8_EN14dense_hash_mapIS9_jSD_NS9_14EqualsComparerINS0_8equal_toIS8_EEEENS0_9allocatorISB_EEE9SelectKeyESI_SK_E6insertERKSB_
sAc:__ZN27PerformanceReportingManager29OnSceneLoadedAfterAwakeStaticEPS_iR18AwakeFromLoadQueueN19RuntimeSceneManager11LoadingModeE
VUf:_UTF8Encoding_GetCharCount_m2272165989
_We:_Array_SetValue_m394135409
n1:__ZN14FileCacherReadD2Ev
Qjb:__ZN13RendererScene23UpdatePreviousFrameDataEii
Nrf:_String_Remove_m562998446
sjc:__Z50Register_UnityEngine_CullingGroup_FinalizerFailurev
fnf:_SecurityPermission_IsSubsetOf_m545000671
zkb:__ZN27UnloadUnusedAssetsOperationD0Ev
cSb:__ZN28LightProbeProxyVolumeContextC2E10MemLabelId
ZVj:__ZNKSt3__221__basic_string_commonILb1EE20__throw_out_of_rangeEv
Wcg:_Cursor_get_lockState_m2828192107
Nhj:_UpdatedEventHandler_Invoke_m1320302085
XF:__ZN9AudioClip23VirtualRedirectTransferER18StreamedBinaryReadILb0EE
sUg:_List_1_AddEnumerable_m2724989594_gshared
gch:__Z82RuntimeInvoker_Vector2_t2156229523_Vector2_t2156229523_RuntimeObject_RuntimeObjectPFvvEPK10MethodInfoPvPS4_
EHa:__ZN18GlslGpuProgramGLESC2ERK13dynamic_arrayIhLj1EER22CreateGpuProgramOutput
Woc:__Z70Register_UnityEngine_Playables_PlayableHandle_GetPlayableType_Injectedv
Gke:_ARC4Managed_TransformBlock_m1687647868
Jj:_glCopyTexSubImage2D
Lqg:_UnitySynchronizationContext_ExecuteTasks_m1310741010
_if:_RIPEMD160Managed_CompressFinal_m497690796
h0b:__ZN18ScreenManagerWebGL13SetShowCursorEb
ZLb:__ZN13DrawImmediateC2ER9GfxDevice
zTj:_frexp
Nqb:__Z18Transfer_BlittableI14SafeBinaryReadLb0E5RectTIfEEvRK29SerializationCommandArgumentsR31RuntimeSerializationCommandInfo
BAe:_NumberFormatter_NumberToString_m2562899600
yGc:_otv_u_C_x_Ox
gxa:__ZN18AsyncUploadManager19AsyncResourceUploadER9GfxDeviceii9TextureID
sua:__ZN14GfxContextGLES14GetFramebufferEv
r2j:_emscripten_glGenVertexArrays__wrapper
L1f:_Version_Clone_m1749041863
cza:__ZN6prcoreL21CreateRemapAnyBlitterE13TextureFormatS0_
pme:_RSAManaged_ExportParameters_m1754454264
jfc:__ZN17AnimationCurveTplIfE16StripInvalidKeysEv
BZe:_Boolean_Equals_m535526264_AdjustorThunk
GTc:__ZNK2UI6Canvas17GetSortingLayerIDEv
Zsj:_il2cpp_method_has_attribute
_4b:__Z13RegisterClassI17GlobalGameManagerEvv
A6:__ZN8Renderer24SetupNewRendererForSceneEv
nZf:_Type_internal_from_name_m1721940673
dBd:_RemotingServices_GetMethodBaseFromName_m3194612939
pxc:__Z35Transfer_Blittable_FixedBufferFieldI8JSONReadtEvRK29SerializationCommandArgumentsR31RuntimeSerializationCommandInfo
tcc:__ZN14PlayableOutput6HandleEv
C7a:__ZNK6Sprite22GetTypeVirtualInternalEv
g4c:__ZN13RuntimeStaticINSt3__26vectorI23UnityVRDeviceDefinition13stl_allocatorIS2_L18MemLabelIdentifier90ELi16EEEELb0EE13StaticDestroyEPv
xn:FUNCTION_TABLE_iiiiiiiiiiiiii
pHc:_UNITY_tt_get_cmap_info
Lte:_SslClientStream_RaiseServerCertificateValidation_m3477149273
zxb:__Z29Transfer_Blittable_ArrayFieldI24GenerateTypeTreeTransfer5RectTIiEEvRT_R9ArrayInfoRK23StaticTransferFieldInfo
JYa:__ZN16ReflectionProbes8ScheduleEN18ReflectionProbeJob7JobTypeEP15ReflectionProbei
Gpe:_ClientSessionInfo_KeepAlive_m1020179566
QTc:__ZN13dynamic_arrayIN2UI13UIInstructionELj4EE12emplace_backEv
cNa:__Z18IsDirectoryCreatedRKN4core12basic_stringIcNS_20StringStorageDefaultIcEEEE
Umf:_String_FormatHelper_m3913915042
ESc:__ZN2UI13CanvasManagerD2Ev
ACe:_ConstructorInfo__cctor_m1016079270
u9i:__ZN15dense_hashtableINSt3__24pairIK10KeyWrapperIPKcEP11Il2CppClassEES5_N6il2cpp5utils11StringUtils12StringHasherIS4_EEN14dense_hash_mapIS5_S8_SE_NS5_14EqualsComparerINSB_13VmStringUtils21CaseSensitiveComparerEEENS0_9allocatorIS9_EEE9SelectKeyESJ_SL_E15set_deleted_keyERKS9_
XUe:_AttrListImpl_get_Names_m977594476
xPc:_UNITY_FT_GlyphLoader_Done
Spd:_Pointer_Box_m389276611
GOf:_StackTrace_get_FrameCount_m344690939
zve:_UnexceptionalStreamWriter_Write_m363195622
UPc:__ZN20TextRenderingPrivate25ReadFontFileAndAddToCacheERKN4core12basic_stringIcNS0_20StringStorageDefaultIcEEEE
qIc:_tt_cmap14_char_var_index
fLd:_Selectable_OnPointerDown_m1086067264
BMc:_psh_globals_new
dfd:_Dropdown_SetupTemplate_m628218778
mVf:_Thread_GetCompressedStack_m2923422412
Z1e:_SynchronizedArrayListWrapper_CopyTo_m4207791406
iMe:_X509BasicConstraintsExtension_ToString_m1809935297
Roa:__ZN9GfxDevice20SetMaxBufferedFramesEi
fPi:_TweenRunner_1_StartTween_m1055628540_gshared
rHh:_ReadOnlyCollection_1_System_Collections_IList_Remove_m4129318771_gshared
xsh:_GameObject_GetComponents_TisRuntimeObject_m1246177135_gshared
pYj:dynCall_vdd
owe:_MethodAccessException__ctor_m3542088436
m2b:__Z23ConvertIntegerToTypePtrIsEbPvR14SafeBinaryRead
vAg:_EqualityComparer_1_System_Collections_IEqualityComparer_GetHashCode_m2230215241_gshared
wui:__ZL60ContentSizeFitter_t3850442145_CustomAttributesCacheGeneratorP21CustomAttributesCache
a4e:_Hashtable_Contains_m2145146412
xai:__ZL64UnmarshalledAttribute_t1517743549_CustomAttributesCacheGeneratorP21CustomAttributesCache
pec:__ZN4Mesh24UpdateSubMeshVertexRangeEi
Obf:_Int32_FindCurrency_m3541026887
$Re:_Interval_CompareTo_m3282557545
p3j:_pthread_cond_wait__wrapper
XVb:__ZNK14RenderSettings19GetFlatAmbientColorEv
Eya:__ZN6prcoreL10inner_flipILj4EEEvPhS1_j
Afb:__ZN18StreamedBinaryReadILb0EE21TransferSTLStyleArrayI10vector_mapIPKN5Unity4TypeE7Hash128NSt3__24lessIS6_EENS8_9allocatorINS8_4pairIS6_S7_EEEEEEEvRT_17TransferMetaFlags
$y:__ZNK27StateMachineBehaviourPlayer15IsSenderEnabledEv
PDi:_RijndaelManagedTransform_TransformBlock_m1610137419
Pnc:__Z40Register_UnityEngine_Transform_SetParentv
r9a:__ZN14Texture2DArray17UploadToGfxDeviceEv
TJ:__Z14FMODMemoryFreePvjPKc
reg:_NetFxCoreExtensions_GetMethodInfo_m444570327
$Tb:__Z14SetSHConstantsR13BatchRendererR17ShaderPassContextRK20SphericalHarmonicsL2b
Q_e:_Char_System_IConvertible_ToDecimal_m3534906463
BDc:_cf2_glyphpath_moveTo
Hog:_StackTraceUtility_SetProjectFolder_m830524047
zv:__ZN7mecanim23TransformValueArrayLoopEiiiRKN4math4trsXES3_RNS_10ValueArrayEf
Vpe:_ClientSessionInfo_Finalize_m2165787049
Eqc:__ZN5IMGUI14GUIWindowStateD2Ev
Soe:_ClientContext_Clear_m1774063253
Bec:__ZN4Mesh17SetIndicesComplexEPKvjj16GfxPrimitiveTypeij
$Kf:_DateTime_AddSeconds_m332574389_AdjustorThunk
sqg:_RequestAtlasCallback_Invoke_m378128467
c_e:_Byte_System_IConvertible_ToSByte_m1869482168
m2g:__Z99RuntimeInvoker_RuntimeObject_RuntimeObject_RuntimeObject_StreamingContext_t3711869237_RuntimeObjectPFvvEPK10MethodInfoPvPS4_
hUi:_AnalyticsEventTracker_Awake_m2780522130
WB:__ZN7mecanim5human10RetargetToEPKNS0_5HumanEPKNS0_9HumanPoseES6_RKN4math4trsXEPS4_PNS_8skeleton13SkeletonPoseTIS8_EESF_
rv:__ZN7mecanim9animation8SeekClipERKNS0_12StreamedClipERNS0_18StreamedClipMemoryEf
Bfg:_GameObject_Internal_AddComponentWithType_m3797731663
sm:_emscripten_glIsTexture
Zk:_emscripten_glHint
lTi:_Check_SourceAndPredicate_m2332465641
Abh:__Z67RuntimeInvoker_Boolean_t97287965_TextGenerationSettings_t1351628751PFvvEPK10MethodInfoPvPS4_
kLc:_ft_var_readpackeddeltas
jof:_String_op_Inequality_m215368492
DAb:__Z35Transfer_Blittable_FixedBufferFieldI18StreamedBinaryReadILb1EEtEvRK29SerializationCommandArgumentsR31RuntimeSerializationCommandInfo
x$f:_UInt32_System_IConvertible_ToInt64_m2261037378
vm:_SDL_UpperBlit
FYa:__Z35GetTextureDecodeValuesWithIntensity16TextureUsageMode17TextureColorSpace10ColorSpacef
xuf:_Array_InternalArray__ICollection_Remove_TisChar_t3634460470_m4143749387_gshared
lMb:__ZN15dense_hashtableINSt3__24pairIK9TextureIDiEES2_14GfxGenericHashIS2_EN14GfxDoubleCacheIS2_iS6_NS0_8equal_toIS2_EEN31GfxDoubleCacheConcurrencyPolicy11LocklessGetE42GfxDoubleCacheDefaultEmptyDeletedGeneratorIS2_EE9SelectKeyES9_13stl_allocatorIS4_L18MemLabelIdentifier24ELi16EEE14squash_deletedEv
Gpj:__ZN15dense_hashtableINSt3__24pairIK10KeyWrapperINS1_IPK9EventInfoP11Il2CppClassEEEjEES9_17ReflectionMapHashIS8_EN14dense_hash_mapIS9_jSD_NS9_14EqualsComparerINS0_8equal_toIS8_EEEENS0_9allocatorISB_EEE9SelectKeyESI_SK_E15set_deleted_keyERKSB_
RRf:_Encoding_GetBytes_m3823106599
D6e:_GregorianCalendar__ctor_m979779718
kte:_SslClientStream__ctor_m2402546929
AGb:__ZN14SafeBinaryRead20OverrideRootTypeNameEPKc
qIe:_DictionaryNodeEnumerator_get_Entry_m2309234501
r1:__ZN14FileCacherRead16UnlockCacheBlockEj
G9:__ZN10InstancingL21OnGraphicsCapsChangedEv
mXf:_WaitHandle_get_Handle_m3260446580
_Hg:_Enumerator_VerifyState_m1745883925_AdjustorThunk
Nc:_emscripten_glUniform1f
PCf:_SortedList__ctor_m1261191695
aQc:__Z20ParseImageParametersR11UTF16StringRiRN20TextRenderingPrivate16TextFormatChangeE
lui:__ZL55CanvasScaler_t2767979955_CustomAttributesCacheGeneratorP21CustomAttributesCache
Sc:_emscripten_glUniform1i
Xvb:__Z18Transfer_BlittableI24GenerateTypeTreeTransferLb1EN4math12int3_storageEEvRK29SerializationCommandArgumentsR31RuntimeSerializationCommandInfo
nRd:__Z14bankers_roundff
pka:__ZN9ShaderLab16SerializedTagMapaSERKS0_
rS:__ZN11UnityEngine15CloudWebService16SessionContainer20RestoreSessionHeaderERKN4core12basic_stringIcNS2_20StringStorageDefaultIcEEEES8_RNS0_13SessionHeaderE
XPj:__ZN6il2cpp2os12Cryptography23GetCryptographyProviderEv
hD:__ZN11UnityEngine9Animation27CreateAvatarBindingConstantER9TransformPKN7mecanim9animation14AvatarConstantERNS3_6memory9AllocatorE
C1g:__Z151RuntimeInvoker_RuntimeObject_Int32_t2950945753_RuntimeObject_ObjectU5BU5DU26_t712384779_RuntimeObject_RuntimeObject_RuntimeObject_ObjectU26_t2146539884PFvvEPK10MethodInfoPvPS4_
Shc:__ZN9BlobWriteC2ER13dynamic_arrayIhLj16EE24TransferInstructionFlags19BuildTargetPlatform
Mbd:_CanvasUpdateRegistry__ctor_m2005397069
E$:__ZN14MessageHandler3GetEv
hnd:_MonoMethodInfo_GetCallingConvention_m3156036493
ANd:_LayoutGroup_SetLayoutInputForAxis_m2458344630
ed:_emscripten_glAttachShader
Qoa:__ZN9GfxDevice13SetActiveTierE12GraphicsTier
Jjd:_Image__cctor_m1927508576
Hka:__ZNSt3__26vectorIN4core12basic_stringIcNS1_20StringStorageDefaultIcEEEENS_9allocatorIS5_EEE6assignIPS5_EENS_9enable_ifIXaasr21__is_forward_iteratorIT_EE5valuesr16is_constructibleIS5_NS_15iterator_traitsISC_E9referenceEEE5valueEvE4typeESC_SC_
UPj:__ZN6il2cpp6icalls8mscorlib6System21CurrentSystemTimeZone15GetTimeZoneDataEiPP11Il2CppArrayS6_
uqb:__Z18Transfer_BlittableI14SafeBinaryReadLb0E11QuaternionfEvRK29SerializationCommandArgumentsR31RuntimeSerializationCommandInfo
JDb:__Z18Transfer_BlittableI18StreamedBinaryReadILb0EELb1E12PropertyNameEvRK29SerializationCommandArgumentsR31RuntimeSerializationCommandInfo
_W:_tlsf_walk_heap
r1g:__Z49RuntimeInvoker_Void_t1185182177_OpCode_t123070264PFvvEPK10MethodInfoPvPS4_
hJf:_Convert_ToUInt32_m3592050311
kb:invoke_vif
msh:_Component_GetComponents_TisRuntimeObject_m2416546752_gshared
lb:invoke_vid
pWj:__ZNSt3__212basic_stringIcNS_11char_traitsIcEENS_9allocatorIcEEE6insertEjPKc
nb:invoke_vii
wPb:__ZNK12ImageFilters8DoRenderER17ShaderPassContextP13RenderTextureS3_RKNSt3__26vectorI11ImageFilterNS4_9allocatorIS6_EEEE
NLa:__ZN12TLSAllocatorI14StackAllocatorE16ThreadInitializeEP13BaseAllocator
R2g:__Z82RuntimeInvoker_Boolean_t97287965_SByte_t1669577662_RuntimeObject_SByte_t1669577662PFvvEPK10MethodInfoPvPS4_
ppa:__ZN9GfxDevice32UpdateStereoViewProjectionMatrixE21MonoOrStereoscopicEye
K8i:_Main_inMajor_m522887121
IVc:__Z41CanvasRenderer_CUSTOM_DisableRectClippingP12Il2CppObject
Axe:_MonoType_GetConstructorImpl_m441167626
led:_DefaultControls_CreateRawImage_m4219873755
Ixh:_Collection_1_IsFixedSize_m3709118201_gshared
$Pa:__ZN25SingleBlockMemoryFileDataD0Ev
ULa:__ZNSt3__26vectorI14ConstantStringNS_9allocatorIS1_EEE6assignINS_11__wrap_iterIPS1_EEEENS_9enable_ifIXaasr21__is_forward_iteratorIT_EE5valuesr16is_constructibleIS1_NS_15iterator_traitsISA_E9referenceEEE5valueEvE4typeESA_SA_
mS:__ZN11UnityEngine15CloudWebService16SessionContainer21ConvertFromFolderTimeERKN4core12basic_stringIcNS2_20StringStorageDefaultIcEEEEPjPt
MFd:_CodeAccessPermission_Equals_m1555575992
fsb:__ZNSt3__26vectorI8GUIStyle13stl_allocatorIS1_L18MemLabelIdentifier1ELi16EEE7reserveEj
Swj:__ZN6il2cpp6icalls8mscorlib6System9Threading6Thread27GetSerializedCurrentCultureEP12Il2CppThread
qqe:_Context_set_ReadSequenceNumber_m2154909392
KDi:_RijndaelTransform_SubByte_m3037693507
B3b:__Z31CalculateHierarchyTransformType23TransformAccessReadOnly
v5b:__Z13RegisterClassI11TimeManagerEvv
KJ:__ZN4FMOD8ChannelI11setPositionEjj
egg:_Input_INTERNAL_CALL_GetTouch_m3481893561
PLj:_GC_set_fl_marks
Xhb:__ZNSt3__26vectorIN30RuntimeInitializeOnLoadManager15ClassMethodInfoE13stl_allocatorIS2_L18MemLabelIdentifier13ELi16EEE7reserveEj
spa:__ZN9GfxDevice17SetStereoViewportE15StereoscopicEyeRK5RectTIiE
Yfa:__ZN17BaseObjectManager13StaticDestroyEPv
c3i:_CanvasRenderer_INTERNAL_CALL_GetColor_m597074473
l8d:_Comparer_1__cctor_m3891417387_gshared
GUf:_UTF7Decoder_GetChars_m3413809261
WEe:_EnumBuilder_GetEvent_m4074915332
Dh:_sysconf
Npg:_Vector3_get_forward_m3100859705
uPf:_Double_Equals_m2309369974_AdjustorThunk
BI:__ZN4FMOD6Reverb13setPropertiesEPK22FMOD_REVERB_PROPERTIES
hRb:__ZN9DepthPass13PrepareSubsetEjRK10RenderNodeifRK17ShaderReplaceData
Tqf:_String_IndexOf_m3406607758
uja:__ZN9ShaderLab20SerializedSubProgram16TextureParameter8TransferI14SafeBinaryReadEEvRT_
Iec:__Z35SetMeshComponentFromArrayFromScriptR4Mesh30InternalScriptingShaderChannel34InternalScriptingVertexChannelTypei17ScriptingArrayPtri
$zf:_Array_InternalArray__ICollection_Add_TisCustomAttributeNamedArgument_t287865710_m4157175270_gshared
qq:__ZN4core20StringStorageDefaultIcE6assignEPKcj
C0f:_UInt64_System_IConvertible_ToUInt64_m2135047981_AdjustorThunk
ije:_BigInteger_ModPow_m3776562770
lDj:__ZN15dense_hashtableINSt3__24pairIK10KeyWrapperIP12Il2CppObjectEN6il2cpp2gc9CachedCCWEEES5_NS7_5utils11PointerHashIS3_EEN14dense_hash_mapIS5_S9_SD_NS5_14EqualsComparerINS0_8equal_toIS4_EEEENS0_9allocatorISA_EEE9SelectKeyESI_SK_E3endEv
rse:_RecordProtocol_ProcessChangeCipherSpec_m15839975
l0e:_ArrayList_IndexOf_m305368842
j_b:__ZN6Camera6SetFarEf
$Bd:_FormatterConverter_ToBoolean_m1680758923
Uza:__ZN6prcoreL12RemapGenericI17TexFormatABGR888817TexFormatARGB8888EEvPKNS_9InnerInfoE
WQa:__ZN11GameManager17MainThreadCleanupEv
tFh:_ReadOnlyCollection_1__ctor_m1345363288_gshared
oXc:__Z50Register_UnityEngine_UISystemProfilerApi_EndSamplev
Jb:invoke_vffff
VMb:__ZZ23InitPlayerLoopCallbacksvEN45EarlyUpdateRendererNotifyInvisibleRegistrator7ForwardEv
aDd:_SerializationCallbacks_GetSerializationCallbacks_m2939476649
K3e:_Hashtable__cctor_m4112166779
VJc:_UNITY_tt_slot_init
mNb:__ZZ23InitPlayerLoopCallbacksvEN41PostLateUpdateUpdateResolutionRegistrator7ForwardEv
uFb:__Z25scripting_array_class_get17ScriptingClassPtrj
rvc:__ZL22Transfer_ManagedObjectI9JSONWriteLb1EEvRK29SerializationCommandArgumentsR31RuntimeSerializationCommandInfo
EF:__ZNK10SampleClip22GetTypeVirtualInternalEv
Bqa:__ZN9GfxDevice20DestroyRenderSurfaceER12ObjectHandleI17RenderSurface_TagP17RenderSurfaceBaseE
EDf:_Stack__ctor_m2602729586
k4b:__ZL24PrepareSpriteRenderNodesILb1EEvR35RenderNodeQueuePrepareThreadContext
JJa:__ZN9GfxDevice22UpdateComputeResourcesEjPK9TextureIDPK16TextureDimensionPKijPKjjPK15ComputeBufferIDS7_PK20ComputeBufferCounterjSC_S2_S5_S9_SF_
g2:__ZN12_GLOBAL__N_15qAsinEff
G_d:_InternalEnumerator_1_System_Collections_IEnumerator_get_Current_m2629988057_AdjustorThunk
OLa:__ZN12TLSAllocatorI14StackAllocatorE13ThreadCleanupEv
xJj:__ZThn4_N6il2cpp2vm13ComObjectBase16MarshalInterfaceEP13Il2CppIStreamRK10Il2CppGuidPvjS7_j
UGf:_Convert_ToDouble_m996590115
iIb:__Z27FindActiveTransformWithPathPKc
DJh:_ReadOnlyCollection_1_System_Collections_IList_Remove_m4169110229_gshared
b$f:_UInt16_ToString_m3020002356
YNd:_LayoutRebuilder_LayoutComplete_m68578143
vRi:_GUIStyle_get_fixedWidth_m2576616348
dDf:_SortedList_Find_m3363512987
HY:__ZNK6Camera7GetNearEv
EFe:_GenericTypeParameterBuilder_GetConstructorImpl_m863833310
Ice:_Enumerator_get_Current_m3687673883_AdjustorThunk
PCa:__ZN7ApiGLES11UnmapBufferEjN2gl12BufferTargetE
LJj:__ZN6il2cpp5utilsL24Utf32CharToSurrogatePairEjRA2_Ds
k4a:__Z25GetNextAllowedTextureSizeib13TextureFormat
aIb:__ZN20LocalFileSystemWebGL4CopyER13FileEntryDataS1_
YU:__ZN19CloudServiceHandler6RetainEv
jGh:_ReadOnlyCollection_1_System_Collections_IList_IndexOf_m198887188_gshared
nrc:__Z36Event_CUSTOM_Internal_SetNativeEventPv
YTf:_UTF32Encoding_GetBytes_m3180303867
P3:__ZN12BaseRenderer20FlattenToRenderQueueER15RenderNodeQueueRK20DeprecatedSourceData
RHh:_ReadOnlyCollection_1_System_Collections_IList_Clear_m2007013334_gshared
Okb:__Z34scripting_liveness_calculation_endPv
fFj:__ZN6il2cpp2os6ThreadC2Ev
aMf:_DateTimeOffset_get_UtcDateTime_m1021718282_AdjustorThunk
Ou:__ZN21AnimationClipPlayable22ProcessAnimationNoClipEPK35AnimationPlayableEvaluationConstantPK32AnimationPlayableEvaluationInputP33AnimationPlayableEvaluationOutput
NHe:_HybridDictionary_get_Count_m1166314536
Gzi:_TlsStream_Write_m1412844442
Twc:__Z18Transfer_BlittableI8JSONReadLb0E8Vector3fEvRK29SerializationCommandArgumentsR31RuntimeSerializationCommandInfo
UAi:_X509CertificateEnumerator_get_Current_m1004537031
ivj:__ZN6il2cpp2vm6Thread6DetachEP12Il2CppThread
hAi:_GeneralNames_get_DNSNames_m3788548987
dBc:__GLOBAL__sub_I_runtime_dynamics_2_cpp
nD:__ZN7mecanim8skeleton30SkeletonBuildReverseIndexArrayEPiPKiPKNS0_8SkeletonES6_
spc:__Z19GetGUIBlendMaterialv
dwe:_Math_Round_m3018379666
XFj:__ZN6il2cpp2os10ThreadImpl5SleepEjb
lGh:_ReadOnlyCollection_1_System_Collections_IList_Remove_m1965826685_gshared
Bvc:__ZN9JSONWrite8TransferI13GUIStyleStateEEvRT_PKc17TransferMetaFlags
$Nf:_Delegate_CreateDelegate_m1051651521
Evf:_PlayableHandle_IsPlayableOfType_TisRuntimeObject_m503495943_AdjustorThunk
T1j:_glBindSampler__wrapper
NQa:__ZNSt3__26vectorIN20ArchiveStorageHeader12StorageBlockE13stl_allocatorIS2_L18MemLabelIdentifier55ELi16EEE8__appendEj
Mf:_emscripten_set_mouseup_callback
phg:_Mathf_Clamp_m3350697880
c3g:__Z165RuntimeInvoker_Void_t1185182177_UInt32U26_t3735378166_Int32_t2950945753_UInt32U26_t3735378166_Int32_t2950945753_Int32_t2950945753_Int32_t2950945753_Int32_t2950945753PFvvEPK10MethodInfoPvPS4_
LKg:_List_1_System_Collections_IList_Remove_m3140917266_gshared
pGi:_CompositeExpression__ctor_m2434860303
kPe:_X509ChainElementCollection_System_Collections_IEnumerable_GetEnumerator_m3829089536
l0b:__ZNK18ScreenManagerWebGL8GetWidthEv
BF:__ZN10SampleClipD2Ev
hQh:_Predicate_1_Invoke_m2389850270_gshared
hkb:__Z13GetGISettingsv
IU:__ZN11UnityEngine15CloudWebService20WebRequestRestClientC2Ev
mFc:_cff_cmap_unicode_init
Ktf:_Array_InternalArray__ICollection_Contains_TisRuntimeObject_m4067783231_gshared
kwh:_Collection_1_IsValidItem_m3080586124_gshared
mcd:_ClipperRegistry_Register_m2407166513
RUj:_readlink
hnj:__ZN15dense_hashtableINSt3__24pairIK10KeyWrapperINS1_IPK9EventInfoP11Il2CppClassEEEjEES9_17ReflectionMapHashIS8_EN14dense_hash_mapIS9_jSD_NS9_14EqualsComparerINS0_8equal_toIS8_EEEENS0_9allocatorISB_EEE9SelectKeyESI_SK_E12resize_deltaEjj
cnd:_MonoCMethod_Invoke_m2700167622
tCf:_KeyMarker__cctor_m2590194914
eae:_Enumerator_Reset_m627751027_AdjustorThunk
Cdb:__ZNK6Sprite9GetBoundsE8Vector2fbb
jUa:__ZNK19RenderEventsContext21CleanupCommandBuffersEv
n2i:_TextGenerator_PopulateWithErrors_m1222498386
vua:__ZN11ContextGLES6CreateEi
kOg:_List_1_set_Capacity_m3382070520_gshared
wMd:_U3CMouseDragOutsideRectU3Ec__Iterator1_Dispose_m267465418
CNf:_Decimal_CompareTo_m3502307243_AdjustorThunk
xEb:__Z19TransferField_ArrayI18StreamedBinaryReadILb0EE27Converter_SimpleNativeClassI17AnimationCurveTplIfEEEvRK23StaticTransferFieldInfoR31RuntimeSerializationCommandInfoRT0_
pLa:__ZN14StackAllocator16FrameMaintenanceEb
ENa:__Z18ReadStringFromFilePN4core17string_with_labelILi1EEERKNS_12basic_stringIcNS_20StringStorageDefaultIcEEEE
mRd:_Scrollbar_get_value_m760470106
MY:__ZNK10GameObject20QueryComponentByTypeEPKN5Unity4TypeE
VMf:_Decimal_System_IConvertible_ToInt32_m1488426794_AdjustorThunk
Gwe:_MonoCustomAttrs_IsUserCattrProvider_m2878058089
Xri:__ZL71InputField_t3762917431_CustomAttributesCacheGenerator_m_HideMobileInputP21CustomAttributesCache
w3a:__ZN11TextureData5ResetEv
$jc:__Z53Register_UnityEngine_GameObject_get_activeInHierarchyv
emf:_ToBase64Transform_InternalTransformFinalBlock_m360524956
cVe:_ActivationContext_Dispose_m2038725770
Y_:__ZL30InitializeCoreScriptingClassesv
Jg:_glBlitFramebuffer
Utb:__Z35Transfer_Blittable_SingleValueFieldI14SafeBinaryReadhEvRT_R17GeneralMonoObjectRK23StaticTransferFieldInfo
tdc:__ZN12CachedWriter15CompleteWritingEv
B2a:__ZNK12CubemapArray22GetTypeVirtualInternalEv
Vn:FUNCTION_TABLE_vif
Wn:FUNCTION_TABLE_vid
Yn:FUNCTION_TABLE_vii
Zkb:__Z40scripting_liveness_calculation_from_root18ScriptingObjectPtrPv
y$a:__ZN7Texture23VirtualRedirectTransferER24GenerateTypeTreeTransfer
ROc:_UNITY_FT_Set_Transform
oCj:__ZN6il2cpp8metadata15GenericMetadata20RegisterGenericClassEP18Il2CppGenericClass
w1j:_glDeleteFramebuffers__wrapper
z$g:__Z220RuntimeInvoker_Boolean_t97287965_RuntimeObject_Int32U26_t1369213839_Int32_t2950945753_Int32_t2950945753_Int32_t2950945753_RuntimeObject_SByte_t1669577662_Int32_t2950945753_ContractionU26_t961830454_ContextU26_t3937453398PFvvEPK10MethodInfoPvPS4_
uDc:_cff_blend_build_vector
mLe:_WebHeaderCollection_ToString_m1263025316
X9b:__ZZN12MeshRenderer15InitializeClassEvEN29FunctorImpl_134kDidDeleteMesh4CallEPviR11MessageData
kpd:_GetterAdapter_Invoke_m3767885970
mPg:_List_1__ctor_m747758800_gshared
qsf:_String_CreateString_m2818852475
H5a:__ZN28EnlightenRendererInformation8TransferI14SafeBinaryReadEEvRT_
A3i:_CanvasRenderer_get_hasMoved_m2236392341
_ig:_MessageEvent__ctor_m1231650089
Jha:__ZNK15Lz4Decompressor16DecompressMemoryEPKvPjPvS2_
NTa:__Z11IsCoroutine18ScriptingMethodPtrRK22CommonScriptingClasses
y4b:__ZN4core8hash_mapINS_12basic_stringIcNS_20StringStorageDefaultIcEEEE10vector_setI4PPtrI11SpriteAtlasENSt3__24lessIS8_EE13stl_allocatorIS8_L18MemLabelIdentifier81ELi16EEENS_4hashIS4_EENS9_8equal_toIS4_EEEixERKS4_
zh:_glGetAttribLocation
y1a:__Z35UnityPropertySheet_MakeSortedColorsRKNSt3__23mapIN9ShaderLab16FastPropertyNameE10ColorRGBAfNS_4lessIS2_EENS_9allocatorINS_4pairIKS2_S3_EEEEEER10vector_mapIS2_S3_S5_NS6_INS7_IS2_S3_EEEEE
HHc:_UNITY_tt_face_load_os2
mtb:__Z29Transfer_Blittable_ArrayFieldI14SafeBinaryRead8Vector4fEvRT_R9ArrayInfoRK23StaticTransferFieldInfo
oCe:_Default_check_arguments_m3882727959
_Uf:_UTF8Encoding_GetMaxCharCount_m3762459613
vDe:_ModuleBuilder_RegisterToken_m4166846047
dNb:__ZZ23InitPlayerLoopCallbacksvEN51PostLateUpdateUpdateCustomRenderTexturesRegistrator7ForwardEv
gQd:_RawImage_OnPopulateMesh_m1115858855
tej:__ZN6il2cpp2vm13MetadataCache25GetStringLiteralFromIndexEi
DVe:_Hashtable_ToPrime_m33531354
kv:__ZN7mecanim9animation12EvaluateClipEPKNS0_4ClipEPKNS0_9ClipInputEPNS0_10ClipMemoryEPNS0_10ClipOutputE
GCh:_Collection_1_IsSynchronized_m1117613618_gshared
Bde:_KeyCollection_System_Collections_Generic_ICollectionU3CTKeyU3E_Remove_m2555909644_gshared
g_f:_TypeInitializationException__ctor_m3546444694
jgc:__ZNK9Transform16GetLocalRotationEv
dU:__ZN11UnityEngine15CloudWebService23WebRequestUploadHandler17ConsumeUploadDataEj
Ahf:_MemoryStream_set_Position_m3169779190
bZb:__ZN13RenderManager29SetCurrentCameraAndStackStateEP6CameraP25CameraStackRenderingState
f7c:_ExecuteEvents_get_scrollHandler_m2659345019
JSa:__ZNSt3__26__treeINS_12__value_typeIjN4core12basic_stringIcNS2_20StringStorageDefaultIcEEEEEENS_19__map_value_compareIjS7_NS_4lessIjEELb1EEE13stl_allocatorIS7_L18MemLabelIdentifier7ELi16EEE7destroyEPNS_11__tree_nodeIS7_PvEE
Vuj:__ZN15dense_hashtableINSt3__24pairIK10KeyWrapperINS1_IP11Il2CppClassjEEES4_EES6_N6il2cpp8metadata14ArrayClassHashEN14dense_hash_mapIS6_S4_SB_NS6_14EqualsComparerINSA_17ArrayClassCompareEEENS0_9allocatorIS8_EEE9SelectKeyESF_SH_E12resize_deltaEjj
Yh:_JS_WebRequest_Release
lme:_RSAManaged_get_PublicOnly_m405847294
NS:__ZN11UnityEngine15CloudWebService14DataErrorEventD0Ev
Kyj:__ZN6il2cpp6icalls8mscorlib6System4Type20internal_from_handleEi
Dud:_Context__ctor_m254302079
kCj:__ZN6il2cpp8metadata15GenericMetadata7InflateEPK19Il2CppGenericMethodPK20Il2CppGenericContext
Y4a:__ZN19ShaderPropertySheet16SetArrayPropertyEN9ShaderLab16FastPropertyNameENS_12PropertyTypeEPKvj
WRd:_Selectable_FindSelectable_m2348614027
Nfd:_DropdownItem_OnPointerEnter_m1492957598
sSc:__ZN2UI11CanvasGroup23VirtualRedirectTransferER19StreamedBinaryWriteILb0EE
Mqc:__ZN8GUIState8EndOnGUIEv
q_c:__ZN11UnityEngine15PlatformWrapper16GetApplicationIdEv
aKc:_UNITY_TT_Get_VMetrics
A1e:_SimpleEnumerator__cctor_m2844299657
Pve:_LocalDataStoreSlot__ctor_m4104083971
WJh:_ReadOnlyCollection_1_System_Collections_Generic_IListU3CTU3E_RemoveAt_m3849058645_gshared
v0i:_AudioSource_ReadExtensionName_m725112169
hCi:_X509CertificateEnumerator_System_Collections_IEnumerator_Reset_m2039524926
l6g:__Z128RuntimeInvoker_Void_t1185182177_RuntimeObject_BooleanU26_t4125257963_SByte_t1669577662_Int32U26_t1369213839_Int32U26_t1369213839PFvvEPK10MethodInfoPvPS4_
mxa:__ZN7Texture21GetMasterTextureLimitEv
V_b:__Z12CanAddScriptR10GameObject17ScriptingClassPtrPS1_S2_
hqj:__ZN6il2cpp2vm10Reflection12HasAttributeEP12Il2CppObjectP11Il2CppClass
_Mh:_Comparison_1_BeginInvoke_m3263247262_gshared
aaa:__ZN9ShaderLabL25StaticInitializeShaderLabEPv
U:Math_max
dsj:_il2cpp_class_get_methods
hog:_HitInfo_SendMessage_m1343099429_AdjustorThunk
_vb:__Z18Transfer_BlittableI24GenerateTypeTreeTransferLb0EN4math12int2_storageEEvRK29SerializationCommandArgumentsR31RuntimeSerializationCommandInfo
FOf:_StackTrace_get_trace_m1194606084
Spf:_Single_CompareTo_m2785801815_AdjustorThunk
nFj:__ZN6il2cpp2os6Thread16GetCurrentThreadEv
Mnh:_Array_InternalArray__Insert_TisUILineInfo_t4195266810_m3191124053_gshared
zbc:__ZN10GameObject13ComponentPair15SetComponentPtrEPN5Unity9ComponentE
Q$j:_glBlitFramebuffer__wrapper
h5b:__Z13RegisterClassI10MeshFilterEvv
PSa:__ZN10TagManager8TransferI19StreamedBinaryWriteILb0EEEEvRT_
skb:__ZN11PreloadData23VirtualRedirectTransferER18StreamedBinaryReadILb0EE
qkg:_PropertyNameUtils_PropertyNameFromString_Injected_m1259736140
O_e:_Char_System_IConvertible_ToDateTime_m3564102661
A7a:__ZN6Sprite17MainThreadCleanupEv
Y$j:_glBlendFuncSeparate__wrapper
pL:__ZN10AudioMixer14UpdateMuteSoloEv
$wj:__ZN6il2cpp2vm9Exception27RaiseNullReferenceExceptionEv
aSa:__ZN9Transform35SetLocalPositionWithoutNotificationERKN4math7_float3Ey
U5g:__Z69RuntimeInvoker_UInt64_t4134040092_Int32_t2950945753_SByte_t1669577662PFvvEPK10MethodInfoPvPS4_
Zi:_JS_Eval_ClearTimeout
QQd:_Raycast2DCallback_Invoke_m1500574149
ZBa:__ZN7ApiGLES16SetPatchVerticesEi
tIi:_CharacterClass_Compile_m3296067317
gHj:__ZN6il2cpp2gc16GarbageCollector16InvokeFinalizersEv
b_e:_Byte_System_IConvertible_ToInt64_m285584218_AdjustorThunk
Ilg:_Rect_get_size_m477575021_AdjustorThunk
J6i:__ZN6il2cpp2vm5Class20FromGenericParameterEPK22Il2CppGenericParameter
vV:__ZN19CloudServiceHandler11FlushEventsEv
qfa:__ZN15GlobalCallbacksC2Ev
bAf:_Array_InternalArray__ICollection_Add_TisLabelData_t360167391_m1648183135_gshared
g9d:_Comparer_1_System_Collections_IComparer_Compare_m2016223770_gshared
j5g:__Z74RuntimeInvoker_DateTime_t3738529785_DateTime_t3738529785_Int32_t2950945753PFvvEPK10MethodInfoPvPS4_
fQc:_UNITY_FT_New_Memory_Face
lzh:_Collection_1_System_Collections_IList_IndexOf_m3271188411_gshared
iOc:__ZN20TextRenderingPrivate21TextMeshGeneratorImpl5FlushEv
lhf:_MonoIO_GetFileStat_m678141354
YFc:_UNITY_FT_Load_Sfnt_Table
red:__Z15CastclassSealedP12Il2CppObjectP11Il2CppClass
rNf:_Decimal_IsZero_m4250358244_AdjustorThunk
Ave:_UnmanagedMemoryStream_get_CanRead_m3770815400
KZb:__ZN16ReflectionProbes40UpdateRealtimeReflectionProbesTimeslicedEv
FEf:_Decimal_u64_m3374804932
z_f:_UInt16_System_IConvertible_ToInt32_m1950778303_AdjustorThunk
Ghb:__ZNK30RuntimeInitializeOnLoadManager22GetTypeVirtualInternalEv
Dbj:__ZN15dense_hashtableINSt3__24pairIK10KeyWrapperIN6il2cpp5utils13dynamic_arrayIPK10Il2CppTypeLj4EEEEPFvvEEESA_NS3_8metadata19Il2CppSignatureHashEN14dense_hash_mapISA_SD_SG_NSA_14EqualsComparerINSF_22Il2CppSignatureCompareEEENS0_9allocatorISE_EEE9SelectKeyESK_SM_E12resize_deltaEjj
d9b:__ZN16ReflectionProbes15InitializeClassEv
OHh:_ReadOnlyCollection_1_System_Collections_ICollection_CopyTo_m2527663815_gshared
Nrh:_Dictionary_2_Do_ICollectionCopyTo_TisKeyValuePair_2_t3699644050_m4159638770_gshared
jAj:__ZN6il2cpp2vm5Image9GetCorlibEv
Drg:_Vector3_get_left_m2428419009
rA:__ZN8Animator13BatchedFKPassERK13dynamic_arrayIP14PlayableOutputLj4EE
EMj:_GC_reclaim_uninit
U6c:_ExecuteEvents_Execute_m113814934
Nba:__ZN13RuntimeStaticINSt3__23mapIN4core12basic_stringIcNS2_20StringStorageDefaultIcEEEES6_NS0_4lessIS6_EE13stl_allocatorINS0_4pairIKS6_S6_EEL18MemLabelIdentifier13ELi16EEEELb0EE13StaticDestroyEPv
iph:_Array_qsort_TisColor32_t2600501292_m1362211604_gshared
n9d:_Enumerator_System_Collections_IEnumerator_get_Current_m2979767597_AdjustorThunk
pMi:__ZN30GenericInterfaceActionInvoker1I17Color_t2555686324E6InvokeEPK10MethodInfoP12Il2CppObjectS0_
LId:_MD5CryptoServiceProvider_ProcessFinalBlock_m2241588515
eTd:_ScrollRect_GetBounds_m449872505
Yj:_glIsVertexArray
pUe:_SmallXmlParser_Read_m3485223434
Ebf:_Int16_Parse_m2276856944
ea:invoke_fff
GUj:_mbsinit
D_j:b14
DRc:__ZN2UI6Canvas17MainThreadCleanupEv
Cza:__ZN6prcoreL12RemapGenericI17TexFormatARGB155517TexFormatRGBA8888EEvPKNS_9InnerInfoE
P8i:__ZN13Il2CppHashMapIPK19Il2CppGenericMethodPK26Il2CppGenericMethodIndicesN6il2cpp8metadata23Il2CppGenericMethodHashENS7_26Il2CppGenericMethodCompareENSt3__29allocatorINSA_4pairIK10KeyWrapperIS2_ES5_EEEEEC2EjRKS8_RKS9_
eld:_TypeBuilder_HasElementTypeImpl_m1871001960
Xof:_SecurityFrame__ctor_m2140076703_AdjustorThunk
Tzg:_DefaultComparer_Equals_m2458578172_gshared
CDa:__ZN7ApiGLES13CreateProgramEv
mae:_Enumerator_VerifyState_m4003066746_gshared
Bxa:__ZN4crnd12crn_unpackerD2Ev
mk:_emscripten_glTexImage2D
a8d:_Comparer_1_System_Collections_IComparer_Compare_m2537217645_gshared
M_:__ZN18ScriptingArguments9AddStringEPKc
YMj:_setup_header
G$e:_Char_ToString_m3588025615
B6f:_CryptoConvert_ToCapiKeyBlob_m3371450375
Kya:__ZL23stbir__resize_arbitraryPvPKviiiS_iiiffffPfiij14stbir_datatype12stbir_filterS4_10stbir_edgeS5_16stbir_colorspace
swb:__Z18Transfer_BlittableI24GenerateTypeTreeTransferLb1E8Vector4fEvRK29SerializationCommandArgumentsR31RuntimeSerializationCommandInfo
H_j:b18
xk:_pthread_detach
hfj:__ZN6il2cpp2vm19SocketPollingThread7RunLoopEv
tgd:_FontUpdateTracker_UntrackText_m1981515690
$vi:__ZL64AnalyticsEventTracker_t2285229262_CustomAttributesCacheGeneratorP21CustomAttributesCache
bcc:__ZN15DirectorManager20ScheduleGraphDestroyERK14HPlayableGraph
kFb:__ZNSt3__213__stable_sortIRN10vector_mapI17ScriptingClassPtrPKN5Unity4TypeENS_4lessIS2_EENS_9allocatorINS_4pairIS2_S6_EEEEE13value_compareENS_11__wrap_iterIPSB_EEEEvT0_SJ_T_NS_15iterator_traitsISJ_E15difference_typeEPNSM_10value_typeEi
i3f:_SimpleCollator_FillSurrogateSortKeyRaw_m725998232
BRg:_List_1_AddEnumerable_m1284696147_gshared
zKe:_IPAddress_Equals_m1823478787
nvd:_Context_CreateNewContext_m3053563976
ila:__ZN9ShaderLab25SerializedTextureProperty8TransferI24GenerateTypeTreeTransferEEvRT_
$nj:__ZN6il2cpp2gc19AppendOnlyGCHashMapINSt3__24pairIPK14Il2CppAssemblyP11Il2CppClassEEP24Il2CppReflectionAssembly17ReflectionMapHashIS9_ENS2_8equal_toIS9_EEEC2Ev
dzb:__Z18Transfer_BlittableI19StreamedBinaryWriteILb0EELb0EdEvRK29SerializationCommandArgumentsR31RuntimeSerializationCommandInfo
lla:__ZN11NamedObject8TransferI18StreamedBinaryReadILb0EEEEvRT_
neg:_InvokableCall_remove_Delegate_m1376110510
_Pe:_Capture_get_Value_m3919646039
$3e:_Hashtable_Clear_m3112193608
IUf:_UTF8Encoding_InternalGetByteCount_m771565606
Rxc:__Z18Transfer_BlittableI8JSONReadLb1EyEvRK29SerializationCommandArgumentsR31RuntimeSerializationCommandInfo
EMg:_List_1_System_Collections_IList_Remove_m3654336679_gshared
Xci:__ZL51GUILayer_t2783472903_CustomAttributesCacheGeneratorP21CustomAttributesCache
Uk:_emscripten_glMatrixMode
sPd:_MaskableGraphic_UnityEngine_UI_IClippable_get_gameObject_m1739855597
Ys:__ZN8Animator23VirtualRedirectTransferER18StreamedBinaryReadILb0EE
raf:_Guid__ctor_m3562600567_AdjustorThunk
lKf:_DateTime_System_IConvertible_ToInt16_m3239820399
gS:__ZN11UnityEngine15CloudWebService14DataDispatcher16PrepareDataBlockERNS0_16SessionContainerE
jIa:__ZN18GfxFramebufferGLES5ClearE13GfxClearFlagsRK10ColorRGBAffib
Czf:_MonoProperty_StaticGetterAdapterFrame_TisRuntimeObject_m4131530968_gshared
ODb:__ZL26Transfer_SimpleNativeClassI18StreamedBinaryReadILb0EE10RectOffsetLb0EEvRK29SerializationCommandArgumentsR31RuntimeSerializationCommandInfo
t1d:_InternalEnumerator_1_get_Current_m2316281569_gshared
SQb:__ZL12DepthPassJobPN21GfxDeviceAsyncCommand10ArgScratchEPKNS_3ArgE
wja:__ZNSt3__26vectorIN9ShaderLab20SerializedSubProgram16TextureParameterENS_9allocatorIS3_EEE6assignINS_11__wrap_iterIPS3_EEEENS_9enable_ifIXaasr21__is_forward_iteratorIT_EE5valuesr16is_constructibleIS3_NS_15iterator_traitsISC_E9referenceEEE5valueEvE4typeESC_SC_
ktc:__ZN5Unity9rapidjson6WriterI16TempBufferWriterNS0_4UTF8IcEES4_13JSONAllocatorE11WriteDoubleEd
oWf:_Thread_SetCachedCurrentUICulture_m1729523031
EVc:__Z55Register_UnityEngine_CanvasGroup_get_ignoreParentGroupsv
I5b:__Z13RegisterClassI19LowerResBlitTextureEvv
Roe:_ClientContext_set_ClientHelloProtocol_m4189379912
Vm:FUNCTION_TABLE_iiiiiiiiiiii
dRg:_List_1_get_Item_m1686506901_gshared
$Ua:__ZN16GraphicsSettingsD0Ev
n:cttz_i8
iDc:_UNITY_FT_GlyphLoader_Add
R0i:_AudioListener_INTERNAL_CALL_ReadExtensionPropertyName_m330480156
NIf:_Convert_ToUInt16_m867476252
Rl:_emscripten_glViewport
kJj:__ZN6il2cpp6icalls8mscorlib6System15MonoCustomAttrs17IsDefinedInternalEP12Il2CppObjectP20Il2CppReflectionType
I4i:_SkeletonBone_t4134054672_marshal_pinvoke_back
GEc:_cff_parse_font_bbox
r2f:_MSCompatUnicodeTable_Category_m1834196420
Xfb:__ZN14PlayerSettings23VirtualRedirectTransferER18StreamedBinaryReadILb0EE
sPf:_Double_CompareTo_m3151899116
fSj:__ZN6il2cpp2os5Event5ResetEv
fWb:__Z26CombineDepthNormalsTextureRK17RenderLoopContextR13dynamic_arrayI16RenderObjectDataLj4EE
_Hc:_tt_name_ascii_from_other
jWi:_ToggleGroup__ctor_m3308114662
XBj:__ZN6il2cpp8metadata15GenericMetadata17InflateParametersEPK13ParameterInfohPK20Il2CppGenericContextb
rZ:__ZN18AwakeFromLoadQueue28InvokePersistentManagerAwakeEPNS_4ItemEj17AwakeFromLoadMode
aTa:__ZN6Camera13AwakeFromLoadE17AwakeFromLoadMode
Jqh:_Array_Sort_TisUILineInfo_t4195266810_m3737783007_gshared
Ljg:_PlayableAsset_Internal_CreatePlayable_m2550417712
ew:__ZNK17AnimationPlayable27GetNextCompatibleDescendantEi
Pzi:_TlsStream_Write_m188217214
PIb:__Z25SetNeedToPerformRenderingb
p0f:_UInt64_System_IConvertible_ToInt32_m949522652_AdjustorThunk
nRa:__ZN10GameObjectD2Ev
fRb:__ZN14qsort_internal30FindAndMovePivotToLastPositionIP15RODataDepthPassi17ROSorterDepthPassEEvT_S4_T0_T1_
TYb:__ZN12CullingGroup10SendEventsEPK17CullingGroupEventj
xXc:__ZN14UnityAnalytics19ConfigChangedStaticEPS_RKN4core12basic_stringIcNS1_20StringStorageDefaultIcEEEER8JSONRead
u8c:_PointerInputModule__ctor_m3728889932
WX:__ZThn32_NK8Renderer8GetLayerEv
yHg:_Enumerator_System_Collections_IEnumerator_Reset_m2915500989_gshared
LEc:_cff_parse_vsindex
Pbf:_Int32_ValidDigit_m1059003769
h4j:_emscripten_glTexParameterfv__wrapper
gNd:_LayoutGroup_get_rectTransform_m442863741
Bqb:__Z18Transfer_BlittableI14SafeBinaryReadLb1E9BoundsIntEvRK29SerializationCommandArgumentsR31RuntimeSerializationCommandInfo
i1j:b63
Wsj:_il2cpp_method_get_param_count
Pfc:__ZN10systeminfo19ISOToSystemLanguageERN4core12basic_stringIcNS0_20StringStorageDefaultIcEEEE
Tmj:__ZNK15dense_hashtableINSt3__24pairIK10KeyWrapperINS1_IPK12PropertyInfoP11Il2CppClassEEEjEES9_17ReflectionMapHashIS8_EN14dense_hash_mapIS9_jSD_NS9_14EqualsComparerINS0_8equal_toIS8_EEEENS0_9allocatorISB_EEE9SelectKeyESI_SK_E3endEv
c1f:_UnauthorizedAccessException__ctor_m40101894
bMc:_ps_dimension_done
rRc:__Z46Register_UnityEngine_TextGenerator_Dispose_cppv
wPf:_Double_Parse_m4153729520
xOi:_IndexedSet_1_AddUnique_m861843892_gshared
m5a:__ZN16LightmapSettings8TransferI14SafeBinaryReadEEvRT_
Ioa:__ZN17BufferManagerGLES13ReleaseBufferEP14DataBufferGLES
Qne:_CipherSuite_Write_m1172814058
Kue:_SynchronizedWriter_Write_m301917713
U8:__ZN9profiling6MarkerC2EPKc13ProfilerGroupNS0_5FlagsE
Oxc:__Z18Transfer_BlittableI8JSONReadLb1EjEvRK29SerializationCommandArgumentsR31RuntimeSerializationCommandInfo
zDe:_ConstructorBuilder_get_IsCompilerContext_m3364441562
mdg:_Debug_LogWarning_m3752629331
gMh:_ReadOnlyCollection_1_System_Collections_Generic_IListU3CTU3E_RemoveAt_m4037795630_gshared
u3g:__Z117RuntimeInvoker_Void_t1185182177_RuntimeObject_Int32_t2950945753_Int32_t2950945753_Int32_t2950945753_Int32_t2950945753PFvvEPK10MethodInfoPvPS4_
gbd:_U3COnFinishSubmitU3Ec__Iterator0_Reset_m3632769946
kp:stackSave
FU:__ZN5Unity9rapidjson15GenericDocumentINS0_4UTF8IcEE13JSONAllocatorNS0_12CrtAllocatorEE6StringEPKcjb
jdd:_ColorTween_get_targetColor_m1724075482_AdjustorThunk
wMc:_ps_dimension_end
Ioc:__Z41Register_UnityEngine_Mesh_Internal_Createv
adb:__ZN14SpriteRenderer23VirtualRedirectTransferER24GenerateTypeTreeTransfer
VBj:__ZNK15dense_hashtableI10KeyWrapperIP18Il2CppGenericClassES3_N6il2cpp8metadata22Il2CppGenericClassHashEN14dense_hash_setIS3_S6_NS3_14EqualsComparerINS5_25Il2CppGenericClassCompareEEENSt3__29allocatorIS3_EEE8IdentityESA_SD_E12test_deletedERK30dense_hashtable_const_iteratorIS3_S3_S6_SF_SA_SD_E
$Df:_Console_Open_m3077673205
q_b:__ZN6Camera9SetAspectEf
Cyf:_Array_InternalArray__IndexOf_TisDateTime_t3738529785_m2463359116_gshared
va:invoke_viiffiii
hIj:__ZN15dense_hashtableINSt3__24pairIK10KeyWrapperIPK19Il2CppGenericMethodEP10MethodInfoEES6_N6il2cpp8metadata23Il2CppGenericMethodHashEN14dense_hash_mapIS6_S9_SD_NS6_14EqualsComparerINSC_26Il2CppGenericMethodCompareEEENS0_9allocatorISA_EEE9SelectKeyESH_SJ_E12resize_deltaEjj
y5j:_emscripten_glBindVertexArray__wrapper
NEj:__ZN6il2cpp6icalls8mscorlib6System4Enum19get_underlying_typeEP20Il2CppReflectionType
bJi:_Parser_IsECMAScript_m674158805
hSa:__ZN9Transform37InitializeTransformHierarchyRecursiveER18TransformHierarchyRii
ZHa:__ZN26SinglePassStereoSupportExt23SetupStereoMatrixParamsE21MonoOrStereoscopicEye24BuiltinShaderMatrixParamRK10Matrix4x4f
_Ke:_ServicePointManager_get_CertificatePolicy_m1966679142
h3c:__ZNK25UnityWebRequestJavaScript16GetUploadedBytesEv
jQ:__Z46AudioListener_CUSTOM_GetNumExtensionPropertiesP12Il2CppObject
Agj:__ZN6il2cpp6icalls8mscorlib6SystemL16CheckMemberMatchI9FieldInfoNS_5utils10functional6FilterINSt3__212basic_stringIcNS8_11char_traitsIcEENS8_9allocatorIcEEEENS5_13VmStringUtils23CaseInsensitiveComparerEEEEEbPKT_PK11Il2CppClassSN_iRKT0_
Pyf:_Array_InternalArray__IndexOf_TisMonoResource_t4103430009_m1351751258_gshared
Hnc:__Z57Register_UnityEngine_Transform_INTERNAL_set_localPositionv
Msa:__ZN13GfxDeviceGLES26SetRandomWriteTargetBufferEi15ComputeBufferID
XMj:_GC_split_block
Pph:_Array_Resize_TisUICharInfo_t75501106_m3903846016_gshared
TMb:__ZZ23InitPlayerLoopCallbacksvEN49EarlyUpdateResetFrameStatsAfterPresentRegistrator7ForwardEv
bVj:_poll
VIh:_ReadOnlyCollection_1_System_Collections_IEnumerable_GetEnumerator_m1671097018_gshared
P0f:_UInt64_ToString_m1529093114_AdjustorThunk
Kti:__ZL85Selectable_t3250028441_CustomAttributesCacheGenerator_Selectable_IsPressed_m907486548P21CustomAttributesCache
Csd:_TypeLibImportClassAttribute__ctor_m2302178978
S3f:_Escape_t3294788190_marshal_pinvoke
CLd:_InputField_OnUpdateSelected_m1118869681
nAj:__ZN6il2cpp2vmL36AddNestedTypesToNametoClassHashTableEP40Il2CppNameToTypeDefinitionIndexHashTablePKcRKNSt3__212basic_stringIcNS5_11char_traitsIcEENS5_9allocatorIcEEEEP11Il2CppClass
Lxa:__ZN4crnd12crn_unpacker11unpack_dxt1EPPhjjj
yfc:__ZNK11ICallString6ToUTF8Ev
P6i:__ZN15dense_hashtableINSt3__24pairIK10KeyWrapperIPK22Il2CppGenericParameterEP11Il2CppClassEES6_N6il2cpp5utils11PointerHashIS4_EEN14dense_hash_mapIS6_S9_SE_NS6_14EqualsComparerINS0_8equal_toIS5_EEEENS0_9allocatorISA_EEE9SelectKeyESJ_SL_E15insert_noresizeERKSA_
Ufe:_Transform_1_Invoke_m2468053724_gshared
gRb:__ZNSt3__211__sift_downIR17ROSorterDepthPassP15RODataDepthPassEEvT0_S5_T_NS_15iterator_traitsIS5_E15difference_typeES5_
X0a:__ZN18UnityPropertySheet11UnityTexEnvC2Ev
_Ve:_ArgumentException__ctor_m3200406061
MA:__ZN8Animator17ApplyOnAnimatorIKEiRNS_11AnimatorJobE
C1:__ZN12FileAccessor4ReadEyyPvPy
nad:_VertexHelperExtension_AddVert_m3988754079
TZb:__ZN13RenderTexture9SetHeightEi
VEa:__ZNK6Camera20IsCurrentlyRenderingEv
vu:__ZN7mecanim9animation17ClearMotionOutputEPNS0_18AnimationNodeStateE
Coe:_CipherSuiteCollection_get_IsFixedSize_m3127823890
C6d:_InternalEnumerator_1_System_Collections_IEnumerator_get_Current_m3537550566_gshared
lRd:_Scrollbar_UpdateVisuals_m2492252165
Pxj:__ZN6il2cpp6icalls8mscorlib6System2IO6MonoIO17GetFileAttributesEP12Il2CppStringPi
aId:_HMACMD5__ctor_m3008609295
rFf:_DateTime__ParseAmPm_m3478436123
yLf:_DateTime_ToString_m2992030064_AdjustorThunk
TIc:_tt_cmap8_char_index
F_:__Z24scripting_class_get_name17ScriptingClassPtr
KLe:_Oid__ctor_m911618594
JWi:_VerticalLayoutGroup_CalculateLayoutInputHorizontal_m1404590745
vca:__ZN13RuntimeStaticI15GUIEventManagerLb0EE13StaticDestroyEPv
txe:_ShortComparer_Compare_m1881262465
HE:__ZZN8Animator15InitializeClassEvEN44FunctorImpl_427kDidChangeMotionRuntimeEvents4CallEPviR11MessageData
je:_emscripten_set_keydown_callback
pRf:_EncoderReplacementFallback__ctor_m1483565116
lRe:_Interpreter_IsWordChar_m2858055765
Z3e:_Hashtable_CopyTo_m2905447224
K1:__ZN12FileAccessorC2Ev
GGc:_otv_u_O_O_u_O_O
By:__ZThn152_NK26AnimatorControllerPlayable25GetStateMachineBehavioursEv
nOi:_EventFunction_1_Invoke_m2429482587_gshared
TLe:_AsnEncodedData_SubjectAltName_m4049949414
cij:__ZN6il2cpp2vm7Runtime12GetConfigDirEv
$Gg:_Enumerator_MoveNext_m1177880931_AdjustorThunk
NUd:_Slider_UpdateVisuals_m3662961057
l2i:_TextGenerator_Populate_m194003733
wEe:_DerivedType_get_FullName_m1025358827
$ri:__ZL70InputField_t3762917431_CustomAttributesCacheGenerator_m_OnValueChangedP21CustomAttributesCache
OJb:__ZN13RenderManager22OnWindowSizeHasChangedEv
dHb:__Z39WriteQueueForTransferSignatureIntoCacheRK31TransferFunctionScriptingTraitsRK24TransferRequestSignature17ScriptingClassPtrR23CachedSerializationDataRb
ljb:__ZN13RenderManager18UpdateAllRenderersEv
BSf:_Encoding_get_UTF8UnmarkedUnsafe_m320312322
xWf:_Thread_Thread_free_internal_m333849022
oZd:_InternalEnumerator_1_System_Collections_IEnumerator_get_Current_m3575233890_gshared
pEi:_CostDelegate_BeginInvoke_m2828452701
rZc:__ZN22BaseUnityConnectClient30OnEnteringStatePausedOrStoppedEv
iBh:_Collection_1_ConvertItem_m1556170494_gshared
Ju:__ZN7mecanim5human12HumanPoseAddERNS0_9HumanPoseERKS1_S4_
HFf:_DateTime_ToUniversalTime_m1945318289
z0e:_ArrayList_ToArray_m3827492363
dVd:_Slider_get_stepSize_m1423227661
K0f:_UInt64_Parse_m819899889
Klf:_SymmetricAlgorithm_set_IV_m3196220308
rGe:_GenericTypeParameterBuilder_GetHashCode_m852224381
dJf:_Convert_ToUInt32_m1453583008
O6e:_CompareInfo_Compare_m894311506
SRa:__Z24MergeTransformComponentsR9TransformS0_b
Waj:__ZNK15dense_hashtableI10KeyWrapperIPK19Il2CppGenericMethodES4_N6il2cpp8metadata23Il2CppGenericMethodHashEN14dense_hash_setIS4_S7_NS4_14EqualsComparerINS6_26Il2CppGenericMethodCompareEEENSt3__29allocatorIS4_EEE8IdentityESB_SE_E10test_emptyEj
d5c:_EventSystem_UpdateModules_m3643806022
n4i:_AnimationOffsetPlayable__cctor_m1029460816
mJj:__ZN6il2cpp2vm13ComObjectBase19GetRuntimeClassNameEPP15Il2CppHString__
Wj:_emscripten_glVertexAttribPointer
mWa:__ZNK20IntermediateRenderer12GetSceneMaskEv
ZJb:__ZN14PreloadManager26UpdatePreloadingSingleStepENS_21UpdatePreloadingFlagsEi
TTd:_ScrollRect_SetLayoutHorizontal_m3078869633
H2f:_SimpleCollator__ctor_m1587210019
Slc:__Z57Register_UnityEngine_RectTransform_INTERNAL_set_anchorMinv
WIf:_Convert_ToUInt16_m1480956416
jza:__ZN6prcoreL25inner_stretch_i8_bilinearEPKNS_9InnerInfoE
Gkb:__ZL30RegisterFilteredObjectCallbackPP12Il2CppObjectiPv
ELh:_ReadOnlyCollection_1_System_Collections_Generic_IListU3CTU3E_RemoveAt_m3317217538_gshared
$ji:__ZL54AudioSource_t3935305588_CustomAttributesCacheGeneratorP21CustomAttributesCache
oKb:__Z19InitializeGfxDevicev
CS:__ZN11UnityEngine15CloudWebService16SessionContainer24GetSessionHeaderJsonDataERKN4core12basic_stringIcNS2_20StringStorageDefaultIcEEEERNS2_13StringBuilderE
$De:_DerivedType_GetEvent_m4157575360
hca:__ZN13RuntimeStaticI21AssetReferenceStorageLb0EE13StaticDestroyEPv
kFd:_SByte_System_IConvertible_ToType_m4075253447_AdjustorThunk
boh:_Array_InternalArray__set_Item_TisKeyValuePair_2_t2530217319_m258011711_gshared
Pdh:__Z72RuntimeInvoker_Bounds_t2266837910_RuntimeObject_Matrix4x4U26_t3606180965PFvvEPK10MethodInfoPvPS4_
YEj:__ZN6il2cpp6icalls8mscorlib6System9AppDomain22InternalGetProcessGuidEP12Il2CppString
RCc:_cf2_builder_moveTo
iZg:__Z48RuntimeInvoker_RuntimeObject_Decimal_t2948259380PFvvEPK10MethodInfoPvPS4_
mOa:__ZNK17FileSystemHandler10IsReadOnlyERK13FileEntryData
Pwb:__Z18Transfer_BlittableI24GenerateTypeTreeTransferLb1EjEvRK29SerializationCommandArgumentsR31RuntimeSerializationCommandInfo
N6i:__ZN6il2cpp2os12FastAutoLockD2Ev
m7:__ZN11ColorRGBA328TransferI14SafeBinaryReadEEvRT_
_Ec:_cff_vstore_done
L7g:__Z68RuntimeInvoker_Void_t1185182177_UInt16_t2177724958_SByte_t1669577662PFvvEPK10MethodInfoPvPS4_
whb:__ZN15ResourceManager10Dependency8TransferI24GenerateTypeTreeTransferEEvRT_
zId:_MACTripleDES_HashFinal_m3613553534
e0f:_UInt64_System_IConvertible_ToChar_m2074245892
MUf:_UTF8Encoding_InternalGetBytes_m1965760031
Of:_emscripten_glClearDepth
Bac:__ZNK8GUILayer22GetTypeVirtualInternalEv
s6a:__ZN14SafeBinaryRead21TransferSTLStyleArrayINSt3__26vectorIN15QualitySettings14QualitySettingENS1_9allocatorIS4_EEEEEEvRT_17TransferMetaFlags
jde:_KeyCollection__ctor_m2388548663_gshared
vfb:__ZNSt3__26vectorINS_4pairIPKN5Unity4TypeE7Hash128EENS_9allocatorIS7_EEE8__appendEj
bFc:_cff_font_load
DFj:__GLOBAL__sub_I_LibraryLoader_cpp
qgc:__Z13IsPathCreatedRKN4core12basic_stringIcNS_20StringStorageDefaultIcEEEE
odg:_Debug_LogWarningFormat_m2535776735
Qya:__ZL22stbir__encode_scanlineP11stbir__infoiPvPfiii
Ord:_ExternalException__ctor_m2877839282
VBc:__ZN20QuadTreeNodeRenderer13StaticDestroyEPv
yT:__ZN11UnityEngine15CloudWebService20WebRequestRestClient5AbortEv
nHi:_Regex_Matches_m2080913806
o7b:__ZN9Transform12CleanupClassEv
pog:_Sprite_get_rect_m2575211689
vri:__ZL85Graphic_t1660335611_CustomAttributesCacheGenerator_Graphic_OnPopulateMesh_m2916877004P21CustomAttributesCache
$gg:_Mathf_Sin_m3411839043
iQc:_UNITY_FT_Set_Pixel_Sizes
TAe:_OperatingSystem_Clone_m1122165140
duh:_GameObject_AddComponent_TisRuntimeObject_m3469369570_gshared
rka:__ZNSt3__26vectorIN9ShaderLab19SerializedSubShaderENS_9allocatorIS2_EEE26__swap_out_circular_bufferERNS_14__split_bufferIS2_RS4_EE
qA:__ZN11UnityEngine9Animation33SetGenericTransformPropertyValuesERKNS0_30AnimatorGenericBindingConstantERKN7mecanim10ValueArrayEP9Transformy
hvj:__ZN6il2cpp2vmL24thread_cleanup_on_cancelEPv
$Og:_List_1_RemoveAll_m3165362277_gshared
fZf:_Type_type_is_subtype_of_m1406623598
lVf:_Thread_get_CurrentThread_m4142136012
EWa:__Z30ProcessDynamicBatchGeometryJobP25DynamicVBOGeometryJobDataj
CRb:__ZNSt3__27__sort4IRNS_6__lessI11CulledLightS2_EEPS2_EEjT0_S6_S6_S6_T_
sqj:__ZN6il2cpp2vm14TypeNameParser26ParseArrayModifierOptionalEv
h_:__Z26scripting_object_get_class18ScriptingObjectPtr
gwj:__ZN6il2cpp6icalls8mscorlib6System10Reflection8Assembly13get_code_baseEP24Il2CppReflectionAssemblyb
gib:__ZNSt3__26vectorIN4core12basic_stringIcNS1_20StringStorageDefaultIcEEEE13stl_allocatorIS5_L18MemLabelIdentifier13ELi16EEE7reserveEj
oHd:_DSASignatureDeformatter__ctor_m2889130126
j6b:__ZNK28MonoBehaviourPropertyBinding15GenerateBindingERKN4core12basic_stringIcNS0_20StringStorageDefaultIcEEEEbRN11UnityEngine9Animation14GenericBindingE
Smg:_RectTransform_INTERNAL_set_pivot_m1160676233
XTg:_List_1_set_Item_m35836043_gshared
SOe:_X509ChainElementCollection__ctor_m3424079155
wEi:_LinkStack_Push_m3081279930
xbe:_Enumerator_MoveNext_m1107569389_gshared
lHj:__ZN6il2cpp6icalls8mscorlib6System11Environment15internalGetHomeEv
Ahg:_Matrix4x4_GetHashCode_m4034747639_AdjustorThunk
Rqd:_ResourceCacheItem_t51292791_marshal_pinvoke_cleanup
AX:__ZNK5Unity9Component7GetNameEv
LNd:_U3CDelayedSetDirtyU3Ec__Iterator0_Reset_m160466733
Gcg:_Native__cctor_m1435623442
mSg:_List_1_System_Collections_IList_Remove_m1070694895_gshared
VQi:_LayoutCache__ctor_m3885940174
EB:__ZN7mecanim8skeleton26SkeletonPoseComputeGlobalQEPKNS0_8SkeletonEPKNS0_13SkeletonPoseTIN4math4trsXEEEPS7_ii
d0f:_UInt64_System_IConvertible_ToByte_m1501504925_AdjustorThunk
e2i:_TextGenerator_Invalidate_m1072346986
mre:_TlsClientHello_ProcessAsTls1_m2549285167
imh:__Z74RuntimeInvoker_Boolean_t97287965_UIVertex_t4057497605_UIVertex_t4057497605PFvvEPK10MethodInfoPvPS4_
zJh:_ReadOnlyCollection_1_System_Collections_IList_Clear_m3591436538_gshared
eB:__ZN9BlobWrite8TransferI22OffsetPtrArrayTransferIiEEEvRT_PKc17TransferMetaFlags
eRf:_EncoderExceptionFallback_Equals_m2760188920
Wif:_RIPEMD160Managed_HashCore_m2350629432
hK:__ZN4FMOD6System7releaseEv
uZe:_Boolean_CompareTo_m3665076258
Qqf:_String_Split_m3580120853
X7f:_PrivateKeyInfo__ctor_m2811023496
f1:__Z18PathToAbsolutePathRKN4core12basic_stringIcNS_20StringStorageDefaultIcEEEE
Zjd:_PropertyBuilder_GetCustomAttributes_m2917594003
QRi:_GUILayoutUtility_LayoutFromEditorWindow_m2914699782
ZXc:__ZN21UnityAnalyticsManager15ThreadedCleanupEv
sya:__ZL13BlitImageImplR14ImageReferenceiiRKS_NS_10ColorSpaceENS_8BlitModeEb
hcc:__ZN15DirectorManager17AcquireOutputNodeEv
BAa:__ZN6prcoreL17RemapGenericFloatI18TexFormatRGBAFloat17TexFormatRGBFloatEEvPKNS_9InnerInfoE
guh:_GameObject_GetComponentInChildren_TisRuntimeObject_m1310240902_gshared
thi:__ZL69PersistentCall_t3407714124_CustomAttributesCacheGenerator_m_ArgumentsP21CustomAttributesCache
oHa:__ZN16GeometryJobTasks20ScheduleGeometryJobsER9GfxDevicePFvP15GeometryJobDataEPK22GeometryJobInstructionjb
gZa:__ZN16ReflectionProbes28GetMinBakedCubemapResolutionEv
Nab:__ZN14BlendShapeData8TransferI14SafeBinaryReadEEvRT_
WIj:__GLOBAL__sub_I_String_cpp
M6i:__ZN15dense_hashtableINSt3__24pairIK10KeyWrapperIPK22Il2CppGenericParameterEP11Il2CppClassEES6_N6il2cpp5utils11PointerHashIS4_EEN14dense_hash_mapIS6_S9_SE_NS6_14EqualsComparerINS0_8equal_toIS5_EEEENS0_9allocatorISA_EEE9SelectKeyESJ_SL_E6insertERKSA_
LLd:_InputField_GenerateCaret_m1459647218
YAi:_X509CertificateEnumerator__ctor_m85694331
mua:__ZN14DataBufferGLES16RecreateWithDataEjPKv
_2:__Z29GetGlobalAllowNameConversionsv
OBf:_Array_InternalArray__Insert_TisTableRange_t3332867892_m558285859_gshared
A$b:__ZN8Material8SetColorEN9ShaderLab16FastPropertyNameERK10ColorRGBAf
zIg:_Enumerator_System_Collections_IEnumerator_Reset_m3754523291_gshared
V3j:_glUniform3uiv__wrapper
fM:__ZN11AudioSource23VirtualRedirectTransferER18StreamedBinaryReadILb0EE
Skg:_RangeInt_get_end_m4128831787
kca:__ZN21AssetReferenceStorageC2Ev
hYj:dynCall_iiifiii
eRg:_List_1_set_Item_m2082115010_gshared
TRf:_Encoding_GetBytes_m3735967069
QDa:__ZN14GfxContextGLES43AddRenderSurfaceToDeferredFBOInvalidateListEPK17RenderSurfaceGLES
Iwj:__ZN6il2cpp6icalls8mscorlib6System9Threading6Thread15Thread_internalEP12Il2CppThreadP14Il2CppDelegate
Eoa:__ZN11NamedObject23VirtualRedirectTransferER14SafeBinaryRead
ZVd:_Text_get_resizeTextMinSize_m1002355407
ZPc:__ZNSt3__26vectorIN20TextRenderingPrivate8FontImpl13CharacterInfoE13stl_allocatorIS3_L18MemLabelIdentifier1ELi16EEE6insertENS_11__wrap_iterIPKS3_EERS9_
aMa:__ZN23PreloadManagerOperation6IsDoneEv
YRd:_Selectable_get_navigation_m3508916916
BIj:__ZN6il2cpp5utils11StringUtils11Utf16ToUtf8ERKNSt3__212basic_stringIDsNS2_11char_traitsIDsEENS2_9allocatorIDsEEEE
gle:_MD4Managed_Decode_m4273685594
Pjb:__ZN21LightProbeProxyVolume18HasHardwareSupportEv
CUb:__ZN26LightProbeProxyVolumeCacheC2ER13BatchRendererR15RenderLoopStats
eza:__ZN6prcoreL31inner_stretch_argb8888_bilinearEPKNS_9InnerInfoE
PAb:__Z18Transfer_BlittableI18StreamedBinaryReadILb1EELb1E8BitFieldEvRK29SerializationCommandArgumentsR31RuntimeSerializationCommandInfo
AJc:_UNITY_FT_Outline_Decompose
edf:_Int64_System_IConvertible_ToChar_m1509243576_AdjustorThunk
iAi:_GeneralNames_get_IPAddresses_m4242915644
EGf:_Decimal_op_Implicit_m3873897383
nNj:_GC_init_size_map
cUa:__Z20scripting_object_new17ScriptingClassPtr
i8f:_KeyGeneratedEventHandler_Invoke_m2527485594
AMf:_Decimal__ctor_m1925875020_AdjustorThunk
hDd:_SerializationCallbacks__ctor_m3863304525
P:Math_exp
Sag:_Vector3_Min_m1803158933
No:FUNCTION_TABLE_iiifi
HEj:__ZN6il2cpp2os5posix13PosixAutoLockD2Ev
WSi:_SymmetricTransform_OFB_m3690147804
yCc:_cff_get_advances
zGb:__ZN13MonoBehaviour9SetScriptERK4PPtrI10MonoScriptE18ScriptingObjectPtr
wNa:__ZNK10FileSystem16LastErrorMessageEv
Qnh:_Array_InternalArray__Insert_TisVector3_t3722313464_m3862657277_gshared
$nf:_SecurityException__ctor_m1631242336
Z8i:__ZN15dense_hashtableINSt3__24pairIK10KeyWrapperIPK11Il2CppClassEPKcEES6_N6il2cpp5utils11PointerHashIS3_EEN14dense_hash_mapIS6_S9_SE_NS6_14EqualsComparerINS0_8equal_toIS5_EEEENS0_9allocatorISA_EEE9SelectKeyESJ_SL_E14squash_deletedEv
e6c:_EventSystem_Update_m1662072334
L3c:__ZN22UnityWebRequestManager10InitializeEv
QFb:__ZN13MonoBehaviour13AwakeFromLoadE17AwakeFromLoadMode
Wub:__ZL26Transfer_SimpleNativeClassI17RemapPPtrTransfer8GradientLb1EEvRK29SerializationCommandArgumentsR31RuntimeSerializationCommandInfo
I5c:_RaycasterManager_RemoveRaycasters_m3057093063
sdc:__ZN12CachedWriter9InitWriteER15CacheWriterBase
Ybc:__Z21UnsignedInt64ToStringy
BQd:_GetRaycastNonAllocCallback_BeginInvoke_m3984885848
yFi:_PatternCompiler_BeginLink_m1295557963
DSa:__ZN14SafeBinaryRead21TransferSTLStyleArrayI13dynamic_arrayI17SortingLayerEntryLj4EEEEvRT_17TransferMetaFlags
jaf:_GuidParser_ThrowFormatException_m3223388534
MIi:_Group_GetAnchorInfo_m3730312864
nri:__ZL50Graphic_t1660335611_CustomAttributesCacheGeneratorP21CustomAttributesCache
Mde:_KeyCollection_System_Collections_Generic_ICollectionU3CTKeyU3E_Add_m454648927_gshared
yYf:_TimeSpan_op_LessThanOrEqual_m300470010
_Re:_Interval_Merge_m3454211016_AdjustorThunk
fea:__ZZN15DirectorManager15InitializeClassEvEN41FixedUpdateDirectorFixedUpdateRegistrator7ForwardEv
zhf:_MemoryStream_get_Position_m3733941202
S2b:__ZL10KeyHandleriPK23EmscriptenKeyboardEventPv
h5j:_glLinkProgram__wrapper
Nmb:__ZN18ScriptingArguments8AddInt64Ex
Oza:__ZN6prcoreL12RemapGenericI17TexFormatARGB888815TexFormatBGR888EEvPKNS_9InnerInfoE
snb:__ZN12HandlerChain4LockER13FileEntryData12FileLockMode
S9e:_TextInfo_get_ListSeparator_m1628160079
sUd:_Selectable_OnCanvasGroupChanged_m472903475
uVf:_EventWaitHandle_Reset_m3348053200
s1c:__ZN28UnityConnectScriptingClasses23CallSessionStateChangedEixxbP21ScriptingExceptionPtr
azj:__ZN6il2cpp6icalls8mscorlib6System13Globalization11CultureInfo35construct_internal_locale_from_nameEP17Il2CppCultureInfoP12Il2CppString
cxb:__ZL22Transfer_ManagedObjectI24GenerateTypeTreeTransferLb1EEvRK29SerializationCommandArgumentsR31RuntimeSerializationCommandInfo
gPb:__ZN15RenderNodeQueueC2E10MemLabelId
Nqd:_ResourceEnumerator_FillCache_m1661715061
H2h:__ZL72SecuritySafeCriticalAttribute_t3505979402_CustomAttributesCacheGeneratorP21CustomAttributesCache
ek:_emscripten_set_main_loop_timing
Gag:_Bounds_get_min_m3755135869
PIf:_Convert_ToUInt16_m3523269149
Iva:__ZN14DataBufferGLES12RecordRenderEv
d7c:_ExecuteEvents_get_endDragHandler_m2879610446
h$b:__ZN14ImageReference10FlipImageYEv
Qqc:__Z14GetDefaultSkini
vF:__ZN4FMOD3DSP9setBypassEb
O2b:__Z19NormalizeWheelInputf
hhd:_Graphic_DoMeshGeneration_m3548487693
LGi:_Repetition__ctor_m1672362629
Pzc:__Z29Transfer_Blittable_ArrayFieldI8JSONReadhEvRT_R9ArrayInfoRK23StaticTransferFieldInfo
cpf:_SecurityFrame_ToString_m339310712_AdjustorThunk
Mkd:_TypeBuilder_create_runtime_class_m2581270900
v_d:_InternalEnumerator_1_get_Current_m3008260692_gshared
PRj:__ZN6il2cpp2os20ThreadLocalValueImpl8SetValueEPv
GUa:__ZN22RenderingCommandBuffer20CleanupCommandBufferEv
GGf:_Decimal_op_Implicit_m2299919277
Euc:__Z18Transfer_BlittableI9JSONWriteLb1EtEvRK29SerializationCommandArgumentsR31RuntimeSerializationCommandInfo
tve:_UnexceptionalStreamReader_ReadToEnd_m920589220
vKf:_DateTime_System_IConvertible_ToType_m1242864300
nrf:_String_IndexOf_m1298810678
zk:___syscall85
lPb:__ZNSt3__26__sortIRPFbP10GUIElementS2_EPS2_EEvT0_S7_T_
Hac:__ZN16GraphicsSettings12CleanupClassEv
PDe:_ConstructorBuilder_GetILGenerator_m1750792206
rRf:_EncoderFallback_get_ReplacementFallback_m818398284
yFj:__ZN6il2cpp2os6Thread19DetachCurrentThreadEv
z6c:_EventTrigger_OnBeginDrag_m4203438710
g7i:__ZN6il2cpp2vmL21SetupInterfacesLockedEP11Il2CppClassRKNS_2os12FastAutoLockE
Epb:__ZN11MonoManager23VirtualRedirectTransferER24GenerateTypeTreeTransfer
Ez:__ZN23AnimationPlayableOutput17SetSourcePlayableEP8Playable
Mcg:_CullingGroup_Dispose_m782801025
yS:__ZN11UnityEngine15CloudWebService14DataDispatcher15SetupWebRequestEv
F_c:__ZN11UnityEngine15PlatformWrapper13GetShaderCapsEv
PWb:__ZNSt3__211__sift_downIR26RenderDeferredObjectSorterP16RenderObjectDataEEvT0_S5_T_NS_15iterator_traitsIS5_E15difference_typeES5_
$Fe:_GenericTypeParameterBuilder_IsDefined_m98179866
f7f:_KeyPairPersistence_get_MachinePath_m3812267291
PDf:_Stack_Peek_m2216191248
iKf:_DateTime_System_IConvertible_ToDecimal_m1044850612_AdjustorThunk
ubc:__ZN21FixedBehaviourManager6UpdateEv
egc:__ZN9Transform9SetParentEPS_NS_15SetParentOptionE
Y4:__ZN19ShaderPropertySheet8SetFloatEN9ShaderLab16FastPropertyNameEfNS_8SetFlagsE
Fib:__ZN19RuntimeSceneManager24BeginIntegrateMainThreadEP10UnityScene
xGj:__ZNSt3__2plIcNS_11char_traitsIcEENS_9allocatorIcEEEENS_12basic_stringIT_T0_T1_EERKS9_S6_
sue:_StringReader_CheckObjectDisposedException_m3796163530
t$f:_UInt32_System_IConvertible_ToInt16_m1659441601
Uja:__ZN9ShaderLab20SerializedSubProgramaSERKS0_
JXj:_roundf
f_e:_Byte_System_IConvertible_ToSingle_m324484566_AdjustorThunk
EEf:_Decimal_op_Explicit_m2848387298
iFg:_KeyValuePair_2_ToString_m1238786018_gshared
et:__ZN8Animator15SetPrepareStageEv
XE:__ZN8AnimatorC2E10MemLabelId18ObjectCreationMode
h7i:__ZN6il2cpp2vmL24SetupTypeHierarchyLockedEP11Il2CppClassRKNS_2os12FastAutoLockE
T2b:__ZL11TextHandleriPK23EmscriptenKeyboardEventPv
uPc:_destroy_face
u1j:_glBlendEquationSeparate__wrapper
KOj:__ZN6il2cpp6icalls8mscorlib6System8Security12Cryptography24RNGCryptoServiceProvider13RngInitializeEP11Il2CppArray
oM:__ZN20SoundChannelInstance7setMuteEb
AAe:_NumberFormatter_NumberToString_m3906556024
OBb:__Z19TransferField_ArrayI18StreamedBinaryReadILb1EE27Converter_SimpleNativeClassI17AnimationCurveTplIfEEEvRK23StaticTransferFieldInfoR31RuntimeSerializationCommandInfoRT0_
lwa:__ZN18GfxFramebufferGLES22MakeCurrentFramebufferENS_7BuiltinE
y7:__ZN12CachedReader4ReadEPvj
M9c:_StandaloneInputModule_ProcessMouseEvent_m2923582521
N3f:_SimpleCollator_MatchesForwardCore_m850743967
BTb:__Z24CalculateLightShadowFadeRK6CamerafffR8Vector4f
Paa:__ZN19RuntimeSceneManagerD2Ev
h6e:_CCGregorianCalendar_GetMonth_m1547203696
OT:__ZN11UnityEngine15CloudWebService25WebRequestDownloadHandler17OnCompleteContentEv
dza:__ZN6prcore17GetIntegerBlitterE13TextureFormatS0_N14ImageReference8BlitModeE
OMj:_GC_print_block_descr
Plj:__ZN6il2cpp2gc19AppendOnlyGCHashMapINSt3__24pairIPK11Il2CppImageP11Il2CppClassEEP22Il2CppReflectionModule17ReflectionMapHashIS9_ENS2_8equal_toIS9_EEE11TryGetValueERKS9_PSB_
_hc:__ZN9BlobWrite14ReduceCopyImplERK14ReduceCopyDataj
n9:__ZNSt3__26__treeI19RepeatingLogMessageNS_4lessIS1_EE13stl_allocatorIS1_L18MemLabelIdentifier73ELi16EEE12__find_equalIS1_EERPNS_16__tree_node_baseIPvEESD_RKT_
_P:__ZN11AudioSource18IsPlayingScriptingEv
Z6f:_KeyBuilder_IV_m2230195376
j0j:_glShaderSource__wrapper
pPa:__ZN25MultiBlocksMemoryFileData17AdjustBlocksCountEj
swj:__ZNSt3__214__split_bufferIN6il2cpp2vm22EmbeddedResourceRecordERNS_9allocatorIS3_EEED2Ev
ONc:__ZN13TextRendering4Font8TransferI24GenerateTypeTreeTransferEEvRT_
pjc:__Z27CullingGroup_CUSTOM_DisposeP12Il2CppObject
awj:__ZN6il2cpp6icalls8mscorlib6SystemL23CheckWideningConversionEjjj
ROb:__ZN13ComputeShader15SetTextureParamEjRKN9ShaderLab16FastPropertyNameE9TextureID16TextureDimension
Hm:_glStencilMask
ZFj:__ZN6il2cpp2os10ThreadImpl16GetCurrentThreadEv
dod:_MonoMethod_GetBaseDefinition_m2844667474
P2b:__ZN15GUIEventManager10QueueEventERK10InputEvent
wrd:_DecimalConstantAttribute__ctor_m3583301917
oMj:_GC_push_conditional_with_exclusions
U9d:_Enumerator_System_Collections_IDictionaryEnumerator_get_Entry_m2772123357_AdjustorThunk
Hxd:_MethodCallDictionary__ctor_m2167303393
dC:__ZN12_GLOBAL__N_121ProcessAnimationBeginER35AnimationPlayableEvaluationConstantR32AnimationPlayableEvaluationInputR33AnimationPlayableEvaluationOutput
OUj:_strrchr
lcg:_Component_GetComponentInParent_m779177818
mad:_UIBehaviour_IsDestroyed_m3033055982
z8g:__Z109RuntimeInvoker_Void_t1185182177_RuntimeObject_RuntimeObject_SByte_t1669577662_Int32_t2950945753_RuntimeObjectPFvvEPK10MethodInfoPvPS4_
jKd:_InputField_get_readOnly_m3111985574
rZa:__ZN14RenderSettings27UpdateIndirectSpecularColorEv
wgb:__ZN14PlayerSettings8TransferI18StreamedBinaryReadILb0EEEEvRT_
Sgj:__ZN6il2cpp6icalls8mscorlib6System8MonoType16GetMethodsByNameEP20Il2CppReflectionTypeP12Il2CppStringibS5_
NVf:_Monitor_Monitor_wait_m3706677354
RDi:_RijndaelTransform__cctor_m2439033240
eLb:__ZNSt3__27__sort3IRNS_4lessIN22BuiltinResourceManager8ResourceEEEPS3_EEjT0_S7_S7_T_
jMc:_ps_hints_t2mask
Qsh:_LayoutGroup_SetProperty_TisVector2_t2156229523_m2721164497_gshared
Vuf:_Array_InternalArray__ICollection_Remove_TisMonoResource_t4103430009_m238733686_gshared
pef:_IntPtr_ToString_m1831665121
nVd:_Slider_Set_m1476104429
Uid:_Image_set_fillClockwise_m2210525152
Vbb:__ZN10BlendShape8TransferI19StreamedBinaryWriteILb0EEEEvRT_
gef:__Z21il2cpp_codegen_sizeofP11Il2CppClass
YCa:__Z19GetTimeSinceStartupv
sjd:_Image_AddQuad_m2161647989
oIg:_Enumerator_System_Collections_IEnumerator_Reset_m2953002685_gshared
FLc:_TT_Load_Composite_Glyph
f0a:__ZN9ShaderLab11shaderprops9GetTexEnvEPK19ShaderPropertySheetS3_NS_16FastPropertyNameE16TextureDimensionb
VRb:__ZN29RenderNodeQueuePrepareContextC2Ev
Isj:_il2cpp_gc_disable
ela:__ZN9ShaderLab20SerializedSubProgram16TextureParameter8TransferI24GenerateTypeTreeTransferEEvRT_
qHd:_DSASignatureDeformatter_SetKey_m2999549245
iPj:__ZN6il2cpp2os11MutexHandle4WaitEb
wpa:__ZN9GfxDevice19SaveStereoConstantsEv
hPj:__ZN6il2cpp2os11MutexHandle4WaitEj
Sgc:__ZL34GetComponentsImplementationRecurseILb1ELi1ELi1EEbR10GameObjectbRK17CompareParametersRK39GetComponentsImplementation_ReturnValue
o$g:__Z114RuntimeInvoker_Boolean_t97287965_RuntimeObject_RuntimeObject_Int32_t2950945753_Int32_t2950945753_Int32_t2950945753PFvvEPK10MethodInfoPvPS4_
jDe:_AssemblyBuilder_GetTypes_m3415680380
YAa:__ZN6prcoreL17RemapGenericFloatI15TexFormatRGHalf18TexFormatARGBFloatEEvPKNS_9InnerInfoE
dJb:__Z18SimulateMouseInputi
gOb:__ZN13RenderManager23AddRemoveCamerasDelayedEv
Jvc:__ZN9JSONWrite8TransferI13dynamic_arrayIdLj8EEEEvRT_PKc17TransferMetaFlags
aYc:__ZN11UnityEngine9Analytics15AnalyticsConfigC2Ev
jtc:__ZN5Unity9rapidjson6WriterI16TempBufferWriterNS0_4UTF8IcEES4_13JSONAllocatorE11WriteUint64Ey
IYe:_BitConverter__cctor_m3841343255
lEf:_Decimal_Compare_m3062820418
bEi:_IntervalCollection_GetMetaCollection_m4029522214
u6c:_EventTrigger_OnDeselect_m1919608102
X1i:_TextGenerator_get_characterCount_m864136654
AXf:_TimeSpan__ctor_m2047388489_AdjustorThunk
SZb:__ZN13RenderTexture8SetWidthEi
HLc:_UNITY_FT_GlyphLoader_CheckSubGlyphs
eUb:__Z25SetupObjectBakedOcclusionbRK15SharedLightDataRK26SharedLightmapSettingsDataRK15LightmapIndicesR17ShaderPassContext
Lxh:_Collection_1_System_Collections_ICollection_CopyTo_m1516601228_gshared
e5:__ZN9ShaderLab16FastPropertyName4InitEPKc
E5b:__Z13RegisterClassIN2UI13RectTransformEEvv
$9b:__ZL31MeshRendererTransformChangedJobP13BoundsJobDatajPK23TransformAccessReadOnlyPKyj
h_c:__ZN11UnityEngine15PlatformWrapper19GetPhysicalMemoryMBEv
M_e:_Char_System_IConvertible_ToByte_m2347554595_AdjustorThunk
g_a:__ZN13RenderTexture9SetMipMapEb
psf:_String_CreateString_m860434552
Cea:__Z18GetDirectorManagerv
pnc:__Z38Transform_CUSTOM_INTERNAL_get_rotationP12Il2CppObjectP11Quaternionf
Elj:__ZNK15dense_hashtableINSt3__24pairIK10KeyWrapperINS1_IPK10MethodInfoP11Il2CppClassEEEjEES9_17ReflectionMapHashIS8_EN14dense_hash_mapIS9_jSD_NS9_14EqualsComparerINS0_8equal_toIS8_EEEENS0_9allocatorISB_EEE9SelectKeyESI_SK_E5beginEv
nua:__ZN7ApiGLES19UploadBufferSubDataEjN2gl12BufferTargetEllPKv
Kga:__ZNSt3__216__rotate_forwardINS_11__wrap_iterIPN4core12basic_stringIcNS2_20StringStorageDefaultIcEEEEEEEET_S9_S9_S9_
Vqg:_Vector2_GetHashCode_m3916089713
Yng:_SendMouseEvents_HitTestLegacyGUI_m579942228
mUd:_Selectable_get_isPointerDown_m3518318267
Olf:_SymmetricAlgorithm_set_KeySize_m3805756466
j_e:_Byte_System_IConvertible_ToUInt32_m1049546902_AdjustorThunk
z7g:__Z53RuntimeInvoker_Double_t594665363_Interval_t1802865632PFvvEPK10MethodInfoPvPS4_
pLb:__Z21InitializeBatchedJobsv
Y2i:_CanvasGroup_get_blocksRaycasts_m1805542303
wkf:_SHA1Internal_ProcessBlock_m1991889327
Yrb:__Z19TransferField_ArrayI14SafeBinaryRead27Converter_SimpleNativeClassI8GUIStyleEEvRK23StaticTransferFieldInfoR31RuntimeSerializationCommandInfoRT0_
eqh:_Array_Sort_TisRuntimeObject_TisRuntimeObject_m1685639929_gshared
TOj:__ZN6il2cpp5utils10MemoryPoolC2Ev
OYa:__ZN14RenderSettings5ResetEv
A4b:__ZN6Sprite9BindAtlasERK4PPtrI11SpriteAtlasE
rsc:__ZN5Unity9rapidjson12GenericValueINS0_4UTF8IcEE13JSONAllocatorE10FindMemberIS4_EENS0_21GenericMemberIteratorILb0ES3_S4_EERKNS1_IS3_T_EE
g2d:_InternalEnumerator_1_System_Collections_IEnumerator_get_Current_m3892960115_AdjustorThunk
fxj:__ZNSt3__212basic_stringIDsNS_11char_traitsIDsEENS_9allocatorIDsEEE6appendEPKDsj
WHd:_HMAC_HashCore_m3684104066
PNh:__ZN28GenericInterfaceFuncInvoker2Ii20UIVertex_t4057497605S0_E6InvokeEPK10MethodInfoP12Il2CppObjectS0_S0_
Rsc:__ZN5Unity9rapidjson13GenericReaderINS0_4UTF8IcEES3_13JSONAllocatorE11ParseNumberILj1ENS0_25GenericInsituStringStreamIS3_EENS0_15GenericDocumentIS3_S4_S4_EEEEvRT0_RT1_
edb:__ZN14SpriteRenderer14OnChangeSpriteEv
JFj:__ZN6il2cpp2os10ThreadImplD2Ev
Mtc:__ZN8Gradient8TransferI9JSONWriteEEvRT_
ojb:__ZN21RendererUpdateManager18OncePerFrameUpdateER13RendererScene
rCi:_X509StoreManager_get_LocalMachine_m269504582
KLa:__ZNK12TLSAllocatorI14StackAllocatorE22GetAllocatedMemorySizeEv
LKa:__ZN4core8hash_mapINSt3__24pairI9UnityGUIDxEE15SpriteAtlasData23SpriteRenderDataKeyHashNS1_8equal_toIS4_EEE6insertERKNS2_IKS4_S5_EE
o3:__ZN17RemapPPtrTransfer12PushMetaFlagE17TransferMetaFlags
LBg:_EqualityComparer_1_System_Collections_IEqualityComparer_GetHashCode_m2138064395_gshared
dnb:__ZN12HandlerChain4NameEv
qbf:_Int16_System_IConvertible_ToType_m3672347013_AdjustorThunk
Brf:_String_LastIndexOf_m578673845
Ltb:__Z29Transfer_Blittable_ArrayFieldI14SafeBinaryReadN4math12int3_storageEEvRT_R9ArrayInfoRK23StaticTransferFieldInfo
Oof:_SecurityException_ToString_m3228070608
Xbf:_Int16_ToString_m2013897809
Qof:_String_Substring_m2848979100
qWc:__Z44Register_UnityEngine_CanvasRenderer_get_cullv
juh:_ScriptableObject_CreateInstance_TisRuntimeObject_m1552711675_gshared
LZc:__ZN11UnityEngine7Connect17XRDeviceInfoEvent12XRDeviceInfoD2Ev
_pb:__Z44InitializeTransferFunctionScriptingTraitsForI17RemapPPtrTransferEvR31TransferFunctionScriptingTraits
l6b:__ZNSt3__26vectorI16MessageForwarder13stl_allocatorIS1_L18MemLabelIdentifier7ELi8EEE6resizeEj
nOe:_X509Chain_SelectBestFromCollection_m1068759221
ZSi:_SymmetricTransform_TransformBlock_m851059707
mSh:__ZL68IntPtr_t_CustomAttributesCacheGenerator_IntPtr_ToPointer_m4157623054P21CustomAttributesCache
cWg:_Enumerator_System_Collections_IEnumerator_Reset_m2261065994_AdjustorThunk
dTd:_ScrollRect_get_verticalNormalizedPosition_m3693218937
Eib:__ZN18LoadSceneOperation21MustCompleteNextFrameEv
pVd:_Slider_UpdateDrag_m1102107039
Hod:_MonoMethodInfo_get_method_info_m88651774
pM:__ZNK12AudioManager16GetAudioListenerEv
hcf:_Int32_System_IConvertible_ToDateTime_m1824716955
LEd:_RuntimeTypeHandle__ctor_m3315980708_AdjustorThunk
D2i:_Canvas_set_overrideSorting_m4088794420
xZb:__ZNSt3__26vectorI11CameraStackNS_9allocatorIS1_EEE8__appendEj
Bu:__ZN7mecanim9animation12GetHumanPoseERKNS0_18ClipMuscleConstantEPKNS0_10ValueDeltaERNS_5human9HumanPoseE
OXc:__ZN11UnityEngine9Analytics15UserCustomEvent12CustomParams6InsertEPKcRNS1_11CustomValueE
rw:__ZN22AnimationMixerPlayable17ProcessRootMotionEP35AnimationPlayableEvaluationConstantP32AnimationPlayableEvaluationInputP33AnimationPlayableEvaluationOutput
l1:__Z13GetFileSystemv
Bba:__ZNK5Unity4Type21FindAllDerivedClassesER13dynamic_arrayIPKS0_Lj4EENS0_17TypeFilterOptionsE
uca:__ZN13RuntimeStaticI15GUIEventManagerLb0EE16StaticInitializeEPv
aeb:__ZN14SafeBinaryRead8TransferIfEEvRT_PKc17TransferMetaFlags
N1f:_Version_CompareTo_m3146217210
Zqe:_TlsClientCertificate_FindParentCertificate_m3844441401
idb:__ZThn32_N14SpriteRenderer15AddAsRenderNodeER15RenderNodeQueueRK20DeprecatedSourceData
QAf:_Array_InternalArray__ICollection_CopyTo_TisKeyValuePair_2_t71524366_m1056941380_gshared
UYf:_Type_get_IsClass_m589177581
eZf:_Type_get_IsSystemType_m624798880
$Ob:__ZN19ShaderPropertySheet9SetMatrixEN9ShaderLab16FastPropertyNameERK10Matrix4x4fNS_8SetFlagsE
p4a:__Z29GetTextureSizeAllowedMultiple13TextureFormat
jNf:_Decimal_Subtract_m835601464
iib:__ZNSt3__26vectorIN4core12basic_stringIcNS1_20StringStorageDefaultIcEEEE13stl_allocatorIS5_L18MemLabelIdentifier13ELi16EEE8__appendEj
Kbc:__ZN21IntermediateRenderers3AddEP20IntermediateRenderer
Trj:_il2cpp_array_element_size
lka:__ZNSt3__26__treeINS_12__value_typeIN4core12basic_stringIcNS2_20StringStorageDefaultIcEEEEiEENS_19__map_value_compareIS6_S7_NS_4lessIS6_EELb1EEENS_9allocatorIS7_EEE12__find_equalIS6_EERPNS_16__tree_node_baseIPvEENS_21__tree_const_iteratorIS7_PNS_11__tree_nodeIS7_SH_EEiEESK_RKT_
VQh:__ZL62ComVisibleAttribute_t1362837655_CustomAttributesCacheGeneratorP21CustomAttributesCache
Omg:_RectTransform_INTERNAL_set_sizeDelta_m188783163
$f:_glCheckFramebufferStatus
oOj:__ZN6il2cpp2os11EventHandle4WaitEv
q5i:_CustomEventData__ctor_m4146403782
hV:__ZN19CloudServiceHandler20StartEventDispatcherERKN11UnityEngine15CloudWebService18CloudServiceConfigERNS1_23WebRequestRestHeaderMapE
Hhd:_GraphicRaycaster__ctor_m646559428
w2e:_BitArrayEnumerator_get_Current_m4220391712
IBe:__Z37il2cpp_codegen_get_executing_assemblyPK10MethodInfo
qng:_Transform_get_parent_m835071599
tKe:_IPAddress_get_ScopeId_m4237202723
Er:__ZN4core8hash_mapIN11UnityEngine9Animation14GenericBindingENS2_10BoundIndexENS2_25GenericBindingHashFunctorENS2_30GenericBindingValueArrayUniqueEE4growEi
PGi:_ExpressionCollection_get_Item_m3510736379
Xth:_Array_InternalArray__get_Item_TisVector3_t3722313464_m2720091419_gshared
l9c:_StandaloneInputModule_get_inputActionsPerSecond_m3946624274
RUf:_UTF8Encoding_InternalGetCharCount_m82458470
irg:_Vector2__cctor_m2108982652
qzj:__ZN14dense_hash_mapI10KeyWrapperIP14Il2CppIUnknownEjN6il2cpp5utils11PointerHashIS1_EENS3_14EqualsComparerINSt3__28equal_toIS2_EEEENS9_9allocatorINS9_4pairIKS3_jEEEEE15set_deleted_keyERSF_
Oba:__ZN22BuiltinResourceManager16StaticInitializeEPv
ioj:__ZN13Il2CppHashMapIPK14Il2CppAssemblyPK22Il2CppMonoAssemblyNameN6il2cpp5utils11PointerHashIS1_EENSt3__28equal_toIS2_EENSA_9allocatorINSA_4pairIK10KeyWrapperIS2_ES5_EEEEEC2EjRKS9_RKSC_
IVe:_DelegatePInvokeWrapper_AppDomainInitializer_t682969308
OXa:__ZN5Light9SetupHaloEv
t0:__ZN8Remapper6RemoveEi
SRf:_Encoding_GetBytes_m3148649984
eQc:__ZL36CleanupTextRenderingScriptingClassesv
PZb:__ZN15ReflectionProbe17UseRendererResultEP13ProbeRenderer
Coc:__Z34Mesh_CUSTOM_SetArrayForChannelImplP12Il2CppObject30InternalScriptingShaderChannel34InternalScriptingVertexChannelTypeiP11Il2CppArrayi
k$:__Z32scripting_class_get_nested_types17ScriptingClassPtrRNSt3__26vectorIS_13stl_allocatorIS_L18MemLabelIdentifier1ELi16EEEE
e3i:_CanvasRenderer_INTERNAL_CALL_EnableRectClipping_m3318097918
j0f:_UInt64_System_IConvertible_ToDecimal_m806594027_AdjustorThunk
P9d:_Enumerator_System_Collections_IEnumerator_get_Current_m361750367_AdjustorThunk
sAd:_RealProxy_InternalGetTransparentProxy_m1765012608
vMg:_List_1__ctor_m3395838871_gshared
QEh:_Collection_1_IsFixedSize_m3698021882_gshared
yAi:_PKCS12__ctor_m1854440921
Fph:_Array_Resize_TisCustomAttributeNamedArgument_t287865710_m885566878_gshared
fE:__ZN11UnityEngine9Animation28GenericAnimationBindingCache25RegisterIAnimationBindingEPKN5Unity4TypeEiP17IAnimationBinding
uWc:__Z70RectTransformUtility_CUSTOM_INTERNAL_CALL_RectangleContainsScreenPointP12Il2CppObjectRK13Vector2fIcallS0_
zff:_DirectoryInfo__ctor_m481305441
I9:__ZN10MemoryPoolC2E10MemLabelIdbPKciii
vXc:__ZN14UnityAnalytics25UnregisterGlobalCallbacksEv
qYb:__Z40ProcessCameraIndexListIsNodeVisibleInOutRK22SceneCullingParametersPK9SceneNodePK4AABBR9IndexList
URi:_GUIScrollGroup_SetHorizontal_m291416666
TVa:__ZN16GraphicsSettings8TransferI17RemapPPtrTransferEEvRT_
UTc:__ZN2UI6Canvas13UpdateBatchesEb
jMe:_X509BasicConstraintsExtension_Decode_m120598446
Bz:__ZNK23AnimationPlayableOutput11DerivesFromE17ScriptingClassPtr
yli:__ZL64EventType_t3528516131_CustomAttributesCacheGenerator_dragUpdatedP21CustomAttributesCache
d$c:__ZN11UnityEngine7Connect13ConfigHandler12GetListenersERKN4core12basic_stringIcNS2_20StringStorageDefaultIcEEEE
Tqa:__ZN9GfxDevice18AllocRenderSurfaceEb
F_e:_Char__cctor_m2787437263
q4b:__ZN10TagManager32GetSortingLayerUniqueIDFromValueEi
Bad:_AspectRatioFitter_get_rectTransform_m2996235303
Z_:__ZL27CleanupCoreScriptingClassesv
Ehd:_Graphic_UnregisterDirtyMaterialCallback_m2707090617
S8d:_Comparer_1_System_Collections_IComparer_Compare_m1313384821_gshared
vlc:__Z26AnimationCurve_CUSTOM_InitP12Il2CppObjectP11Il2CppArray
P3j:_glUniform1uiv__wrapper
Vnj:__ZN6il2cpp2vm10Reflection7IsEventEP12Il2CppObject
OZ:__ZN17PersistentManager26GetStreamNameSpaceInternalEi
kG:__ZN4FMOD6System11createSoundEPKcjP22FMOD_CREATESOUNDEXINFOPPNS_5SoundE
go:FUNCTION_TABLE_iiifiiii
aCc:__ZN13SpeedTreeWind20AdvanceWithoutUpdateEd
SEh:_ReadOnlyCollection_1_System_Collections_Generic_ICollectionU3CTU3E_Add_m1422506275_gshared
hKf:_DateTime_System_IConvertible_ToDecimal_m1044850612
laa:__ZN9ShaderLab19CommonPropertyNames13StaticCleanupEPv
L$:__Z31scripting_method_get_returntype18ScriptingMethodPtr
K5a:__ZN15SerializeTraitsI12LightmapDataE8TransferI24GenerateTypeTreeTransferEEvRS0_RT_
jnf:_SecurityElement_AddAttribute_m311510562
l0j:_glStencilOpSeparate__wrapper
uec:__ZN4Mesh5SetUvEiPKfjj
L6a:__ZN7Texture13SetAnisoLimitENS_20AnisotropicFilteringE
nO:__ZN11AudioModule16SetListenerPauseEb
yYe:_Attribute_IsDefined_m4069052474
Vh:_emscripten_glCompressedTexSubImage2D
FDa:__ZN13GfxDeviceGLES22MemoryBarrierImmediateEyN2gl17MemoryBarrierTypeE
kBa:__ZN6prcoreL26RemapGenericFloatToIntegerI18TexFormatARGBFloat17TexFormatARGB8888EEvPKNS_9InnerInfoE
RUg:_List_1_set_Capacity_m1977188119_gshared
Mgc:__Z46GetShaderModelNumericValueFromRequirementsMask18ShaderRequirements
OFc:_cff_ps_has_glyph_names
Rxg:_Dictionary_2_Resize_m3287623642_gshared
SKj:_GC_write
yzd:_SoapTypeAttribute_SetReflectionObject_m1691526413
ohd:_Graphic_OnPopulateMesh_m767318148
zug:_Dictionary_2_Remove_m4193450060_gshared
Rdf:_Int64_TryParse_m3606398488
Boh:_Array_InternalArray__set_Item_TisMark_t3471605523_m1299772331_gshared
dsc:__Z44Register_UnityEngine_GUIStyle_SetDefaultFontv
Xzb:__Z18Transfer_BlittableI18StreamedBinaryReadILb1EELb1EiEvRK29SerializationCommandArgumentsR31RuntimeSerializationCommandInfo
cB:__ZN9BlobWrite8TransferI22OffsetPtrArrayTransferIKN4math7_float3EEEEvRT_PKc17TransferMetaFlags
u$g:__Z173RuntimeInvoker_Int32_t2950945753_RuntimeObject_Int32_t2950945753_Int32_t2950945753_Int32_t2950945753_RuntimeObject_Int32_t2950945753_SByte_t1669577662_ContextU26_t3937453398PFvvEPK10MethodInfoPvPS4_
pOg:_List_1__ctor_m2576108087_gshared
Jmj:__ZN15dense_hashtableINSt3__24pairIK10KeyWrapperINS1_IPK12PropertyInfoP11Il2CppClassEEEjEES9_17ReflectionMapHashIS8_EN14dense_hash_mapIS9_jSD_NS9_14EqualsComparerINS0_8equal_toIS8_EEEENS0_9allocatorISB_EEE9SelectKeyESI_SK_E12maybe_shrinkEv
wAb:__Z18Transfer_BlittableI18StreamedBinaryReadILb1EELb1EsEvRK29SerializationCommandArgumentsR31RuntimeSerializationCommandInfo
hTf:_StringBuilder_Remove_m940064945
LGd:_DESCryptoServiceProvider_GenerateIV_m683687014
H5d:_InternalEnumerator_1_get_Current_m3792939945_gshared
oZc:__ZN22BaseUnityConnectClient17OnEnterStateReadyEv
fWd:_Text_get_fontSize_m1677872538
RKg:_List_1_System_Collections_IList_get_Item_m995551621_gshared
Vxi:_SslStreamBase_get_KeyExchangeStrength_m217695965
DUa:__ZN14GrowableBufferD2Ev
Nkc:__Z29Input_CUSTOM_GetMouseButtonUpi
qhj:__ZN6il2cpp6icalls8mscorlib6System8MonoType16InternalGetEventEP20Il2CppReflectionTypeP12Il2CppStringi
uKi:_UriScheme_t722425697_marshal_pinvoke_back
GHc:_UNITY_tt_face_load_maxp
$kc:__Z46Input_CUSTOM_INTERNAL_set_compositionCursorPosRK13Vector2fIcall
Ht:__ZN7mecanim5human12FullBodyMaskEv
u4f:_BigInteger_ToString_m3475000413
Idb:__ZN19ShaderPropertySheet11ComputeHashEv
Xaj:__ZN30dense_hashtable_const_iteratorI10KeyWrapperIPK19Il2CppGenericMethodES4_N6il2cpp8metadata23Il2CppGenericMethodHashEN14dense_hash_setIS4_S7_NS4_14EqualsComparerINS6_26Il2CppGenericMethodCompareEEENSt3__29allocatorIS4_EEE8IdentityESB_SE_EppEv
xT:__ZN11UnityEngine15CloudWebService20WebRequestRestClient6IsDoneEv
Si:_llvm_fabs_f32
aT:__ZN11UnityEngine15CloudWebService16SessionContainer16GetJsonDataBlockEjRKN4core12basic_stringIcNS2_20StringStorageDefaultIcEEEERS6_PjSA_
O5f:_ASN1_Decode_m1695284166
YPf:_Enum_ToString_m3248653065
c_:__ZN14SafeBinaryReadD2Ev
x5b:__Z13RegisterClassI7TextureEvv
vIg:_Enumerator_MoveNext_m3859993671_gshared
MBb:__ZN8Gradient8TransferI18StreamedBinaryReadILb1EEEEvRT_
WPe:_Capture__ctor_m3103117740
N8a:__ZN4core8hash_mapINS_12basic_stringIcNS_20StringStorageDefaultIcEEEE13dynamic_arrayI4PPtrI6SpriteELj4EENS_4hashIS4_EENSt3__28equal_toIS4_EEEixERKS4_
s_g:__Z113RuntimeInvoker_Void_t1185182177_RuntimeObject_Int64_t3736567304_RuntimeObject_Int64_t3736567304_Int64_t3736567304PFvvEPK10MethodInfoPvPS4_
Tkg:_RangeInt_get_end_m4128831787_AdjustorThunk
Oyj:__ZN6il2cpp6icalls8mscorlib6System4Type15MakeGenericTypeEP20Il2CppReflectionTypeP11Il2CppArray
sj:_SDL_PauseAudio
f4e:_Hashtable_Clone_m3078962909
osj:_il2cpp_class_from_type
yij:__ZN6il2cpp2os4File11GetStdErrorEv
Dej:_NativeHeaderAttribute__ctor_m457462113
kaa:__ZN9ShaderLab19CommonPropertyNames16StaticInitializeEPv
T7d:_Comparer_1__cctor_m2517796511_gshared
gD:__ZN7mecanim9animation18CreateAvatarOutputEPKNS0_14AvatarConstantEbbRNS_6memory9AllocatorE
zre:_TlsServerCertificateRequest_Update_m2763887540
XUd:_Slider_set_maxValue_m2251404465
hM:__ZN11AudioSource23VirtualRedirectTransferER24GenerateTypeTreeTransfer
eec:__ZN7Texture11SetWrapModeE15TextureWrapMode
lYc:__ZN14UnityAnalytics15SendCustomEventERN11UnityEngine9Analytics15UserCustomEventE
h9a:__ZN14Texture2DArray23VirtualRedirectTransferER14SafeBinaryRead
uwe:_MissingMemberException__ctor_m1220732369
wTb:__ZNK6Camera21CalculateCanDoShadowsEv
D9f:_Application_InvokeOnBeforeRender_m2875673833
rFj:__ZN6il2cpp2os6Thread12SetStackSizeEj
rPd:_MaskableGraphic_RecalculateMasking_m183336762
oth:_Array_InternalArray__get_Item_TisRuntimeObject_m3347010206_gshared
rld:_TypeBuilder_IsSubclassOf_m3458909121
$dc:__ZNK8Renderer16IsVisibleInSceneEv
DZ:__Z13VFormatBufferPciPKcz
SCb:__Z18Transfer_BlittableI18StreamedBinaryReadILb0EELb1EhEvRK29SerializationCommandArgumentsR31RuntimeSerializationCommandInfo
DTe:_X509Certificate__cctor_m198658613
Vjg:_PlayableHandle_Equals_m1666612586_AdjustorThunk
oBa:__ZN6prcoreL27StretchGenericFloatBilinearI15TexFormatRFloatEEvPKNS_9InnerInfoE
k8h:__ZL139ServicePointManager_t170559685_CustomAttributesCacheGenerator_ServicePointManager_t170559685____CheckCertificateRevocationList_PropertyInfoP21CustomAttributesCache
iQf:_Enum_ToObject_m1628250250
_Sg:_List_1_set_Item_m2057272351_gshared
rya:__Z14PadImageBorderR14ImageReferenceii
jlj:__ZN15dense_hashtableINSt3__24pairIK10KeyWrapperINS1_IPK10MethodInfoP11Il2CppClassEEEjEES9_17ReflectionMapHashIS8_EN14dense_hash_mapIS9_jSD_NS9_14EqualsComparerINS0_8equal_toIS8_EEEENS0_9allocatorISB_EEE9SelectKeyESI_SK_E4findERSA_
gej:__ZN6il2cpp2vm13MetadataCache28GetFieldDefaultValueForFieldEPK9FieldInfo
jyf:_Array_IndexOf_TisUIVertex_t4057497605_m3336763564_gshared
_w:__ZN27AnimationLayerMixerPlayableD2Ev
Ncd:_ColorBlock_Equals_m518833916_AdjustorThunk
qhi:__ZL66PersistentCall_t3407714124_CustomAttributesCacheGenerator_m_TargetP21CustomAttributesCache
rI:__ZN12AudioManager39HandlePendingAudioConfigurationCallbackEv
sk:_emscripten_glIsFramebuffer
n8f:_RSAManaged_EncryptValue_m799827583
f2:__ZN12_GLOBAL__N_16qAtan2Eff
wk:_JS_Sound_SetLoopPoints
_ca:__ZN15dense_hashtableINSt3__24pairIKyP17VertexDeclarationEEy14GfxGenericHashIyEN14GfxDoubleCacheIyS4_S7_NS0_8equal_toIyEEN31GfxDoubleCacheConcurrencyPolicy11LocklessGetE42GfxDoubleCacheDefaultEmptyDeletedGeneratorIyEE9SelectKeyESA_13stl_allocatorIS5_L18MemLabelIdentifier24ELi16EEE14squash_deletedEv
xN:__ZN12AudioManager17ShouldSourcePauseEb
sPj:__ZN6il2cpp2vm26MetadataAllocGenericMethodEv
evf:_Array_InternalArray__ICollection_Remove_TisUInt16_t2177724958_m1766181761_gshared
pHa:__ZN19ConstantBuffersGLES12RecordRenderEv
Cvc:__ZN9JSONWrite8TransferI10RectOffsetEEvRT_PKc17TransferMetaFlags
Xxa:__ZN4crnd12symbol_codec11decode_bitsEj
IDc:_cf2_doFlex
qTi:_AesManaged_GenerateIV_m1368817386
FSa:__ZN13dynamic_arrayI17SortingLayerEntryLj4EE6insertEPS0_jRKS0_
vI:__ZN4FMOD6System12createReverbEPPNS_6ReverbE
XIj:__ZN6il2cpp2vm6String21InitializeEmptyStringEP11Il2CppClass
Rw:__ZN7mecanim19ValueArrayBlendNodeILb1EEEvRKNS_10ValueArrayERKNS_14ValueArrayMaskERS1_RS4_RNS_16ValueArrayWeightEf
Mkb:__Z16MarkDependenciesR27GarbageCollectorThreadStatej
NPi:_ObjectPool_1_get_countInactive_m526975942_gshared
dAd:_RemotingServices_DisposeIdentity_m2605848806
r2:__ZNK9Transform11GetPositionEv
Cag:_Bounds_set_size_m4127623202
haf:_GuidParser_Reset_m2640004655
YWa:__ZN23SharedMeshRenderingData18UnloadVertexStreamEi
Jbc:__ZN31CanvasBatchIntermediateRenderer11AddSubBatchERK16DrawBuffersRangePK19ShaderPropertySheet
mac:__ZN19RenderEventsContextC2Ei
mR:__Z6simd4fRKf
_k:_emscripten_glEnable
c0d:_InternalEnumerator_1_System_Collections_IEnumerator_get_Current_m2982675020_gshared
ySa:__ZN10TagManager23VirtualRedirectTransferER14SafeBinaryRead
SQa:__Z15Hash128ToStringRK7Hash128
hWb:__Z15InitLightMeshesv
qnd:_MonoCMethod_ToString_m3992577062
In:FUNCTION_TABLE_iifiii
G6a:__ZN15QualitySettings8TransferI19StreamedBinaryWriteILb0EEEEvRT_
AOd:_LayoutUtility_U3CGetFlexibleHeightU3Em__7_m2991026842
kDc:_cf2_arrstack_init
xth:_Array_InternalArray__get_Item_TisResourceCacheItem_t51292791_m1306056717_gshared
dch:__Z157RuntimeInvoker_Void_t1185182177_RuntimeObject_RuntimeObject_RuntimeObject_RuntimeObject_RuntimeObject_RuntimeObject_RuntimeObject_RuntimeObject_RuntimeObjectPFvvEPK10MethodInfoPvPS4_
tX:__Z15CleanLogHandler7LogTypePKcz
Hze:_NumberFormatter_NumberToString_m2481532188
Nla:__ZN9ShaderLab19SerializedSubShader8TransferI19StreamedBinaryWriteILb0EEEEvRT_
gTd:_ScrollRect_InternalGetBounds_m599803667
kGb:__ZN6Camera17RemoveImageFilterERK11ImageFilter
rna:__ZNSt3__218__insertion_sort_3IR25ValueParameterArraySorterPN20GpuProgramParameters14ValueParameterEEEvT0_S6_T_
_7h:__ZL67EditorBrowsableAttribute_t1475454531_CustomAttributesCacheGeneratorP21CustomAttributesCache
m3e:_Comparer__cctor_m3311686689
G$d:_InternalEnumerator_1_get_Current_m3500427238_AdjustorThunk
BUc:__ZN2UI26InitializeDeviceForOverlayEi
l9:__Z27LogRepeatingStringWithFlagsRKN4core12basic_stringIcNS_20StringStorageDefaultIcEEEE15LogMessageFlagsi
u0f:_UInt64_System_IConvertible_ToSingle_m925613075
jQf:_Enum_IsDefined_m1442314461
dWf:_Thread__cctor_m817723615
r0i:_AudioExtensionManager_RegisterBuiltinDefinitions_m2742744104
gu:__ZN17AnimationPlayable28ComputeNeedsBindingRebuildedEv
nt:__ZN17AnimationPlayable23RequestAllocateBindingsEv
ZQf:_DecoderReplacementFallbackBuffer_Fallback_m1261056214
Cxe:_Binder_get_DefaultBinder_m950908649
K4e:_StreamReader__ctor_m1616861391
h0c:__ZN18UnityConnectClient33OnPlayerSessionStateChangedStaticEPS_jyy
Fjf:_RSA_ToXmlString_m2922661427
hU:__ZNK11UnityEngine15CloudWebService23WebRequestUploadHandler11GetProgressEv
Xua:__ZN7ApiGLES4LoadE16GfxDeviceLevelGL
X5a:__ZN18StreamedBinaryReadILb0EE21TransferSTLStyleArrayI13dynamic_arrayI31EnlightenSystemAtlasInformationLj8EEEEvRT_17TransferMetaFlags
_je:_ASN1_Add_m2431139999
Rxa:__ZN4crnd12crn_unpacker22decode_color_endpointsEv
eCj:__ZN15dense_hashtableI10KeyWrapperIP18Il2CppGenericClassES3_N6il2cpp8metadata22Il2CppGenericClassHashEN14dense_hash_setIS3_S6_NS3_14EqualsComparerINS5_25Il2CppGenericClassCompareEEENSt3__29allocatorIS3_EEE8IdentityESA_SD_E15insert_noresizeERKS3_
t9b:__ZZL31RegisterOtherRendererPropertiesR22GenericPropertyBindingEN30Wrapper_RendererReceiveShadows13GetFloatValueEPv
Ctf:_Array_InternalArray__ICollection_Contains_TisSlot_t384495010_m688761886_gshared
o4a:__ZN17SharedTextureDataC2E10MemLabelIdii13TextureFormatjiibb
beh:__Z114RuntimeInvoker_RuntimeObject_RuntimeObject_Int32_t2950945753_Int32_t2950945753_Int32_t2950945753_Int32_t2950945753PFvvEPK10MethodInfoPvPS4_
yJb:__ZN8Material11SetPassFastEPN9ShaderLab4PassER17ShaderPassContextP6Shaderib
f0c:__ZN11UnityEngine7Connect20BasePersistentValues10SaveValuesER9JSONWrite
XBh:_Collection_1_IsFixedSize_m3748602684_gshared
jKf:_DateTime_System_IConvertible_ToDouble_m2116720007
Edg:_Display_GetSystemExtImpl_m2808197389
rXf:_WaitHandle_WaitOne_m2577152516
FSe:_X509Certificate_PEM_m1177570576
lXd:_ArrayReadOnlyList_1_GetEnumerator_m1835926958_gshared
hfc:__Z14ScaleCurveTimeR17AnimationCurveTplIfEf
Aca:__ZN22VirtualJoystickManagerC2Ev
aca:__ZN20GlobalCachingManager7DisposeEv
uQb:__Z12SetupLODFadeR9GfxDeviceR17ShaderPassContextf
g2a:__ZNK14PlayableOutput7GetTypeEv
WVb:__ZL24CollectForwardObjectsJobP27CollectForwardObjectsHeader
RXb:__Z13IsNodeVisibleRK9SceneNodeRK4AABBRK22SceneCullingParameters
Nyf:_Array_InternalArray__IndexOf_TisLabelFixup_t858502054_m1491765395_gshared
h3f:_SortKeyBuffer_AppendCJKExtension_m2591091991
wWc:__Z57RectTransformUtility_CUSTOM_INTERNAL_CALL_PixelAdjustRectP12Il2CppObjectS0_R5RectTIfE
LUf:_UTF8Encoding_GetByteCount_m4153686982
QYb:__Z24ScheduleCullingAllGroupsR8JobFenceRK22SceneCullingParametersiRK13CullingOutputRK13dynamic_arrayIP12CullingGroupLj4EERKS_
L5j:_emscripten_glStencilMask__wrapper
hZg:__Z49RuntimeInvoker_Void_t1185182177_Double_t594665363PFvvEPK10MethodInfoPvPS4_
Naj:__ZN15dense_hashtableI10KeyWrapperIPK19Il2CppGenericMethodES4_N6il2cpp8metadata23Il2CppGenericMethodHashEN14dense_hash_setIS4_S7_NS4_14EqualsComparerINS6_26Il2CppGenericMethodCompareEEENSt3__29allocatorIS4_EEE8IdentityESB_SE_EC2ERKSH_j
xUa:__ZN15RenderNodeQueue7CleanupEv
apd:_MonoProperty_CreateGetterDelegate_m2478402519
lBc:__ZN16NovodexAllocator8allocateEjPKcS1_i
_0a:__ZN39DeprecatedFastPropertyNameSerialization8TransferI14SafeBinaryReadEEvRT_
MAi:_DeriveBytes_DeriveIV_m973925711
scf:_Int32_System_IConvertible_ToSByte_m3133688512
TVb:__ZN9ShaderLab10GrabPassesD2Ev
t9a:__ZN14Texture2DArray13UploadTextureEv
bPd:_MaskableGraphic_UpdateCull_m2805101913
nIc:_tt_cmap14_done
Gib:__ZN18AwakeFromLoadQueue25RegisterObjectInstanceIDsEv
Ioh:_Array_InternalArray__set_Item_TisColor32_t2600501292_m1891325855_gshared
dx:__ZNK27AnimationLayerMixerPlayable11DerivesFromE17ScriptingClassPtr
zOc:__ZN20TextRenderingPrivate19NativeTextGenerator15InsertCharacterEiPj
wxe:_MonoType_get_attributes_m1332507727
hRi:_GUIContent_ClearStaticCache_m1205116045
eCd:_BinaryCommon__cctor_m2978407547
L_e:_Char_System_IConvertible_ToByte_m2347554595
hQc:__ZN20TextRenderingPrivate15DynamicFontData21GetFontMetricsForFaceERK13dynamic_arrayIN4core17string_with_labelILi35EEELj4EEiRKS1_I4PPtrIN13TextRendering4FontEELj4EEPfSF_
vOi:_IndexedSet_1__ctor_m2250384602_gshared
Y_f:_UInt16_TryParse_m4139137016
fHj:__ZN6il2cpp2gc16GarbageCollector9FreeFixedEPv
FRf:_Encoding__ctor_m2997749867
Lgg:_ManagedStreamHelpers_ManagedStreamSeek_m3158782053
GIi:_ExpressionAssertion_Compile_m2166597834
DFb:__ZN16ScriptingManagerD0Ev
Dpf:_Single_System_IConvertible_ToSByte_m1208276900_AdjustorThunk
OJj:__ZN6il2cpp6icalls8mscorlib6System7Convert24InternalFromBase64StringEP12Il2CppStringb
KAj:__ZN30dense_hashtable_const_iteratorINSt3__24pairIK10KeyWrapperINS1_IPKcS4_EEEiEES6_24NamespaceAndNamePairHashN14dense_hash_mapIS6_iS9_NS6_14EqualsComparerI26NamespaceAndNamePairEqualsEENS0_9allocatorIS8_EEE9SelectKeyESD_SF_EppEv
mjc:__Z44Register_UnityEngine_Component_get_transformv
gC:__ZN12_GLOBAL__N_120ProcessPlayableGraphERN8Animator11AnimatorJobER35AnimationPlayableEvaluationConstantR32AnimationPlayableEvaluationInputR33AnimationPlayableEvaluationOutputPFvS4_R17AnimationPlayableEPFvS4_S6_S8_EPFvS8_S4_S6_S8_fESE_MS9_FvPS3_PS5_PS7_E
z3i:_CanvasRenderer_get_absoluteDepth_m2703237819
W9e:_TextInfo_ToLower_m2744057472
uMb:__ZN17ArchiveFileSystem12MountArchiveEPKcS1_
fDg:_EqualityComparer_1_System_Collections_IEqualityComparer_Equals_m3977314386_gshared
Huc:__Z18Transfer_BlittableI9JSONWriteLb1E8Vector4fEvRK29SerializationCommandArgumentsR31RuntimeSerializationCommandInfo
En:FUNCTION_TABLE_viififiii
a6e:_CCGregorianCalendar_year_from_fixed_m463929682
FSc:__ZN2UI13CanvasManagerD0Ev
ZX:__ZThn32_NK8Renderer14GetSubsetIndexEi
$cg:_Debug_get_unityLogger_m2239795986
$Eh:_ReadOnlyCollection_1_System_Collections_IEnumerable_GetEnumerator_m2123446296_gshared
Xke:_MD2Managed_Initialize_m2341076836
gLh:_ReadOnlyCollection_1_System_Collections_IList_Add_m4240023232_gshared
Mra:__ZN9GfxDevice15ImmediateVertexEfff
f5b:__Z13RegisterClassI8MaterialEvv
g5a:__ZNK16LightmapSettings22GetTypeVirtualInternalEv
cpa:__ZN13GfxDeviceGLES15SetStencilStateEPK18DeviceStencilStatei
KZe:_Buffer_BlockCopyInternal_m418318694
STj:_cycle
EJj:__ZN6il2cpp2vm8Profiler7GCEventE13Il2CppGCEvent
U_g:__Z76RuntimeInvoker_Void_t1185182177_RuntimeObject_RuntimeFieldHandle_t1871169219PFvvEPK10MethodInfoPvPS4_
Id:_emscripten_glUniform1iv
zob:__ZN16MemoryFileSystemD2Ev
j$g:__Z150RuntimeInvoker_Int32_t2950945753_RuntimeObject_Int32_t2950945753_Int32_t2950945753_RuntimeObject_Int32_t2950945753_Int32_t2950945753_Int32_t2950945753PFvvEPK10MethodInfoPvPS4_
LYe:_BitConverter_DoubleToInt64Bits_m3574395137
gFf:_DateTime_Parse_m3729096069
uOg:_List_1_System_Collections_IList_Add_m1540114404_gshared
Wic:__Z37Register_UnityEngine_Camera_get_depthv
Fmh:__Z92RuntimeInvoker_RuntimeObject_SByte_t1669577662_SByte_t1669577662_RuntimeObject_RuntimeObjectPFvvEPK10MethodInfoPvPS4_
tue:_StringReader_Read_m3322058819
Btd:_CrossAppDomainChannel_get_ChannelPriority_m3418073750
ZLd:_Selectable_StartColorTween_m3618813981
l5c:_BaseInputModule_HandlePointerExitAndEnter_m1705532066
n2b:__Z23ConvertIntegerToTypePtrItEbPvR14SafeBinaryRead
gOf:_Delegate_CombineImpl_m3572135514
Ize:_NumberFormatter_IntegerToString_m1679294587
yIh:_ReadOnlyCollection_1_System_Collections_IList_RemoveAt_m422909114_gshared
MC:__ZN7mecanim5human29HumanGetGoalOrientationOffsetENS0_4GoalE
Zd:_emscripten_glStencilFunc
BJd:_InputField_get_isFocused_m709836844
ee:_glGetActiveUniformBlockName
Pf:_emscripten_glUniform1fv
$Ii:_Parser_IsIgnoreCase_m2210120858
qlc:__Z39Quaternion_CUSTOM_INTERNAL_CALL_InverseRK11QuaternionfRS_
rJ:__ZN4FMOD7Channel20set3DConeOrientationEP11FMOD_VECTOR
vn:FUNCTION_TABLE_iiifii
iDe:_AssemblyBuilder_not_supported_m1735277432
kEj:__ZN6il2cpp2vm12GenericClass11SetupEventsEP11Il2CppClass
lLc:_tt_delta_interpolate
LIc:_tt_cmap12_get_info
Uzj:__ZN6il2cpp2vm15ReboxIReferenceEP14Il2CppIUnknownP11Il2CppClass
U4i:__ZN6il2cpp6icalls8mscorlib6System7Decimal14decimalCompareEP19il2cpp_decimal_reprS5_
yug:_Dictionary_2_OnDeserialization_m4209543208_gshared
jKj:__ZThn4_N6il2cpp2vm13CachedCCWBaseINS0_13ManagedObjectEE7ReleaseEv
Cfg:_GameObject_AddComponent_m136524825
H$h:__ZL62SoapMethodAttribute_t1935009310_CustomAttributesCacheGeneratorP21CustomAttributesCache
O7g:__Z100RuntimeInvoker_Void_t1185182177_RuntimeObject_Int32_t2950945753_Int32_t2950945753_UInt16_t2177724958PFvvEPK10MethodInfoPvPS4_
P2j:_glCopyTexImage2D__wrapper
kPf:_Double_System_IConvertible_ToUInt32_m271206838
a8:__GLOBAL__sub_I_runtime_graphics_billboard_0_cpp
JJb:__Z18ClearByDrawingQuad13GfxClearFlagsRK10ColorRGBAffjR17ShaderPassContext
NAa:__ZN6prcoreL17RemapGenericFloatI14TexFormatRHalf15TexFormatRFloatEEvPKNS_9InnerInfoE
rEc:_cf2_getBlueValues
jQb:__Z16ShouldUseShadowsb
yea:__ZN15DirectorManager21RebuildStageCallbacksEv
WJb:__ZN19RuntimeSceneManager9LoadSceneERKN4core12basic_stringIcNS0_20StringStorageDefaultIcEEEES6_S6_RK9UnityGUIDiNS_11LoadingModeE
cua:__ZN7ApiGLES10DrawArraysE16GfxPrimitiveTypejjj
NG:__ZN10SampleClip13LoadBaseSoundEv
uUe:_SmallXmlParser_SkipWhitespaces_m4243606597
W6e:_CompareInfo_IndexOf_m2631915198
MDe:_ConstructorBuilder_GetCustomAttributes_m2495332786
E6c:_TriggerEvent__ctor_m87299207
vQ:__Z57AudioSource_CUSTOM_INTERNAL_CALL_ClearExtensionPropertiesP12Il2CppObjectRK12PropertyName
yDj:__ZN15dense_hashtableINSt3__24pairIK10KeyWrapperIP12Il2CppObjectEN6il2cpp2gc9CachedCCWEEES5_NS7_5utils11PointerHashIS3_EEN14dense_hash_mapIS5_S9_SD_NS5_14EqualsComparerINS0_8equal_toIS4_EEEENS0_9allocatorISA_EEE9SelectKeyESI_SK_E15insert_noresizeERKSA_
pAg:_EqualityComparer_1__cctor_m3962593840_gshared
c2a:__ZN22DeviceMVPMatricesStateC2ER9GfxDevice
fn:FUNCTION_TABLE_iifii
P7a:__ZNSt3__26vectorI13dynamic_arrayI8Vector2fLj4EENS_9allocatorIS3_EEE6assignINS_11__wrap_iterIPS3_EEEENS_9enable_ifIXaasr21__is_forward_iteratorIT_EE5valuesr16is_constructibleIS3_NS_15iterator_traitsISC_E9referenceEEE5valueEvE4typeESC_SC_
n5a:__ZN21EnlightenSceneMapping8TransferI14SafeBinaryReadEEvRT_
s4b:__Z13RegisterClassI11SpriteAtlasEvv
iqj:__ZN6il2cpp2vm10Reflection12HasAttributeEP9FieldInfoP11Il2CppClass
Um:FUNCTION_TABLE_iiffi
kc:invoke_viiifi
$od:_MonoProperty_GetCustomAttributes_m3619796755
Ahj:__ZNSt3__214__split_bufferIP11Il2CppClassRNS_9allocatorIS2_EEEC2EjjS5_
Lxd:_MethodDictionary_System_Collections_IEnumerable_GetEnumerator_m4169036899
PMa:__ZNK11AssetBundle14GetPreloadDataEiR13dynamic_arrayIiLj4EE
fjf:_RIPEMD160Managed_JJJ_m4161373884
syg:_DefaultComparer_Equals_m3257444875_gshared
of:_JS_Sound_SetPosition
YZa:__ZN19RenderBufferManager13GetTempBufferEii17DepthBufferFormat19RenderTextureFormatj22RenderTextureReadWrite14VRTextureUsagei23RenderTextureMemoryless
Idj:__ZL13GetSharedInstPK17Il2CppGenericInst
smb:__ZNK2UI13RectTransform23CalculateLocalPosition2Ev
wZc:__ZN22BaseUnityConnectClient17SaveSessionValuesEv
JZd:_InternalEnumerator_1_get_Current_m476140818_gshared
ZVb:__Z24SetupActiveLightsContextR21ActiveLightingContextRK12ActiveLightsRK11CullResultsP14ShadowMapCacheRK10MinMaxAABB
zmc:__Z38Sprite_CUSTOM_INTERNAL_get_textureRectP12Il2CppObjectP5RectTIfE
Woj:__ZNK15dense_hashtableINSt3__24pairIK10KeyWrapperIPK22Il2CppGenericParameterEPK24MonoGenericParameterInfoEES6_N6il2cpp5utils11PointerHashIS4_EEN14dense_hash_mapIS6_SA_SF_NS6_14EqualsComparerINS0_8equal_toIS5_EEEENS0_9allocatorISB_EEE9SelectKeyESK_SM_E3endEv
AUc:__ZN2UI13CanvasManager14RenderOverlaysEi
Jgc:__ZN9TextAsset7SetTextERKN4core12basic_stringIcNS0_20StringStorageDefaultIcEEEE
vTa:__ZN6Camera8TransferI24GenerateTypeTreeTransferEEvRT_
Ha:invoke_iiiiiiif
Ea:invoke_iiiiiiii
Vnh:_Array_InternalArray__set_Item_TisByte_t1134296376_m3104140039_gshared
cmg:_Rect_ToString_m447614148
oBi:_PKCS12_GetBytes_m415958948
oZb:__ZN8Renderer17PendingAddToSceneEv
H6j:b122
K6j:b125
J6j:b124
M6j:b127
L6j:b126
P6j:b129
Qlc:__Z52Register_UnityEngine_RectTransform_INTERNAL_get_rectv
_hg:_Mesh_SetSizedArrayForChannel_m2565120436
L_:__Z21PostprocessStacktracePKcRN4core12basic_stringIcNS1_20StringStorageDefaultIcEEEE
Mgg:_ManagedStreamHelpers_ManagedStreamLength_m2930872960
Cgb:__ZN18StreamedBinaryReadILb0EE21TransferSTLStyleArrayI13dynamic_arrayI16SplashScreenLogoLj4EEEEvRT_17TransferMetaFlags
_zi:_BasicConstraintsExtension_Encode_m2009213240
fjc:__Z47Register_UnityEngine_Camera_get_allCamerasCountv
Ybd:___clang_call_terminate
zZc:__ZN22BaseUnityConnectClient20StartEventDispatcherEv
zec:__ZNSt3__26vectorIj13stl_allocatorIjL18MemLabelIdentifier1ELi16EEE6assignIPKtEENS_9enable_ifIXaasr21__is_forward_iteratorIT_EE5valuesr16is_constructibleIjNS_15iterator_traitsIS9_E9referenceEEE5valueEvE4typeES9_S9_
yB:__ZN7mecanim9animation16EvaluateAvatarIKEPKNS0_14AvatarConstantEPKNS0_11AvatarInputEPNS0_12AvatarOutputEPNS0_12AvatarMemoryEPNS0_15AvatarWorkspaceEb
tCa:__ZL25ProgramUniformMatrix4x3fvPK7ApiGLESjiihPKv
GNb:__ZN12InputManager13InputEndFrameEv
nig:_Object_get_name_m4211327027
pvj:__ZN6il2cpp2vm6Thread5SetupEP12Il2CppThread
rbe:_Enumerator_System_Collections_IDictionaryEnumerator_get_Key_m2500634048_gshared
WUj:___munmap
fg:_localtime_r
POb:__ZN22RenderingCommandBuffer13GetAndCheckRTE24BuiltinRenderTextureTypeRKN9ShaderLab16FastPropertyNameEPKcPP13RenderTexture
Zca:__ZN14GfxDoubleCacheIyP17VertexDeclaration14GfxGenericHashIyENSt3__28equal_toIyEEN31GfxDoubleCacheConcurrencyPolicy11LocklessGetE42GfxDoubleCacheDefaultEmptyDeletedGeneratorIyEEC2Ev
iX:__Z19free_alloc_internalPv10MemLabelId
lUf:_UTF32Decoder_GetChars_m1925558948
ig:_strftime
lFa:__ZN7Texture33SetStoredColorSpaceNoDirtyNoApplyE17TextureColorSpace
erd:_ResourceSet__ctor_m3618395942
RMf:_Decimal_System_IConvertible_ToDouble_m3125524987_AdjustorThunk
L1:__ZN12FileAccessorD2Ev
jXa:__ZN14VertexDataInfoC2Ev
RGj:__ZN6il2cpp2gc16GarbageCollector14CollectALittleEv
icc:__ZNK9HPlayable15GetPlayableTypeEv
jBb:__ZL17Transfer_GUIStyleI18StreamedBinaryReadILb1EELb1EEvRK29SerializationCommandArgumentsR31RuntimeSerializationCommandInfo
pQd:_RectMask2D_IsRaycastLocationValid_m1652308696
ghj:__ZN6il2cpp6icalls8mscorlib6SystemL9IsPrivateEPK12PropertyInfo
Tmg:_RectTransform_add_reapplyDrivenProperties_m1374850920
iaa:__ZN9shadertag10InitializeEv
wQb:__ZN13BatchRenderer20RenderSingleWithPassER17ShaderPassContextPK18SharedMaterialDataP6ShaderPN9ShaderLab4PassEiPKNS7_10GrabPassesEjib15BatchBreakCause
D6a:__ZN15QualitySettings14QualitySetting8TransferI24GenerateTypeTreeTransferEEvRT_
foc:__Z44Register_UnityEngine_Object_DestroyImmediatev
xIf:_Convert_ToSingle_m835189399
Adc:__ZN22BlockMemoryCacheWriter14LockCacheBlockEjPPhS1_
ryc:__Z22TransferField_NonArrayI8JSONRead27Converter_SimpleNativeClassI8GUIStyleEEvRK23StaticTransferFieldInfoR31RuntimeSerializationCommandInfoRT0_
Pg:_llvm_eh_typeid_for
Y4b:__Z13RegisterClassI10GameObjectEvv
eBd:_RemotingServices_FindInterfaceMethod_m2125212568
Az:__ZNK23AnimationPlayableOutput7GetTypeEv
Yte:_StreamWriter__cctor_m1229272693
UPf:_Enum_System_IConvertible_ToSByte_m779472798
VYf:_Type_get_IsInterface_m3284996719
xDb:__Z18Transfer_BlittableI18StreamedBinaryReadILb0EELb1E8Vector4fEvRK29SerializationCommandArgumentsR31RuntimeSerializationCommandInfo
dyg:_Dictionary_2_U3CCopyToU3Em__0_m2023886030_gshared
l5j:_glBindVertexArray__wrapper
$Cd:_SerializationInfo__ctor_m2923079689
F0a:__ZN8Material8TransferI14SafeBinaryReadEEvRT_
Q2a:__ZN12CubemapArray17UploadToGfxDeviceEv
Mbf:_Int32_JumpOverWhite_m208298144
Wxi:_X509CertificateCollection_get_Item_m3285563224
$hh:__Z53RuntimeInvoker_Int32_t2950945753_UIVertex_t4057497605PFvvEPK10MethodInfoPvPS4_
m4j:_emscripten_glGetUniformiv__wrapper
cKj:__ZN6il2cpp2vm13ManagedObject14QueryInterfaceERK10Il2CppGuidPPv
jH:__ZN11AudioSource4StopEb
dtb:__ZN14SafeBinaryRead21TransferSTLStyleArrayI13dynamic_arrayI10Matrix4x4fLj4EEEEvRT_17TransferMetaFlags
hUa:__ZN15LODGroupManager26CollectAllLODGroupManagersERK16CoreCameraValuesR13dynamic_arrayIPS_Lj4EEb
MHa:__ZN18GlslGpuProgramGLESD2Ev
F$b:__ZN13RenderTexture14SetVolumeDepthEi
ES:__ZN11UnityEngine15CloudWebService14DataErrorEvent12ToJsonStringERN4core12basic_stringIcNS2_20StringStorageDefaultIcEEEEjPKc
e7g:__Z86RuntimeInvoker_Void_t1185182177_UInt16_t2177724958_SByte_t1669577662_SByte_t1669577662PFvvEPK10MethodInfoPvPS4_
ena:__Z22LoadGpuProgramFromDataPKhS0_Rj
Xyc:__ZN10Matrix4x4f8TransferI8JSONReadEEvRT_
vNc:__ZN14SafeBinaryRead21TransferSTLStyleArrayI13dynamic_arrayIN4core17string_with_labelILi35EEELj4EEEEvRT_17TransferMetaFlags
_Pd:_PositionAsUV1_ModifyMesh_m4231919476
H3e:_Hashtable__ctor_m1941859523
QSd:_ScrollRect_set_horizontalScrollbarSpacing_m2209919081
hZ:__ZN17PersistentManager18ReadObjectThreadedEi
DEa:__ZN25TransformFeedbackSkinning31CleanupTransformFeedbackShadersEv
XTa:__Z22scripting_object_unbox18ScriptingObjectPtr
BOc:__ZNK20TextRenderingPrivate8FontImpl19GetCharacterAdvanceEjijfPj
sAf:_Array_InternalArray__ICollection_Add_TisUriScheme_t722425697_m3142345403_gshared
tTj:_fmt_u
q8a:__ZN10VertexData8TransferI18StreamedBinaryReadILb0EEEEvRT_
tSj:__ZN6il2cpp8metadata25Il2CppGenericClassCompare7CompareEPK18Il2CppGenericClassS4_
yUc:__ZN2UI29ResetVRScreenSpaceWarningFlagEv
cye:_MonoType_get_Assembly_m4290914179
HSe:_Array_Reverse_m816310962
R$b:__ZN14PreloadManager16UpdatePreloadingEv
Erf:_String_LastIndexOf_m95398196
Roh:_Array_InternalArray__set_Item_TisUILineInfo_t4195266810_m2313892078_gshared
Jjg:_PlayableAsset__ctor_m2395156306
Oij:__ZN6il2cpp2os4File4ReadEPNS0_10FileHandleEPciPi
hW:__ZNK21UnityDefaultAllocatorI17LowLevelAllocatorE8ContainsEPKv
NEd:_RuntimeTypeHandle_Equals_m2857439487
Zh:_emscripten_get_main_loop_timing
Bsd:_SafeHandle_Finalize_m3866180675
C6a:__ZN24GenerateTypeTreeTransfer21TransferSTLStyleArrayINSt3__26vectorIN15QualitySettings14QualitySettingENS1_9allocatorIS4_EEEEEEvRT_17TransferMetaFlags
Jhf:_MemoryStream_ToArray_m3911744835
Sae:_Enumerator_System_Collections_IDictionaryEnumerator_get_Entry_m859540448_AdjustorThunk
xZf:_Type_GetHashCode_m1947148725
$2g:__Z91RuntimeInvoker_Void_t1185182177_RuntimeObject_RuntimeObject_RuntimeObject_SByte_t1669577662PFvvEPK10MethodInfoPvPS4_
Plb:__ZNK2UI13RectTransform22GetTypeVirtualInternalEv
pp:getTempRet0
F5c:_BaseRaycaster_OnEnable_m2678466030
cae:_Enumerator_get_CurrentKey_m627428048_AdjustorThunk
Qeg:_UnityEventBase__ctor_m1851535676
Wqh:_Array_Sort_TisVector4_t3319028937_m2797285308_gshared
yve:_UnexceptionalStreamWriter_Write_m1834931241
Nwj:__ZN6il2cpp6icalls8mscorlib6System9ThreadingL21lookup_cached_cultureEP12Il2CppThreadi
leg:_NetFxCoreExtensions_CreateDelegate_m751211712
QWb:__ZN18DeferredRenderLoopD2Ev
b4i:_AnimationLayerMixerPlayable__cctor_m4086299972
W2:__ZNK16TypeTreeIterator4NameEv
j1:__ZN15FileSystemEntry3SetEPKc
FDe:_ConstructorBuilder_Invoke_m3010446651
yKe:_IPv6Address_set_ScopeId_m3907190992
wFh:_ReadOnlyCollection_1_System_Collections_Generic_IListU3CTU3E_Insert_m568455025_gshared
aJ:__ZN20SoundChannelInstance15ParameterBuffer5ApplyEPN4FMOD7ChannelE
mKe:_IPv6Address__ctor_m4117281080
yOc:__ZN20TextRenderingPrivate19NativeTextGenerator9InsertTabEv
LXj:_sbrk
Zbh:__Z66RuntimeInvoker_Boolean_t97287965_Vector2_t2156229523_RuntimeObjectPFvvEPK10MethodInfoPvPS4_
FIg:_Enumerator_VerifyState_m3474272061_AdjustorThunk
Ji:_glIsEnabled
nDe:_DerivedType__ctor_m1853298054
Urb:__Z25scripting_class_get_image17ScriptingClassPtr
Fof:_SecurityException__ctor_m836898292
mLg:_List_1_RemoveAt_m2730968292_gshared
jib:__ZNSt3__26vectorIN4core12basic_stringIcNS1_20StringStorageDefaultIcEEEE13stl_allocatorIS5_L18MemLabelIdentifier13ELi16EEEC2INS_11__wrap_iterIPS5_EEEET_SE_RKS8_PNS_9enable_ifIXaasr21__is_forward_iteratorISE_EE5valuesr16is_constructibleIS5_NS_15iterator_traitsISE_E9referenceEEE5valueEvE4typeE
Ni:_emscripten_glDrawElementsInstanced
ly:__ZN26AnimatorControllerPlayable27SetupStateMachineBehavioursEv
lNd:_LayoutGroup_get_preferredWidth_m3816902260
fYa:__ZN18JobBatchDispatcherD2Ev
Klb:__ZN9Transform17MainThreadCleanupEv
UMj:_GC_clear_hdr_marks
h6j:_emscripten_glCreateShader__wrapper
ICc:_cff_fd_select_get
YVd:_Text_set_resizeTextForBestFit_m4095249125
vMe:_OidEnumerator_MoveNext_m3138911739
Yi:_emscripten_glGetShaderiv
aK:__ZN4FMOD6System10getVersionEPj
KRc:__ZN2UI6Canvas23VirtualRedirectTransferER24GenerateTypeTreeTransfer
fUd:_Selectable_set_animationTriggers_m2970345687
zwc:__ZN9JSONWrite8TransferIN4math12int2_storageEEEvRT_PKc17TransferMetaFlags
hNc:__ZN13TextRendering4Font13AwakeFromLoadE17AwakeFromLoadMode
qqa:__ZN9GfxDevice21ReleaseSharedMeshDataEP14SharedMeshData
v8c:_MouseState__ctor_m1467839005
RJi:_Uri_IsDomainAddress_m2867513594
sfb:__ZNSt3__27__sort5IRNS_6__lessINS_4pairIPKN5Unity4TypeE7Hash128EES8_EEPS8_EEjT0_SC_SC_SC_SC_T_
yfd:_Dropdown_CreateItem_m2954407740
$Lj:_GC_unreachable_finalize_mark_proc
SNe:_X509Chain_ProcessCrlExtensions_m236234529
xNj:_maybe_finalize
x8i:__ZN6il2cpp2vm5Class40GetInterfaceInvokeDataFromVTableSlowPathEPK12Il2CppObjectPK11Il2CppClassj
Myf:_Array_InternalArray__IndexOf_TisLabelData_t360167391_m1826525656_gshared
Ilc:__Z43RectTransform_CUSTOM_INTERNAL_get_anchorMaxP12Il2CppObjectP13Vector2fIcall
S1i:_TextGenerator_INTERNAL_CALL_Populate_Internal_cpp_m4171649399
OAd:_RemotingConfiguration_RegisterChannelTemplate_m3105688054
kGf:_Decimal_Parse_m942471224
Z4a:__ZN8Material28UpdateHashesOnPropertyChangeEN9ShaderLab16FastPropertyNameE
NXh:__ZL56MethodBuilder_t2807316753_CustomAttributesCacheGeneratorP21CustomAttributesCache
qmc:__Z53Register_UnityEngine_SortingLayer_GetLayerValueFromIDv
Mqb:__Z18Transfer_BlittableI14SafeBinaryReadLb1E8Vector4fEvRK29SerializationCommandArgumentsR31RuntimeSerializationCommandInfo
lM:__ZN11AudioSource12AddToManagerEv
Xs:__ZN8Animator23VirtualRedirectTransferER19StreamedBinaryWriteILb0EE
Wz:__ZN11UnityEngine9Animation32CreateAnimatorGenericBindingsOptERKNS0_20AnimationSetBindingsER9TransformPKN7mecanim9animation14AvatarConstantEPKNS0_21AvatarBindingConstantEbRNS6_6memory9AllocatorER8Animator
PAj:__ZN6il2cpp2vm5Image13ClassFromNameEPK11Il2CppImagePKcS6_
oYj:dynCall_vdddddd
Rka:__ZN24GenerateTypeTreeTransfer21TransferSTLStyleArrayINSt3__26vectorIN9ShaderLab14SerializedPassENS1_9allocatorIS4_EEEEEEvRT_17TransferMetaFlags
Iaa:__ZL32MarkLevelGameManagerDependenciesR27GarbageCollectorThreadState
Osa:__ZNK13GfxDeviceGLES26HasActiveRandomWriteTargetEv
fvj:__GLOBAL__sub_I_Thread_cpp
pUh:__ZL54_MemberInfo_t3922476713_CustomAttributesCacheGeneratorP21CustomAttributesCache
a1j:_glGetActiveUniformsiv__wrapper
R0a:__ZN14SafeBinaryRead8TransferINSt3__24pairIN9ShaderLab16FastPropertyNameE10ColorRGBAfEEEEvRT_PKc17TransferMetaFlags
rig:_Mesh_GetIndices_m2873123901
v_:__ZN13MonoBehaviour19SetupScriptingCacheE17ScriptingClassPtrP10MonoScript
ls:__Z20AnimationEventToMonoRK14AnimationEventR18MonoAnimationEvent
seh:__Z106RuntimeInvoker_Void_t1185182177_Single_t1397266774_Single_t1397266774_Single_t1397266774_Int32_t2950945753PFvvEPK10MethodInfoPvPS4_
NZ:__ZN17PersistentManager29ReadAndActivateObjectThreadedEiRK26SerializedObjectIdentifierP14SerializedFilebb
j8c:_PointerEventData_get_dragging_m746831934
fLh:_ReadOnlyCollection_1_System_Collections_IEnumerable_GetEnumerator_m2781605075_gshared
lea:__ZZN15DirectorManager15InitializeClassEvEN52PreLateUpdateDirectorUpdateAnimationBeginRegistrator7ForwardEv
ctf:_Array_get_swapper_TisCustomAttributeNamedArgument_t287865710_m4254011335_gshared
Dhd:_Graphic_RegisterDirtyMaterialCallback_m106898453
mRi:_GUILayoutEntry_get_margin_m3174861737
rAj:__ZNK15dense_hashtableINSt3__24pairIK10KeyWrapperINS1_IPKcS4_EEEiEES6_24NamespaceAndNamePairHashN14dense_hash_mapIS6_iS9_NS6_14EqualsComparerI26NamespaceAndNamePairEqualsEENS0_9allocatorIS8_EEE9SelectKeyESD_SF_E13find_positionERS7_
hka:__ZNSt3__26vectorIN9ShaderLab14SerializedPassENS_9allocatorIS2_EEE8__appendEj
sja:__ZNSt3__26vectorIN9ShaderLab20SerializedSubProgram13BufferBindingENS_9allocatorIS3_EEEC2INS_11__wrap_iterIPS3_EEEET_SB_RKS5_PNS_9enable_ifIXaasr21__is_forward_iteratorISB_EE5valuesr16is_constructibleIS3_NS_15iterator_traitsISB_E9referenceEEE5valueEvE4typeE
iSf:_Encoding_get_ISOLatin1_m2107621369
vje:_BigInteger_op_Inequality_m2697143438
Bdi:__ZL89Mathf_t3464937446_CustomAttributesCacheGenerator_Mathf_SmoothDamp_m394423605____maxSpeed4P21CustomAttributesCache
G4a:__ZN9Texture2D23VirtualRedirectTransferER18StreamedBinaryReadILb0EE
kKf:_DateTime_System_IConvertible_ToDouble_m2116720007_AdjustorThunk
u2e:_BitArrayEnumerator__ctor_m2359341397
_Gg:_Enumerator_MoveNext_m1177880931_gshared
Sii:__ZL73g_UnityEngine_TextRenderingModule_Assembly_CustomAttributesCacheGeneratorP21CustomAttributesCache
S$:__ZN16ScriptingManager27NativeTypeForScriptingClassE17ScriptingClassPtr
g0f:_UInt64_System_IConvertible_ToDateTime_m3434604642
dZf:_Type_get_IsSerializable_m1040556850
wHc:_get_sfnt_table
jYb:__ZL22ScheduleSceneNodesJobsP25ScheduleSceneNodesJobDataj
Rk:_emscripten_set_canvas_size
Ggd:_Graphic_SetVerticesDirty_m2124914069
d7e:_CultureInfo__ctor_m3285927757
aPd:_MaskableGraphic_get_rootCanvasRect_m3492154629
Nph:_Array_Resize_TisRaycastResult_t3360306849_m1811054291_gshared
Nja:__ZNSt3__26vectorIN9ShaderLab20SerializedSubProgramENS_9allocatorIS2_EEE8__appendEj
RW:__ZN20DynamicHeapAllocatorI17LowLevelAllocatorE8AllocateEji
KXc:__ZN11UnityEngine9Analytics15UserCustomEvent12ToJsonStringER9JSONWrite
KSi:_Locale_GetText_m2427493201
bRb:__ZN20DynamicPropertySheet15SetVectorQueuedERKN9ShaderLab16FastPropertyNameERK8Vector4fN19ShaderPropertySheet8SetFlagsE
JA:__ZN7mecanim9animation22EvaluateAvatarRetargetEPKNS0_14AvatarConstantEPKNS0_11AvatarInputEPNS0_12AvatarOutputEPNS0_12AvatarMemoryEPNS0_15AvatarWorkspaceEb
QYa:__ZN14RenderSettings23VirtualRedirectTransferER19StreamedBinaryWriteILb0EE
Yuc:__ZL26Transfer_SimpleNativeClassI9JSONWrite10RectOffsetLb0EEvRK29SerializationCommandArgumentsR31RuntimeSerializationCommandInfo
tMj:_GC_push_conditional
XXc:__ZN21UnityAnalyticsManager23VirtualRedirectTransferER24GenerateTypeTreeTransfer
Rwa:__ZN17GenericDynamicVBO10AllocateVBEjR21DynamicVBOChunkHandle
tMf:_DBNull_ToString_m3638608738
SBj:__ZN30dense_hashtable_const_iteratorI10KeyWrapperIP18Il2CppGenericClassES3_N6il2cpp8metadata22Il2CppGenericClassHashEN14dense_hash_setIS3_S6_NS3_14EqualsComparerINS5_25Il2CppGenericClassCompareEEENSt3__29allocatorIS3_EEE8IdentityESA_SD_EppEv
r2e:_BitArray_Clone_m3537018332
DCd:_ObjectRecord_UnchainFixup_m3191243952
vzi:_TlsStream_get_CanWrite_m16389328
ol:_glMapBufferRange
y4a:__ZN9Texture2D8TransferI18StreamedBinaryReadILb0EEEEvRT_
Mkc:__Z31Input_CUSTOM_GetMouseButtonDowni
qcc:__ZN13PlayableGraph4PlayEv
Lbc:__Z29AddCanvasIntermediateRendererPN2UI6CanvasEPNS_13CanvasBuffersEP17VertexDeclarationjRK10Matrix4x4ftRK4AABB4PPtrI8MaterialEi17ShadowCastingModebP6Camerab
Vrf:_String_Format_m3339413201
fye:_MonoType_get_BaseType_m1098640416
gMa:__ZN13LoadOperation19IntegrateTimeSlicedEi
Ozi:_TlsStream_Read_m3392972801
Zsa:__ZN13GfxDeviceGLES22DispatchComputeProgramE12ObjectHandleI18ComputeProgram_TagPvE15ComputeBufferIDj
bng:_Transform_get_localToWorldMatrix_m4155710351
RSf:_Latin1Encoding_GetString_m254210343
Ojb:__Z17TransformAABBSlowRK4AABBRK10Matrix4x4fRS_
FXe:_Array_combsort_m4052486289
XK:__ZN24AudioScriptBufferManager27InitialCompleteDomainReloadEv
iia:__ZN9ShaderLab21SerializedShaderState8TransferI14SafeBinaryReadEEvRT_
E4e:_Environment_GetWindowsFolderPath_m1738399646
JDc:_cf2_stack_pushInt
Qmd:_Module_GetCustomAttributes_m76573271
hGd:_CryptoConfig_EncodeOID_m2635914623
Tka:__ZN15SerializeTraitsINSt3__24pairIN4core12basic_stringIcNS2_20StringStorageDefaultIcEEEES6_EEE8TransferI24GenerateTypeTreeTransferEEvRS7_RT_
w3j:b89
v3j:b88
V2j:b81
U2j:b80
wFa:__ZN7ApiGLES19CreateSparseTextureEjj14GraphicsFormatiiiiRiS1_S1_
C0:__ZN18ResourceImageGroup7CleanupEv
j3j:b85
i3j:b84
u3j:b87
t3j:b86
Ayd:_RemotingSurrogateSelector_GetSurrogate_m3900875713
bne:_CertificateValidationCallback_Invoke_m1014111289
OZa:__ZN8Playable19SetOutputConnectionEPS_i
_8i:__ZN15dense_hashtableINSt3__24pairIK10KeyWrapperIPK11Il2CppClassEPKcEES6_N6il2cpp5utils11PointerHashIS3_EEN14dense_hash_mapIS6_S9_SE_NS6_14EqualsComparerINS0_8equal_toIS5_EEEENS0_9allocatorISA_EEE9SelectKeyESJ_SL_EC2ERKSO_j
cm:_glDeleteShader
VAa:__ZN6prcoreL17RemapGenericFloatI15TexFormatRGHalf16TexFormatRGFloatEEvPKNS_9InnerInfoE
Hqh:_Array_Sort_TisUICharInfo_t75501106_m128665067_gshared
aGc:_otv_GSUB_validate
gkf:_RSAPKCS1SignatureDeformatter_SetHashAlgorithm_m1602190713
MPf:_Enum_System_IConvertible_ToByte_m1219166845
nug:_Dictionary_2_CopyToCheck_m45332585_gshared
Pgc:__Z27scripting_add_internal_callPKcPKv
Cpj:__ZN13Il2CppHashMapINSt3__24pairIPK9EventInfoP11Il2CppClassEEj17ReflectionMapHashIS7_ENS0_8equal_toIS7_EENS0_9allocatorINS1_IK10KeyWrapperIS7_EjEEEEEC2EjRKS9_RKSB_
_ae:_Enumerator_MoveNext_m1556953412_AdjustorThunk
st:__ZN26AnimatorControllerPlayable18SetLayerAutoWeightEv
bXc:__Z44Register_UnityEngine_Canvas_get_pixelPerfectv
QIi:_Literal_GetAnchorInfo_m810577400
kUc:__ZN2UI14CanvasRenderer12SyncMaterialENS0_8SyncFlagE
jue:_StreamWriter_Write_m1660535366
rQj:__ZN6il2cpp2vm9Parameter30GetDefaultParameterValueObjectEPK10MethodInfoPK13ParameterInfoPb
KUf:_UTF8Encoding_GetByteCount_m4152118078
v7f:_KeyPairPersistence__CanSecure_m3516574278
K3g:__Z95RuntimeInvoker_Void_t1185182177_RuntimeObject_RuntimeObject_Int32_t2950945753_SByte_t1669577662PFvvEPK10MethodInfoPvPS4_
HId:_MD5CryptoServiceProvider_Dispose_m3502499818
szh:_Collection_1_System_Collections_IList_get_Item_m2422562729_gshared
jIc:_UNITY_tt_face_done_kern
pXd:_ArrayReadOnlyList_1_RemoveAt_m2104218585_gshared
rbb:__ZN12BoneWeights48TransferI24GenerateTypeTreeTransferEEvRT_
FIb:__Z19scripting_gc_enablev
B4d:_InternalEnumerator_1_get_Current_m2907722321_gshared
NMb:__ZZ23InitPlayerLoopCallbacksvEN41InitializationPlayerUpdateTimeRegistrator7ForwardEv
zgc:__ZN11UTF16StringC2ERKS_10MemLabelId
M5d:_InternalEnumerator_1_get_Current_m3792939945_AdjustorThunk
cWc:__Z55Register_UnityEngine_CanvasRenderer_DisableRectClippingv
Sab:__ZN14SafeBinaryRead21TransferSTLStyleArrayI13dynamic_arrayI11ColorRGBA32Lj4EEEEvRT_17TransferMetaFlags
Hwb:__ZL26Transfer_SimpleNativeClassI24GenerateTypeTreeTransfer8GradientLb0EEvRK29SerializationCommandArgumentsR31RuntimeSerializationCommandInfo
q$d:_InternalEnumerator_1_System_Collections_IEnumerator_get_Current_m888718134_gshared
E$g:__Z175RuntimeInvoker_Void_t1185182177_SByte_t1669577662_SByte_t1669577662_SByte_t1669577662_SByte_t1669577662_SByte_t1669577662_SByte_t1669577662_SByte_t1669577662_SByte_t1669577662PFvvEPK10MethodInfoPvPS4_
ejg:_Object_Destroy_m3118546832
YEh:_ReadOnlyCollection_1_System_Collections_Generic_IListU3CTU3E_set_Item_m519295790_gshared
IKf:_DateTime_FromTicks_m4059645178_AdjustorThunk
rud:_ConfigHandler_ParseTime_m1787834288
GBe:_Assembly_Load_m3487507613
IXa:__ZNSt3__27__sort4IRNS_6__lessIN4core12basic_stringIcNS2_20StringStorageDefaultIcEEEES6_EEPS6_EEjT0_SA_SA_SA_T_
VYj:dynCall_viiiifii
eoj:__ZN6il2cpp2gc19AppendOnlyGCHashMapINSt3__24pairIPK11Il2CppImageP11Il2CppClassEEP22Il2CppReflectionModule17ReflectionMapHashIS9_ENS2_8equal_toIS9_EEEC2Ev
eZ:__Z20GetPersistentManagerv
zLc:_UNITY_TT_Set_Var_Design
y8:__ZN21SystemInfoStringCache16StaticInitializeEPv
xFh:_ReadOnlyCollection_1_System_Collections_Generic_ICollectionU3CTU3E_Remove_m1100818788_gshared
mja:__ZNSt3__26vectorIN9ShaderLab20SerializedSubProgram15StructParameterENS_9allocatorIS3_EEE6assignIPS3_EENS_9enable_ifIXaasr21__is_forward_iteratorIT_EE5valuesr16is_constructibleIS3_NS_15iterator_traitsISA_E9referenceEEE5valueEvE4typeESA_SA_
cEh:_Collection_1_IsSynchronized_m2291009199_gshared
UFb:__ZNK13MonoBehaviour7GetNameEv
Skb:__ZN19ScriptingInvocation28AdjustArgumentsToMatchMethodEv
COi:_IndexedSet_1_Contains_m1525966688_gshared
MG:__Z15_CheckFMODError11FMOD_RESULTPKciS1_
Zvj:__ZN6il2cpp6icalls8mscorlib6SystemL16ThrowInvalidCastEPK11Il2CppClassS5_
pWa:__Z20RenderMultipleMeshesRK15RenderNodeQueueRK18RenderMultipleData17ShaderChannelMask
H1c:__ZN11UnityEngine15PlatformWrapper20GetPlayerPrefsStringERKN4core12basic_stringIcNS1_20StringStorageDefaultIcEEEES5_
YOd:_MaskableGraphic_get_maskable_m1260382606
lSf:_Latin1Encoding__ctor_m498920120
orj:__ZN6il2cpp2vm4Type19GetGenericParameterEPK10Il2CppType
Nif:_StreamReader_Peek_m2272511193
w8e:_DateTimeFormatInfo_FillAllDateTimePatterns_m2683124783
DVc:__Z51Register_UnityEngine_CanvasGroup_get_blocksRaycastsv
vze:_NumberFormatter_get_IsFloatingSource_m3714711779
NZf:_Type_GetConstructor_m1195697116
xd:_glBeginQuery
GWh:__ZL104RegionInfo_t1090270226_CustomAttributesCacheGenerator_RegionInfo_t1090270226____DisplayName_PropertyInfoP21CustomAttributesCache
w2i:_Canvas_get_scaleFactor_m3314757802
pOb:__ZN6Camera12RenderStereoENS_10RenderFlagE8CullFlagPNS_24PerformEyeRenderFunctionE
Wnb:__ZN20LocalFileSystemPosix10ToAbsoluteEPKc
cWa:__ZN20TierGraphicsSettings8TransferI19StreamedBinaryWriteILb0EEEEvRT_
w6j:b111
d8:__GLOBAL__sub_I_runtime_input_0_cpp
uJj:__ZN6il2cpp2vm13ComObjectBase16DisconnectObjectEj
Jm:f0
tUj:_getcwd
rLa:__ZN25ThreadsafeLinearAllocatorD2Ev
djb:__Z21SendMessageToEveryoneRK17MessageIdentifier11MessageData
Tca:__ZN21BillboardBatchManager16StaticInitializeEPv
PFf:_DateTime_AbsoluteDays_m4235097773
L9:__ZN12_GLOBAL__N_138ArchiveRedirectFileSystemStaticDestroyEPv
QWg:__Z74RuntimeInvoker_RuntimeObject_RuntimeObject_RuntimeObject_SByte_t1669577662PFvvEPK10MethodInfoPvPS4_
zed:_DefaultControls_CreateScrollView_m3842770629
N2a:__ZN12CubemapArray34UpdateFileTextureUploadInstructionEP26FileAssetUploadInstructionj
vFa:__Z23CreateSparseTextureGLES9TextureIDii14GraphicsFormati
IGc:_otv_Anchor_validate
waf:_Guid_CompareTo_m243656946_AdjustorThunk
Y5e:_CCMath_mod_m3631663509
nYf:_TimeSpan_Negate_m1889505500_AdjustorThunk
UIh:_ReadOnlyCollection_1_System_Collections_ICollection_CopyTo_m2715087453_gshared
hPc:__ZNSt3__23mapIN20TextRenderingPrivate7FontRefEP11FT_FaceRec_NS_4lessIS2_EENS_9allocatorINS_4pairIKS2_S4_EEEEEixERS9_
ONa:__ZN17ArchiveFileSystem10AddStorageEP20ArchiveStorageReader
tsj:_il2cpp_class_get_assemblyname
$6i:__ZN6il2cpp2vm5Class15GetEnumBaseTypeEP11Il2CppClass
oqe:_Context_set_WriteSequenceNumber_m942577065
ae:_glVertexAttrib4fv
NJj:__ZNK6il2cpp5utils13VmStringUtils23CaseInsensitiveComparerclERKNSt3__212basic_stringIcNS3_11char_traitsIcEENS3_9allocatorIcEEEEPKc
Ebd:_CanvasScaler_SetScaleFactor_m3006968999
dmh:__Z78RuntimeInvoker_Boolean_t97287965_Navigation_t3049316579_Navigation_t3049316579PFvvEPK10MethodInfoPvPS4_
P3a:__ZNK9Texture2D16GetNpotTexelSizeEv
jze:_NumberFormatter_Init_m3576155222
kNa:__ZL33FileEntryInfoListToFolderContentsRKN4core12basic_stringIcNS_20StringStorageDefaultIcEEEERK19dynamic_block_arrayI13FileEntryInfoLj32EERNSt3__23setIS3_NSB_4lessIS3_EENSB_9allocatorIS3_EEEE
U0e:_ArrayListWrapper_IndexOf_m3692065720
eqa:__ZN9GfxDevice22GetDefaultVertexBufferE26GfxDefaultVertexBufferTypej
Itf:_Array_InternalArray__ICollection_Contains_TisInt64_t3736567304_m2911357929_gshared
Fzh:_Collection_1_Remove_m3022471627_gshared
KUj:___fseeko_unlocked
KAe:_Object_ToString_m1740002499
CUj:_sscanf
k7c:_ExecuteEvents_GetEventChain_m2404658789
LJb:__Z17BeginSplashScreenv
Rph:_Array_Resize_TisUILineInfo_t4195266810_m3763058392_gshared
DFd:_SByte_ToString_m3584531119_AdjustorThunk
Kla:__ZN9ShaderLab16SerializedShader8TransferI19StreamedBinaryWriteILb0EEEEvRT_
qVi:_TrackableProperty_GetHashCode_m3407865350
dD:__ZN7mecanim9animation18CreateAvatarMemoryEPKNS0_14AvatarConstantERNS_6memory9AllocatorE
Vie:_ModulusRing__ctor_m2420310199
UFf:_Convert_ToDateTime_m626620011
tbe:_Enumerator_System_Collections_IDictionaryEnumerator_get_Key_m2500634048_AdjustorThunk
SB:__ZN7mecanim8skeleton16SkeletonPoseCopyIN4math4trsXENS2_7affineXEEEvPKNS0_13SkeletonPoseTIT_EEPNS5_IT0_EE
zwa:__ZN18GfxFramebufferGLES18GetFramebufferNameERK20GfxRenderTargetSetup
Dqj:__ZN6il2cpp2vm14TypeNameParser12ParseVersionERKNSt3__212basic_stringIcNS2_11char_traitsIcEENS2_9allocatorIcEEEERtSB_SB_SB_
zLd:_InputField_MoveDown_m1455948167
krc:__Z30Event_Get_Custom_PropCharacterP12Il2CppObject
Hea:__ZN13PlayableGraph27SchedulePlayableDestructionERK9HPlayable
TFc:_cff_get_mm_var
c0j:_glGetFramebufferAttachmentParameteriv__wrapper
ktd:_ChannelServices_GetCurrentChannelInfo_m3041604116
a2c:__Z13RegisterClassI20UnityConnectSettingsEvv
Rrb:__Z22scripting_array_length17ScriptingArrayPtr
zue:_SynchronizedReader_Peek_m148942882
y_g:__Z95RuntimeInvoker_Void_t1185182177_RuntimeObject_Int32_t2950945753_Int32_t2950945753_RuntimeObjectPFvvEPK10MethodInfoPvPS4_
_2a:__ZN14SafeBinaryRead20TransferTypelessDataEjPvi
fdb:__ZN14SpriteRenderer18UpdateCachedSpriteEb
GN:__ZN13dynamic_arrayI12SoundChannelLj4EE9push_backERKS0_
n5:__Z19GetActiveColorSpacev
LHc:_UNITY_tt_face_load_kern
knd:_MonoMethodInfo_GetDeclaringType_m2924452727
XKb:__ZN13sorted_vectorINSt3__24pairIiN17InstancingBatcher12PropertyTypeEEEN10vector_mapIiS3_NS0_4lessIiEE13stl_allocatorIS4_L18MemLabelIdentifier1ELi16EEE13value_compareESA_E21sort_clear_duplicatesEv
P$:__Z6StrCmpPKcS0_
_na:__Z21CheckGpuProgramUsable20ShaderGpuProgramType
w7b:__ZN13ProduceHelperI14Texture2DArrayLb0EE7ProduceE10MemLabelId18ObjectCreationMode
uGj:__ZN6il2cpp2os9Directory20GetFileSystemEntriesERKNSt3__212basic_stringIcNS2_11char_traitsIcEENS2_9allocatorIcEEEESA_iiPi
rWe:_Array_System_Collections_IList_Add_m1063688101
Hsi:__ZL66Navigation_t3049316579_CustomAttributesCacheGenerator_m_SelectOnUpP21CustomAttributesCache
qOc:__ZN20TextRenderingPrivate19NativeTextGenerator5SetupEv
xVb:__ZNK15SharedLightData24GetFinalShadowResolutionEv
zgb:__ZN12AspectRatios8TransferI18StreamedBinaryReadILb0EEEEvRT_
Ebc:__ZN10GameObject14CopyPropertiesERS_
_rc:__Z44Register_UnityEngine_GUIStyle_get_fixedWidthv
Fuf:_Array_InternalArray__ICollection_Remove_TisLink_t544317964_m1280781374_gshared
JYe:_BitConverter_DoubleWordsAreSwapped_m1474345095
q7a:__ZNK13ScreenManager12IsFullScreenEv
l1e:_FixedSizeArrayListWrapper_set_Capacity_m4221053039
dVj:_rand
G0j:_emscripten_glFramebufferRenderbuffer__wrapper
Lec:__ZN13MeshScripting10CreateMeshE21ScriptingObjectOfTypeI4MeshE
Nsb:__ZN14SafeBinaryRead21TransferSTLStyleArrayINSt3__26vectorI17AnimationCurveTplIfE13stl_allocatorIS4_L18MemLabelIdentifier1ELi16EEEEEEvRT_17TransferMetaFlags
Q1e:_SynchronizedArrayListWrapper_Contains_m3809499313
Suf:_Array_InternalArray__ICollection_Remove_TisLabelData_t360167391_m3556246844_gshared
fId:_HMACSHA256__ctor_m346174875
Qbg:_Color_op_Multiply_m2887457390
UXb:__Z22PrepareOptimizedPlanesPK5PlaneiPKN4math7_float4E
EV:__ZN11UnityEngine15CloudWebService17WebFileDownloaderINS0_20WebRequestRestClientENS0_23WebRequestRestHeaderMapEE10InitializeERKN4core12basic_stringIcNS5_20StringStorageDefaultIcEEEE
Rca:__ZN17UniqueIDGenerator15CreatePureIndexEv
Ir:__ZN11UnityEngine9Animation28GenericAnimationBindingCache15DidReloadDomainEv
F6b:__Z48InitializeRectTransformAnimationBindingInterfacev
udb:__Z23PrepareSpriteTilingDataP14SharedMeshData8Vector2f14SpriteDrawModebfPK6SpriteR19SpriteTilingJobData
phb:__ZNSt3__26vectorIN15ResourceManager10DependencyE13stl_allocatorIS2_L18MemLabelIdentifier52ELi16EEE6assignINS_11__wrap_iterIPS2_EEEENS_9enable_ifIXaasr21__is_forward_iteratorIT_EE5valuesr16is_constructibleIS2_NS_15iterator_traitsISC_E9referenceEEE5valueEvE4typeESC_SC_
o6i:__ZN15dense_hashtableINSt3__24pairIK10KeyWrapperIPK22Il2CppGenericParameterEP11Il2CppClassEES6_N6il2cpp5utils11PointerHashIS4_EEN14dense_hash_mapIS6_S9_SE_NS6_14EqualsComparerINS0_8equal_toIS5_EEEENS0_9allocatorISA_EEE9SelectKeyESJ_SL_E14squash_deletedEv
U$a:__ZN9ShaderLabL27GetDesiredRenderTextureDescEPK6Camera
wnh:_Array_InternalArray__Insert_TisMark_t3471605523_m2854535880_gshared
kza:__ZN6prcoreL29inner_stretch_rgb565_bilinearEPKNS_9InnerInfoE
upc:__Z14GUIClipTextureP9Texture2DPhiiii
hyd:_MethodReturnDictionary__cctor_m278392388
OY:__ZNK9Transform18TransformDirectionERK8Vector3f
zyi:_SslStreamBase_get_CanWrite_m1622082918
nui:__ZL80CanvasScaler_t2767979955_CustomAttributesCacheGenerator_m_ReferencePixelsPerUnitP21CustomAttributesCache
tGc:_otv_MarkLigPos_validate
nWf:_Thread_GetSerializedCurrentUICulture_m3681656498
EGg:_Enumerator_MoveNext_m2114485647_gshared
bGe:_GenericTypeParameterBuilder_GetCustomAttributes_m580748276
Scj:__ZN15dense_hashtableINSt3__24pairIK10KeyWrapperIPK11Il2CppClassEPKcEES6_N6il2cpp5utils11PointerHashIS3_EEN14dense_hash_mapIS6_S9_SE_NS6_14EqualsComparerINS0_8equal_toIS5_EEEENS0_9allocatorISA_EEE9SelectKeyESJ_SL_E12resize_deltaEjj
OWj:__ZNK10__cxxabiv120__si_class_type_info27has_unambiguous_public_baseEPNS_19__dynamic_cast_infoEPvi
_ie:_Kernel_LeftShift_m4140742987
tBe:_Assembly_GetManifestResourceInternal_m1224391897
Vwa:__Z30AddDefaultStreamsToMeshBuffersR9GfxDeviceR11MeshBuffersj17ShaderChannelMaskS3_
u9:__ZL16GetInterfaceImpl18UnityInterfaceGUID
s7i:__ZN6il2cpp2vmL17SetupFieldOffsetsENS0_15FieldLayoutKindEP11Il2CppClassjRKNSt3__26vectorIjNS4_9allocatorIjEEEE
jJj:__ZN6il2cpp6icalls8mscorlib6System15MonoCustomAttrs27GetCustomAttributesInternalEP12Il2CppObjectP20Il2CppReflectionTypeb
Yb:invoke_viifi
WLc:_UNITY_TT_Set_MM_Blend
e8:__GLOBAL__sub_I_runtime_math_random_0_cpp
YJb:__ZN14PreloadManager35WaitForAllAsyncOperationsToCompleteEv
tI:__ZL31InitializeAudioScriptingClassesv
kPb:__Z14SortGUIByDepthP10GUIElementS0_
CC:__ZN12_GLOBAL__N_120ProcessRootMotionMixER33AnimationPlayableEvaluationOutputR35AnimationPlayableEvaluationConstantR32AnimationPlayableEvaluationInputS1_f
AKi:_UriParser__cctor_m3655686731
bOd:_LayoutRebuilder_U3Cs_RebuildersU3Em__0_m589488547
wob:__ZNK20LocalFileSystemPosix21GetAvailableDiskSpaceEPKcRy
E8:__ZNSt3__26__treeIiNS_4lessIiEENS_9allocatorIiEEE7destroyEPNS_11__tree_nodeIiPvEE
zpa:__ZNK9GfxDevice14GetWorldMatrixEv
qyc:__ZN8JSONRead8TransferI8Vector2fEEvRT_PKc17TransferMetaFlagsb
Xpg:_Transform_set_parent_m786917804
_Ud:_Slider_get_value_m739683640
Mmb:__Z19scripting_array_new17ScriptingClassPtrjj
FHf:_Convert_ToInt32_m2128774575
uN:__ZN11SoundHandle13CreateChannelEb
p5a:__ZN14SafeBinaryRead21TransferSTLStyleArrayI13dynamic_arrayI12LightmapDataLj4EEEEvRT_17TransferMetaFlags
Vja:__ZNSt3__26vectorIN9ShaderLab20SerializedSubProgram16TextureParameterENS_9allocatorIS3_EEE6assignIPS3_EENS_9enable_ifIXaasr21__is_forward_iteratorIT_EE5valuesr16is_constructibleIS3_NS_15iterator_traitsISA_E9referenceEEE5valueEvE4typeESA_SA_
tbj:__ZN13Il2CppHashMapIN6il2cpp5utils13dynamic_arrayIPK10Il2CppTypeLj4EEEPFvvENS0_8metadata19Il2CppSignatureHashENS9_22Il2CppSignatureCompareENSt3__29allocatorINSC_4pairIK10KeyWrapperIS6_ES8_EEEEEC2EjRKSA_RKSB_
Moj:__ZN15dense_hashtableINSt3__24pairIK10KeyWrapperIPK22Il2CppGenericParameterEPK24MonoGenericParameterInfoEES6_N6il2cpp5utils11PointerHashIS4_EEN14dense_hash_mapIS6_SA_SF_NS6_14EqualsComparerINS0_8equal_toIS5_EEEENS0_9allocatorISB_EEE9SelectKeyESK_SM_E15set_deleted_keyERKSB_
BFd:_SByte_TryParse_m2431806379
$3b:__ZN6prcoreL11inner_clearILj2EEEvPhjjj
dHd:_DSACryptoServiceProvider_get_KeySize_m786836990
Ng:_emscripten_exit_fullscreen
Xoh:_Array_qsort_TisBoolean_t97287965_TisBoolean_t97287965_m214793583_gshared
QFg:_Enumerator_System_Collections_IEnumerator_Reset_m1564381721_gshared
K6b:__ZZL31RegisterRectTransformPropertiesR22GenericPropertyBindingEN39Wrapper_RectTransformAnchoredPositiony113GetFloatValueEPv
EAe:_Object_MemberwiseClone_m1474068832
aFj:__ZN6il2cpp6icalls8mscorlib6System6String19InternalAllocateStrEi
xzc:__Z29Transfer_Blittable_ArrayFieldI8JSONRead11QuaternionfEvRT_R9ArrayInfoRK23StaticTransferFieldInfo
ajc:__Z45Register_UnityEngine_Camera_get_targetDisplayv
K9b:__ZNK24RendererAnimationBinding15GenerateBindingERKN4core12basic_stringIcNS0_20StringStorageDefaultIcEEEEbRN11UnityEngine9Animation14GenericBindingE
CKe:_IPv6Address__ctor_m3704187391
FPb:__Z15GetFlareManagerv
Uz:__ZN8Animator13GetAvatarRootEv
hAf:_Array_InternalArray__ICollection_Add_TisResourceCacheItem_t51292791_m3851804827_gshared
eTj:___toread
YHb:__ZNSt3__26vectorI10vector_mapIiiNS_4lessIiEE13stl_allocatorINS_4pairIiiEEL18MemLabelIdentifier38ELi16EEES4_IS9_LS7_38ELi16EEE26__swap_out_circular_bufferERNS_14__split_bufferIS9_RSA_EE
wie:_BigInteger_get_Rng_m3283260184
pXj:___cxa_is_pointer_type
dF:__ZN8Animator22ScriptingStringToCRC32ERK11ICallString
EC:__ZN7mecanim9animation16EvaluateAvatarDXEPKNS0_14AvatarConstantEPKNS0_11AvatarInputEPNS0_12AvatarMemoryEPNS0_15AvatarWorkspaceEPNS0_12AvatarOutputE
e9c:_RaycastResult_ToString_m2678663776_AdjustorThunk
dth:_Array_InternalArray__get_Item_TisKeyValuePair_2_t2530217319_m2886833132_gshared
tTd:_ScrollRect_OnEndDrag_m3202230060
Cnc:__Z34Transform_CUSTOM_SetAsFirstSiblingP12Il2CppObject
oLd:_InputField_Delete_m3471899192
AAd:_RemotingConfiguration_get_ProcessId_m2180277012
y3:__ZN17PersistentManager40GlobalToLocalSerializedFileIndexInternalERK26SerializedObjectIdentifier
uS:__ZN11UnityEngine15CloudWebService17SessionEventQueue14ParseEventDataERKN4core12basic_stringIcNS2_20StringStorageDefaultIcEEEE
Zua:__ZN13TranslateGLES4InitERK12GraphicsCaps16GfxDeviceLevelGL
ydf:_Int64_System_IConvertible_ToUInt16_m848637338_AdjustorThunk
JYc:__Z32CustomEventData_CUSTOM_AddUInt32P12Il2CppObjectP12Il2CppStringj
zyf:_Array_InternalArray__IndexOf_TisLink_t544317964_m455584088_gshared
jWg:_Enumerator_get_Current_m2282646120_AdjustorThunk
IIh:_ReadOnlyCollection_1_IndexOf_m2539022912_gshared
vti:__ZL66Selectable_t3250028441_CustomAttributesCacheGenerator_m_TransitionP21CustomAttributesCache
XQj:__ZN6il2cpp2os6Memory12AlignedAllocEjj
eWd:_Text_set_alignByGeometry_m3828822280
GKj:__ZN6il2cpp8metadataL7CompareEPK10Il2CppTypeS3_
IHe:_HybridDictionary__ctor_m1681134385
k2:__ZN21ScalableBufferManager11GetInstanceEv
iDb:__Z18Transfer_BlittableI18StreamedBinaryReadILb0EELb1E10ColorRGBAfEvRK29SerializationCommandArgumentsR31RuntimeSerializationCommandInfo
xYf:_TimeSpan_op_LessThan_m1594498345
Vgc:__ZL27GetComponentsImplementationILb0ELi0EEbR10GameObjectbRK17CompareParametersRK39GetComponentsImplementation_ReturnValue
GGb:__ZN9Scripting36IsSystemCollectionsGenericDictionaryE17ScriptingClassPtr
GNi:_UnityEvent_1_FindMethod_Impl_m322741469_gshared
lqg:_Enumerator_get_Current_m2591725252
d1:__ZL16ReadTypeTreeImplILb0EEbR8TypeTreeRK16TypeTreeIteratorRPKhS6_i
WRe:_Interval_Contains_m110351300_AdjustorThunk
yHf:_Convert_ToInt32_m3048308591
tQd:_RectMask2D_OnCanvasHierarchyChanged_m3195492255
RLf:_DateTimeOffset_Equals_m3030958070
fZa:__ZNK22BuiltinResourceManager21GetResourceInstanceIDEPKN5Unity4TypeERKN4core12basic_stringIcNS4_20StringStorageDefaultIcEEEE
asa:__ZN9GfxDevice15BeginFrameStatsEv
Fkc:__Z42Register_UnityEngine_RectOffset_set_bottomv
IUi:_AnalyticsTracker_BuildParameters_m43920649
a8e:_DateTimeFormatInfo_GetMonthName_m2034512315
pRb:__ZN28LightProbeProxyVolumeContext8CopyFromERKS_
qJh:_ReadOnlyCollection_1_System_Collections_Generic_IListU3CTU3E_Insert_m2489506856_gshared
Q6:__ZN23TransformChangeDispatch32QueueTransformChangeIfHasChangedER18TransformHierarchy
V2f:_SimpleCollator_ToDashTypeValue_m6184468
TDa:__ZN7ApiGLES18DeleteRenderbufferERj
uCa:__ZL23ProgramUniformMatrix4fvPK7ApiGLESjiihPKv
aEa:__ZN7ApiGLES13CreateTextureEjj14GraphicsFormatiiiii
KXe:_Array_new_gap_m262136975
zja:__ZN9ShaderLab20SerializedSubProgram15MatrixParameter8TransferI14SafeBinaryReadEEvRT_
Xgc:__ZL27GetComponentsImplementationILb0ELi1EEbR10GameObjectbRK17CompareParametersRK39GetComponentsImplementation_ReturnValue
XNe:_X509Store__ctor_m275383717
A3f:_SimpleCollator_LastIndexOfOrdinalIgnoreCase_m2984667899
FKc:_Round_Down_To_Grid
PEa:__ZN13RenderTexture7ReleaseEv
Wwc:__Z18Transfer_BlittableI8JSONReadLb1EN4math12int3_storageEEvRK29SerializationCommandArgumentsR31RuntimeSerializationCommandInfo
mcb:__ZN10MeshFilter23VirtualRedirectTransferER14SafeBinaryRead
wcb:__ZN12MeshRenderer17MainThreadCleanupEv
d7i:__ZN6il2cpp2vmL10InitLockedEP11Il2CppClassRKNS_2os12FastAutoLockE
HHa:__ZN22CreateGpuProgramOutput12CreateParamsEv
FJ:__ZN10ObjectPoolIN4FMOD7ChannelENS0_8ChannelIEE7GetFreeEi
uA:__ZN8Animator9BuildJobsERK13dynamic_arrayIP14PlayableOutputLj4EERS0_INS_11AnimatorJobELj8EEPS7_PS0_IbLj1EESB_bb
U$d:_InternalEnumerator_1_System_Collections_IEnumerator_get_Current_m548105685_gshared
Pua:__ZNK14GfxContextGLES13GetDefaultFBOEv
LZe:_Byte_System_IConvertible_ToType_m2251112646
zdh:__Z81RuntimeInvoker_Char_t3634460470_RuntimeObject_Int32_t2950945753_Int16_t2552820387PFvvEPK10MethodInfoPvPS4_
MKf:_DateTime_get_Hour_m4153505178_AdjustorThunk
L0i:_AudioExtensionManager_WriteExtensionProperties_m3028464154
Lnf:_Evidence_Equals_m1478353107
Odc:__Z13GetImagePixelI10ColorRGBAfET_PKhii13TextureFormat15TextureWrapModeS5_ii
CPg:_List_1_System_Collections_IList_set_Item_m1842844683_gshared
JPi:_ObjectPool_1__ctor_m2535233435_gshared
vvj:__ZN6il2cpp2vm6Thread49CheckCurrentThreadForInterruptAndThrowIfNecessaryEv
dFf:_Convert_ToChar_m3757390865
v5:__ZNSt3__23mapIN9ShaderLab16FastPropertyNameEN18UnityPropertySheet11UnityTexEnvENS_4lessIS2_EENS_9allocatorINS_4pairIKS2_S4_EEEEEixERS9_
VCa:__ZNK13TranslateGLES25GetTextureTargetDimensionEj
PGh:_ReadOnlyCollection_1_System_Collections_IList_Remove_m1842121503_gshared
I0g:__Z32RuntimeInvoker_Double_t594665363PFvvEPK10MethodInfoPvPS4_
M4e:_File_OpenRead_m2936789020
Vmc:__Z47Texture2D_CUSTOM_INTERNAL_CALL_GetPixelBilinearP12Il2CppObjectffR10ColorRGBAf
C_:__ZN9Scripting12LogExceptionE21ScriptingExceptionPtriPKcb
cbh:__Z94RuntimeInvoker_Void_t1185182177_RuntimeObject_PlayableGraph_t3515989261_RuntimeObject_IntPtr_tPFvvEPK10MethodInfoPvPS4_
Oi:_emscripten_glVertexAttrib4f
vna:__ZNSt3__26vectorIN20GpuProgramParameters14ConstantBufferENS_9allocatorIS2_EEE8__appendEj
FOe:_X509CertificateCollection_AddRange_m3683116910
Mtd:_SinkProviderData__ctor_m1624738837
Vch:__Z88RuntimeInvoker_RuntimeObject_RuntimeObject_SByte_t1669577662_RuntimeObject_RuntimeObjectPFvvEPK10MethodInfoPvPS4_
RCe:_CustomAttributeTypedArgument_Equals_m2261980307
Rx:__ZN7mecanim12statemachine24CreateStateMachineMemoryEPKNS0_20StateMachineConstantERNS_6memory9AllocatorE
fsa:__ZN9GfxDevice18SetGlobalDepthBiasEff
fgj:__ZN6il2cpp6icalls8mscorlib6System8MonoType12get_AssemblyEP20Il2CppReflectionType
Co:FUNCTION_TABLE_vi
aj:_emscripten_glGetPointerv
Urh:_Dictionary_2_Do_CopyTo_TisKeyValuePair_2_t3842366416_TisRuntimeObject_m1564656153_gshared
sC:__ZN8Animator22ApplyBuiltinRootMotionEv
zJb:__Z26ApplyMaterialPassWithCacheRK18SharedMaterialDataR17ShaderPassContextP6ShaderPN9ShaderLab4PassEibPKNS6_10GrabPassesEPNS6_11SubProgramsEPK22DeviceRenderStateBlock
Bye:_MulticastDelegate_KPM_m22863605
A3d:_InternalEnumerator_1_get_Current_m1897120917_AdjustorThunk
_xe:_MonoType_ReorderParamArrayArguments_m2458683451
aCd:_FormatterConverter_ToInt16_m4282804414
P2g:__Z81RuntimeInvoker_Void_t1185182177_Int64_t3736567304_RuntimeObject_Int64_t3736567304PFvvEPK10MethodInfoPvPS4_
K9c:_StandaloneInputModule_ProcessTouchPress_m4019232747
P4e:_FileStream__ctor_m3151488352
JXe:_Array_swap_m547389985
L3:__ZN8Renderer23VirtualRedirectTransferER14SafeBinaryRead
Z$f:_UInt32_ToString_m2420423038
AMg:_List_1_System_Collections_IList_Add_m634558835_gshared
dgf:_FileStream_get_Length_m426703983
n7i:__ZN6il2cpp2vmL15GetBitmapNoInitEP11Il2CppClassPjRjj
$H:__ZN12AudioManager5ResetEv
$bc:__ZN15DirectorManager18ScheduleGraphStartERK14HPlayableGraph
fBa:__ZN6prcoreL17RemapGenericFloatI17TexFormatRGBAHalf15TexFormatRGHalfEEvPKNS_9InnerInfoE
kHj:__ZN6il2cpp6icalls8mscorlib6System11Environment20GetWindowsFolderPathEi
Fw:__ZN7mecanim5human18HumanPoseBlendNodeERNS0_9HumanPoseEPS1_f
OEc:_UNITY_FT_RoundFix
UNj:_GC_is_heap_ptr
P5f:_ASN1_DecodeTLV_m1200977460
Xeg:_UnityEventBase_PrepareInvoke_m1785382128
uJh:_ReadOnlyCollection_1_System_Collections_Generic_IListU3CTU3E_set_Item_m1584697503_gshared
ycb:__ZNK12MeshRenderer22GetTypeVirtualInternalEv
e$e:_Char_System_IConvertible_ToUInt32_m3901815580
yRd:_Scrollbar_set_onValueChanged_m346467699
n5g:__Z157RuntimeInvoker_Int32_t2950945753_RuntimeObject_Int32_t2950945753_Int32_t2950945753_Int32_t2950945753_SByte_t1669577662_SByte_t1669577662_Int32U26_t1369213839PFvvEPK10MethodInfoPvPS4_
IK:__ZN4FMOD6System17setSoftwareFormatEi17FMOD_SOUND_FORMATii18FMOD_DSP_RESAMPLER
aia:__ZN14SafeBinaryRead19TransferSTLStyleMapINSt3__23mapIN4core12basic_stringIcNS3_20StringStorageDefaultIcEEEES7_NS1_4lessIS7_EE13stl_allocatorINS1_4pairIKS7_S7_EEL18MemLabelIdentifier1ELi16EEEEEEvRT_17TransferMetaFlags
OTc:__ZN2UI6Canvas27UpdateEventIndexesRecursiveERi
lv:__ZN7mecanim9animation18EvaluateRootMotionERKNS0_18ClipMuscleConstantERKNS0_15ClipMuscleInputEPKfS8_RNS0_12MotionOutputEb
AS:__ZN11UnityEngine15CloudWebService16SessionContainer21PrepareDataErrorEventERN4core12basic_stringIcNS2_20StringStorageDefaultIcEEEE
_6c:_ExecuteEvents_get_pointerUpHandler_m3515704212
Z$e:_ArrayList_set_Item_m2003485935
trd:_SatelliteContractVersionAttribute__ctor_m3630863995
T8c:_MouseButtonEventData_PressedThisFrame_m1060658845
qzb:__Z19TransferField_ArrayI19StreamedBinaryWriteILb0EE27Converter_SimpleNativeClassI8GUIStyleEEvRK23StaticTransferFieldInfoR31RuntimeSerializationCommandInfoRT0_
gHh:_ReadOnlyCollection_1_System_Collections_Generic_IListU3CTU3E_RemoveAt_m3969985996_gshared
T2j:_emscripten_glCopyTexSubImage2D__wrapper
Qhd:_GraphicRegistry_GetGraphicsForCanvas_m4219276355
Vye:_NumberFormatter_FastToDecHex_m699829267
oFi:_PatternCompiler_MakeFlags_m1977119795
Kwc:__Z35Transfer_Blittable_FixedBufferFieldI8JSONReadiEvRK29SerializationCommandArgumentsR31RuntimeSerializationCommandInfo
gma:__ZN15SerializeTraitsIN9ShaderLab16FastPropertyNameEE8TransferI19StreamedBinaryWriteILb0EEEEvRS1_RT_
afj:__ZNSt3__213__vector_baseIN6il2cpp2os19SocketHandleWrapperENS_9allocatorIS3_EEED2Ev
rUh:__ZL48_Type_t3588564251_CustomAttributesCacheGeneratorP21CustomAttributesCache
fc:invoke_viiffi
w0b:__ZN13sorted_vectorINSt3__24pairIN4core12basic_stringIcNS2_20StringStorageDefaultIcEEEEPK17MessageIdentifierEEN10vector_mapIS6_S9_NS0_4lessIS6_EENS0_9allocatorISA_EEE13value_compareESF_E10insert_oneERKSA_
Asc:__ZN5Unity9rapidjson13GenericReaderINS0_4UTF8IcEES3_13JSONAllocatorE10ParseFalseILj0ENS0_19GenericStringStreamIS3_EENS0_15GenericDocumentIS3_S4_S4_EEEEvRT0_RT1_
lhg:_Mathf_CeilToInt_m432108984
C2a:__ZNK12CubemapArray20GetRuntimeMemorySizeEv
gYf:_TimeSpan_FromHours_m1109641064
xka:__Z14resize_trimmedINSt3__26vectorIN9ShaderLab18SerializedPropertyENS0_9allocatorIS3_EEEEEvRT_j
zcj:__ZN6il2cpp2vm13MetadataCache38GetMethodInfoFromMethodDefinitionIndexEi
L5c:_EventSystem_set_current_m38955169
qEi:_CostDelegate_EndInvoke_m2797921932
h8a:__ZN10VertexData8TransferI24GenerateTypeTreeTransferEEvRT_
IEf:_Double_IsInfinity_m820013146
GHj:__ZN13Il2CppHashMapIPK19Il2CppGenericMethodP10MethodInfoN6il2cpp8metadata23Il2CppGenericMethodHashENS6_26Il2CppGenericMethodCompareENSt3__29allocatorINS9_4pairIK10KeyWrapperIS2_ES4_EEEEEC2EjRKS7_RKS8_
Qng:_Screen_get_dpi_m495672463
JUf:_UTF8Encoding_InternalGetByteCount_m2120178851
oXb:__ZL10CullLightsRK22SceneCullingParametersR11CullResults
DJf:_Convert_ToUInt64_m3170916409
Mx:__ZN7mecanim12statemachine20GetBlendTreeConstantERKNS0_13StateConstantEi
mdf:_Int64_System_IConvertible_ToInt16_m4062196970_AdjustorThunk
vye:_MonoType_GetGenericTypeDefinition_m3201894896
W3b:__Z40GetTemporaryCachePathApplicationSpecificv
lqa:__ZN9GfxDevice16EndAsyncJobFrameEv
Eeh:__Z99RuntimeInvoker_Int32_t2950945753_Ray_t3785851493_RuntimeObject_Single_t1397266774_Int32_t2950945753PFvvEPK10MethodInfoPvPS4_
EHc:_UNITY_tt_face_load_hhea
WK:__ZN12AudioManager27InitialCompleteDomainReloadEv
$k:___syscall3
cl:___syscall6
el:___syscall4
zT:__ZN11UnityEngine15CloudWebService20WebRequestRestClient17GetResponseStatusEv
Cyd:_ReturnMessage__ctor_m2352989078
q0g:__Z99RuntimeInvoker_Void_t1185182177_RuntimeObject_Int32_t2950945753_SByte_t1669577662_SByte_t1669577662PFvvEPK10MethodInfoPvPS4_
rpb:__ZNSt3__26__treeINS_12__value_typeIN4core12basic_stringIcNS2_20StringStorageDefaultIcEEEEPN16MemoryFileSystem4NodeEEENS_19__map_value_compareIS6_SA_NS_4lessIS6_EELb1EEE13stl_allocatorISA_L18MemLabelIdentifier55ELi16EEE7destroyEPNS_11__tree_nodeISA_PvEE
HWe:_Array_GetLongLength_m561139708
uDj:__ZN6il2cpp2vm3RCW14QueryInterfaceILb1EEEP14Il2CppIUnknownP15Il2CppComObjectRK10Il2CppGuid
Ape:_TlsServerCertificateRequest__ctor_m1334974076
$zc:__ZN27PerformanceReportingManager23VirtualRedirectTransferER14SafeBinaryRead
BHf:_Convert_ToInt32_m1613163543
TOd:_MatEntry__ctor_m1949610076
IGh:_ReadOnlyCollection_1_System_Collections_ICollection_CopyTo_m3127175806_gshared
tl:_emscripten_glShaderBinary
e$f:_UInt16_ToString_m760649087
oob:__ZNK20LocalFileSystemPosix6ExistsERK13FileEntryData
obg:_Camera_GetAllCameras_m668492922
mXc:__Z58Register_UnityEngine_Canvas_GetETC1SupportedCanvasMaterialv
wYf:_TimeSpan_op_Inequality_m2467851530
PBb:__ZN17AnimationCurveTplIfE8TransferI18StreamedBinaryReadILb1EEEEvRT_
Mqh:_Array_Sort_TisUIVertex_t4057497605_m3996333845_gshared
D$c:__ZN18UnityConnectClientD2Ev
bYe:_Swapper_BeginInvoke_m1688449973
Adg:_Display_get_renderingWidth_m1970428952
rUi:_U3CTimedTriggerU3Ec__Iterator0_MoveNext_m825792986
j8g:__Z81RuntimeInvoker_Void_t1185182177_RuntimeObject_Int32_t2950945753_Int64_t3736567304PFvvEPK10MethodInfoPvPS4_
b1:__ZN13dynamic_arrayIcLj1EE6insertEPcPKcS3_
Fgi:__ZL92Mesh_t3648964284_CustomAttributesCacheGenerator_Mesh_SetTriangles_m2205169959____baseVertex3P21CustomAttributesCache
r3g:__Z86RuntimeInvoker_Boolean_t97287965_Int16_t2552820387_Int16_t2552820387_Int32_t2950945753PFvvEPK10MethodInfoPvPS4_
GOi:_IndexedSet_1_IndexOf_m241693686_gshared
E_c:__ZN11UnityEngine15PlatformWrapper30GetGraphicsDriverLibraryStringEv
HEd:_RuntimeMethodHandle_Equals_m3301340296_AdjustorThunk
v0f:_UInt64_System_IConvertible_ToSingle_m925613075_AdjustorThunk
jDb:__Z18Transfer_BlittableI18StreamedBinaryReadILb0EELb0E4AABBEvRK29SerializationCommandArgumentsR31RuntimeSerializationCommandInfo
uhb:__ZN24GenerateTypeTreeTransfer19TransferSTLStyleMapINSt3__28multimapIN4core12basic_stringIcNS3_20StringStorageDefaultIcEEEE4PPtrI6ObjectENS1_4lessIS7_EE13stl_allocatorINS1_4pairIKS7_SA_EEL18MemLabelIdentifier52ELi16EEEEEEvRT_17TransferMetaFlags
aE:__ZN16MecanimAnimation24DeleteAnimatedPropertiesERP26IAnimatedPropertyEvaluator
j3i:_CanvasRenderer_SetMaterial_m824577244
SNb:__Z14DrawGUITextureRK5RectTIfEP7Texture11ColorRGBA32P8Materiali
cHh:_ReadOnlyCollection_1_System_Collections_Generic_ICollectionU3CTU3E_Add_m2686599243_gshared
dB:__ZN9BlobWrite8TransferI22OffsetPtrArrayTransferIKN4math7_float4EEEEvRT_PKc17TransferMetaFlags
IOb:__ZN22RenderingCommandBuffer20ExecuteCommandBufferER17ShaderPassContextR15RenderNodeQueuejP13dynamic_arrayINSt3__24pairIN9ShaderLab16FastPropertyNameEP13RenderTextureEELj4EE16ComputeQueueTypeSA_
hqg:_Transform_IsChildOf_m224006092
X_a:__ZN15TextureSettings8TransferI24GenerateTypeTreeTransferEEvRT_
twc:__ZN9JSONWrite8TransferI4AABBEEvRT_PKc17TransferMetaFlags
mPa:__ZN25MultiBlocksMemoryFileData9SetLengthEy
Prh:_Dictionary_2_Do_ICollectionCopyTo_TisRuntimeObject_m1855083806_gshared
oTi:_Aes__ctor_m178909601
F3a:__ZNK9Texture2D20GetRuntimeMemorySizeEv
Fxd:_MethodCall_get_MethodSignature_m2407904958
zsc:__ZN5Unity9rapidjson13GenericReaderINS0_4UTF8IcEES3_13JSONAllocatorE9ParseTrueILj0ENS0_19GenericStringStreamIS3_EENS0_15GenericDocumentIS3_S4_S4_EEEEvRT0_RT1_
Cm:_emscripten_glUniform2iv
jCc:_UNITY_FT_Outline_Transform
G7i:__ZN6il2cpp2vm5Class10GetMethodsEP11Il2CppClassPPv
kTb:__Z30AddDefaultStreamsToMeshBuffersR9GfxDeviceR11MeshBuffersRK16DrawBuffersRange17ShaderChannelMaskS6_
eDa:__ZN7ApiGLES17DeleteFramebufferERN2gl6HandleILNS0_10ObjectTypeE9EEES3_
JGa:__ZN15UniformTFMethod13MapBoneBufferEj
ISc:__ZN2UI14CanvasRendererD2Ev
wth:_Array_InternalArray__get_Item_TisParameterModifier_t1461694466_m29553316_gshared
Edf:_Int64_CompareTo_m1928360444_AdjustorThunk
qIb:__Z9SetupArgviPPKc
WHf:_Convert_ToInt64_m2075031821
nUi:_AnalyticsEventTracker_OnDisable_m1553012800
L3j:_glTexParameteri__wrapper
G2a:__ZN12CubemapArray23VirtualRedirectTransferER24GenerateTypeTreeTransfer
J1:__ZN12FileAccessor4OpenER15FileSystemEntry14FilePermission16FileAutoBehavior
tGj:__ZN6il2cpp2os9Directory6CreateERKNSt3__212basic_stringIcNS2_11char_traitsIcEENS2_9allocatorIcEEEEPi
P6:__ZN23TransformChangeDispatch32QueueTransformChangeIfHasChangedERK15TransformAccess
O1a:__ZNSt3__26vectorINS_4pairIN9ShaderLab16FastPropertyNameEN18UnityPropertySheet11UnityTexEnvEEENS_9allocatorIS6_EEE21__push_back_slow_pathIKS6_EEvRT_
pBe:_Assembly_get_FullName_m293988418
uAc:__ZN27PerformanceReportingManager18ActiveSceneChangedEPS_P10UnitySceneS2_
B:tempValue
HRj:__ZN6il2cpp8metadata24Il2CppGenericContextHash4HashEPK20Il2CppGenericContext
I1d:_InternalEnumerator_1_get_Current_m356936020_AdjustorThunk
s7c:_PhysicsRaycaster_ComputeRayAndDistance_m1226857851
Tcf:_Int32_ToString_m141394615_AdjustorThunk
a1e:_ArrayListWrapper_CopyTo_m498486826
a5e:_Directory_GetCurrentDirectory_m219218555
xUe:_SmallXmlParser_UnexpectedEndError_m1914362401
jy:__ZN26AnimatorControllerPlayable18DeallocateBindingsEv
Wva:__ZN14DelayedDeletorI15dense_hashtableINSt3__24pairIK9TextureIDiEES3_14GfxGenericHashIS3_EN14GfxDoubleCacheIS3_iS7_NS1_8equal_toIS3_EEN31GfxDoubleCacheConcurrencyPolicy11LocklessGetE42GfxDoubleCacheDefaultEmptyDeletedGeneratorIS3_EE9SelectKeyESA_13stl_allocatorIS5_L18MemLabelIdentifier24ELi16EEEEclEv
LN:__ZN11AudioSource19CreateOpenALRolloffEfff
yHc:_UNITY_FT_Stream_ReadAt
vXf:_TimeSpan__ctor_m1896986612_AdjustorThunk
Ibj:__ZN15dense_hashtableINSt3__24pairIK10KeyWrapperIN6il2cpp5utils13dynamic_arrayIPK10Il2CppTypeLj4EEEEPFvvEEESA_NS3_8metadata19Il2CppSignatureHashEN14dense_hash_mapISA_SD_SG_NSA_14EqualsComparerINSF_22Il2CppSignatureCompareEEENS0_9allocatorISE_EEE9SelectKeyESK_SM_E9set_valueEPSE_RKSE_
zSe:_ArgumentException__ctor_m1216717135
alg:_Ray_ToString_m1732834890_AdjustorThunk
rd:_glReadBuffer
sPg:_List_1_System_Collections_IList_Contains_m3860993176_gshared
zO:__ZN11AudioModule22CreateAudioClipFromWWWEP10IWWWStreamPKcbbi
X8b:__ZN9Texture2DC2E10MemLabelId18ObjectCreationMode
Xi:_emscripten_glRotatef
i$f:_UInt32_System_IConvertible_ToBoolean_m1763673183_AdjustorThunk
Reg:_UnityEvent_AddListener_m2276267359
QUc:__Z13RegisterClassIN2UI11CanvasGroupEEvv
b4b:__ZN6prcoreL11inner_clearILj4EEEvPhjjj
tf:_emscripten_glClear
mNj:_GC_initialize_offsets
Gea:__ZNK8Playable6HandleEv
NJd:_SetPropertyUtility_SetColor_m2229203028
O$:__ZN14MessageHandler28MessageIDToMessageIdentifierEi
D8a:__ZNK11SpriteAtlas20GetRuntimeRenderDataEPK6Sprite
pff:_FileSystemInfo__ctor_m3035148496
kcf:_Int32_System_IConvertible_ToDecimal_m2190376994_AdjustorThunk
aPc:__ZN20TextRenderingPrivate15DynamicFontData36GetFaceForCharacterIfAvailableInFontERKNS_7FontRefERK13dynamic_arrayI4PPtrIN13TextRendering4FontEELj4EEj
fw:__ZN7mecanim14ValueArrayCopyILb0EEEvPKNS_10ValueArrayEPS1_
qF:__Z51Register_UnityEngine_Animator_get_hasBoundPlayablesv
Jd:emscriptenWebGLGetUniform
Do:FUNCTION_TABLE_iiiiiiiiiii
BQi:_GUI_CallWindowDelegate_m3309453386
RFc:_cff_set_mm_blend
WYb:__ZL10CleanUpJobP20CullingGroupsJobData
mff:_DirectoryInfo_get_Exists_m3142069876
JNb:__ZN13RenderManager15BatchModeUpdateEv
UNe:_X509Chain_get_CertificateAuthorities_m804805415
N7a:__ZN14SafeBinaryRead21TransferSTLStyleArrayI13dynamic_arrayI8Vector2fLj4EEEEvRT_17TransferMetaFlags
x3:__ZN17PersistentManager51InstanceIDToLocalSerializedObjectIdentifierInternalEiR31LocalSerializedObjectIdentifier
eng:_Vector2_get_one_m738793577
Qdc:__ZNK4Mesh14GetIndexFormatEv
MCj:__ZN14dense_hash_mapI10KeyWrapperIP12Il2CppObjectEN6il2cpp2gc9CachedCCWENS4_5utils11PointerHashIS1_EENS3_14EqualsComparerINSt3__28equal_toIS2_EEEENSB_9allocatorINSB_4pairIKS3_S6_EEEEE13set_empty_keyERSH_
md:_glVertexAttribIPointer
fTf:_StringBuilder_ToString_m3317489284
xCa:__ZN13dynamic_arrayI21ComputeShaderResourceLj4EE9push_backERKS0_
bec:__ZNK6Sprite10GetPaddingE20SpriteRenderDataMode
fvf:_Array_InternalArray__ICollection_Remove_TisUInt32_t2560061978_m733727733_gshared
WFd:_CryptographicException__ctor_m503735289
xgf:_Stream_EndRead_m1896469262
hXg:__Z93RuntimeInvoker_Boolean_t97287965_Int32_t2950945753_SByte_t1669577662_ExceptionU26_t3600731591PFvvEPK10MethodInfoPvPS4_
eRb:__ZN14qsort_internal5QSortIP15RODataDepthPassi17ROSorterDepthPassEEvT_S4_T0_T1_
iIc:_UNITY_ft_glyphslot_alloc_bitmap
aFh:_ReadOnlyCollection_1_System_Collections_IList_Add_m3642938800_gshared
_se:_RSASslSignatureDeformatter_SetHashAlgorithm_m895570787
GCi:_X509CrlEntry__ctor_m4013514048
iah:__Z87RuntimeInvoker_Color_t2555686324_Color_t2555686324_Color_t2555686324_Single_t1397266774PFvvEPK10MethodInfoPvPS4_
bNc:_ft_raster1_render
Ulc:__Z57Register_UnityEngine_RectTransform_INTERNAL_set_anchorMaxv
yqa:__ZN9GfxDevice27UpdateComputeSkinPoseBufferEP9GfxBufferP12SkinMeshInfo
YVj:__ZNKSt3__221__basic_string_commonILb1EE20__throw_length_errorEv
xBg:_EqualityComparer_1_System_Collections_IEqualityComparer_Equals_m245992594_gshared
Ryf:_Array_InternalArray__IndexOf_TisParameterModifier_t1461694466_m1227120810_gshared
hEa:__ZN18GfxFramebufferGLES13ReadbackImageER14ImageReferenceiiiiii
btc:__ZN5Unity9rapidjson6WriterI16TempBufferWriterNS0_4UTF8IcEES4_13JSONAllocatorE11WriteStringEPKcj
aEd:_SerializationInfo_SetType_m3923964808
Kza:__ZN6prcoreL12RemapGenericI17TexFormatARGB888815TexFormatRGB565EEvPKNS_9InnerInfoE
nJ:__ZN4FMOD7Channel19setReverbPropertiesEPK29FMOD_REVERB_CHANNELPROPERTIES
kVi:_StandardEventPayload_GetParameters_m2672427676
Kif:_StreamReader_Dispose_m156389394
y_:__ZN13MonoBehaviour22GetScriptFullClassNameEv
Y5b:__ZN13ProduceHelperI11MonoManagerLb0EE7ProduceE10MemLabelId18ObjectCreationMode
ejf:_RIPEMD160Managed_JJ_m112143231
CQb:__ZN13BatchRendererC2ER15RenderLoopStatsRK15RenderNodeQueuebb
ipb:__ZNK16MemoryFileSystem9EnumerateEPKcP19dynamic_block_arrayI13FileEntryInfoLj32EEbPPv19FileEnumerationFlag
oGb:__ZN13MonoBehaviour9CallAwakeEv
zZa:__ZN20SphericalHarmonicsL211AddWeightedERKS_f
j_g:__Z82RuntimeInvoker_RuntimeObject_Int64_t3736567304_Int64_t3736567304_Int64_t3736567304PFvvEPK10MethodInfoPvPS4_
vvb:__Z19TransferField_ArrayI17RemapPPtrTransfer27Converter_SimpleNativeClassI8GUIStyleEEvRK23StaticTransferFieldInfoR31RuntimeSerializationCommandInfoRT0_
Ntc:__ZN9JSONWrite8TransferI10ColorRGBAfEEvRT_PKc17TransferMetaFlags
I$:__Z25scripting_method_get_name18ScriptingMethodPtr
jte:_SslCipherSuite_ComputeKeys_m661027754
ijg:_Object_set_name_m291480324
DNf:_Decimal_Equals_m2486655999
oNj:_GC_exit_check
qNh:__ZN16VirtFuncInvoker2Ii19Color32_t2600501292S0_E6InvokeEjP12Il2CppObjectS0_S0_
Wnd:_MonoField_ToString_m2518484388
K6f:_DSAManaged_get_Random_m923751780
wfe:_Transform_1_Invoke_m2385719192_gshared
qrg:_Vector3_set_Item_m1772472431_AdjustorThunk
NQe:_Interpreter_PopulateGroup_m4042796257
DZf:_Type_GetProperty_m3414567179
qyj:__ZN6il2cpp2vm13LivenessState25FieldCanContainReferencesEP9FieldInfo
O0b:__ZNSt3__26vectorINS_4pairIN4core12basic_stringIcNS2_20StringStorageDefaultIcEEEES6_EE13stl_allocatorIS7_L18MemLabelIdentifier38ELi16EEE6insertENS_11__wrap_iterIPKS7_EERSD_
qfg:_RenderPipelineManager_DoRenderLoop_Internal_m3799666479
WA:__ZN9BlobWrite8TransferI22OffsetPtrArrayTransferI9OffsetPtrIN7mecanim12statemachine18StateMachineMemoryEEEEEvRT_PKc17TransferMetaFlags
kf:_emscripten_glStencilOpSeparate
Yzh:_Collection_1_System_Collections_IList_IndexOf_m3894953546_gshared
vIe:_NameObjectCollectionBase_Init_m2525481323
Yqh:_Array_swap_TisBoolean_t97287965_m2293774148_gshared
qJg:_List_1_Insert_m1582252370_gshared
$Ij:__ZN6il2cpp2vm6String8NewUtf16EPKDsi
TEd:_SByte_System_IConvertible_ToByte_m2268214252_AdjustorThunk
QFj:__ZN6il2cpp2os10ThreadImpl12QueueUserAPCEPFvPvES2_
VIi:_RegularExpression__ctor_m119502265
o$c:__ZN22BaseUnityConnectClient10QueueEventERN11UnityEngine15CloudWebService17CloudServiceEventEPKcjb
dHh:_ReadOnlyCollection_1_System_Collections_Generic_ICollectionU3CTU3E_Clear_m522482168_gshared
Rwd:_ConstructionCall_InitMethodProperty_m2021094586
_Kc:_UNITY_FT_Hypot
uui:__ZL74CanvasScaler_t2767979955_CustomAttributesCacheGenerator_m_DefaultSpriteDPIP21CustomAttributesCache
lsj:_il2cpp_class_is_abstract
Df:_emscripten_glGetError
poj:__ZN15dense_hashtableINSt3__24pairIK10KeyWrapperIPK14Il2CppAssemblyEPK22Il2CppMonoAssemblyNameEES6_N6il2cpp5utils11PointerHashIS4_EEN14dense_hash_mapIS6_SA_SF_NS6_14EqualsComparerINS0_8equal_toIS5_EEEENS0_9allocatorISB_EEE9SelectKeyESK_SM_E14squash_deletedEv
_J:__Z14FMOD_FILE_SeekPvjS_
mPd:_MaskableGraphic_OnDisable_m1757789159
j_a:__ZN7TextureC2E10MemLabelId18ObjectCreationMode
bNd:_LayoutGroup__ctor_m2162961217
PYc:__Z56Register_UnityEngine_Analytics_CustomEventData_AddStringv
XZb:__ZNK13RenderTexture32CalculateNeedsInvertedProjectionEv
Y2b:__ZN10systeminfo18GetOperatingSystemEv
Lf:emscriptenWebGLGet
Zaa:__Z19CanReplaceComponentRN5Unity9ComponentEPKNS_4TypeEPN4core12basic_stringIcNS5_20StringStorageDefaultIcEEEE
Lve:_UnmanagedMemoryStream_Flush_m1540584491
iaf:_GuidParser_ParseGuid2_m1914838819
Q8b:__ZN12CubemapArray11InitTextureEiii13TextureFormatb
DIf:_Convert_ToSingle_m3983149863
iYd:_InternalEnumerator_1_System_Collections_IEnumerator_get_Current_m55999184_gshared
NOe:_X509CertificateEnumerator_get_Current_m364341970
Rgd:_Graphic_get_depth_m815589653
dQi:_Event_set_displayIndex_m1342258734
DB:__ZN7mecanim5human13HumanFixTwistEPKNS0_5HumanEPNS_8skeleton13SkeletonPoseTIN4math4trsXEEES9_iiRKf
VTb:__ZL24AssignProjectorQueuesJobP30AssignProjectorQueuesJobHeader
Opd:_ParameterModifier_t1461694466_marshal_pinvoke
Pbj:__ZN15dense_hashtableINSt3__24pairIK10KeyWrapperIN6il2cpp5utils13dynamic_arrayIPK10Il2CppTypeLj4EEEEPFvvEEESA_NS3_8metadata19Il2CppSignatureHashEN14dense_hash_mapISA_SD_SG_NSA_14EqualsComparerINSF_22Il2CppSignatureCompareEEENS0_9allocatorISE_EEE9SelectKeyESK_SM_E4swapERSP_
tbf:_Int16_System_IConvertible_ToUInt32_m3410279543
Dna:__ZN9ShaderLab20SerializedSubProgram14SetConstBufferEPKci
Kij:__ZN6il2cpp2os4File5CloseEPNS0_10FileHandleEPi
obj:__ZNSt3__27__sort5IRN6il2cpp5utils11collections13ArrayValueMapIPK10Il2CppType17Il2CppInteropData26InteropDataToTypeConverterNS1_8metadata14Il2CppTypeLessENSA_26Il2CppTypeEqualityComparerEE12SortComparerEPS8_EEjT0_SH_SH_SH_SH_T_
O_f:_UInt16_CompareTo_m2664746316_AdjustorThunk
rX:__Z40DebugStringToFilePostprocessedStacktraceRK21DebugStringToFileData
zyc:__Z29Transfer_Blittable_ArrayFieldI8JSONReadjEvRT_R9ArrayInfoRK23StaticTransferFieldInfo
uNj:_GC_check_finalizer_nested
rg:__setLetterbox
oTd:_ScrollRect_OnScroll_m3861066534
Ttf:_Array_InternalArray__ICollection_Contains_TisResourceCacheItem_t51292791_m2991582559_gshared
Kii:__ZL72FormerlySerializedAsAttribute_t2859083114_CustomAttributesCacheGeneratorP21CustomAttributesCache
ssc:__ZN8JSONRead32GetValueForKeyWithNameConversionEPKN5Unity9rapidjson12GenericValueINS1_4UTF8IcEE13JSONAllocatorEEPKc
KFi:_PatternCompiler_EmitFastRepeat_m3012952683
ibb:__ZNSt3__26vectorI17BlendShapeChannelNS_9allocatorIS1_EEE6assignINS_11__wrap_iterIPS1_EEEENS_9enable_ifIXaasr21__is_forward_iteratorIT_EE5valuesr16is_constructibleIS1_NS_15iterator_traitsISA_E9referenceEEE5valueEvE4typeESA_SA_
R2b:__ZN11TimeManager11GetRealtimeEv
sK:__ZN29AudioEffectInternalDefinitionC2EP26UnityAudioEffectDefinitionb
PLh:_ReadOnlyCollection_1_System_Collections_IList_Remove_m2434650390_gshared
f$f:_UInt16_ToString_m3056878594_AdjustorThunk
JQj:__ZN6il2cpp2os9FastMutexD2Ev
KRe:_Interval_get_IsSingleton_m3386290029
Grj:__ZNSt3__2plIcNS_11char_traitsIcEENS_9allocatorIcEEEENS_12basic_stringIT_T0_T1_EERKS9_PKS6_
apg:_Time_get_unscaledDeltaTime_m4270080131
Lcb:__ZN4Mesh14GetMeshBuffersER11MeshBuffers17ShaderChannelMaskPS_b
Wkf:_SHA384Managed__ctor_m3220477113
Jya:_stbir_resize
cyf:_Array_IndexOf_TisCustomAttributeTypedArgument_t2723150157_m3158556463_gshared
A4e:_Environment_GetOSVersionString_m407782784
Zsf:_DecoderExceptionFallback_Equals_m1082173956
kYh:__ZL69Assembly_t_CustomAttributesCacheGenerator_Assembly_GetName_m981771927P21CustomAttributesCache
ygi:__ZL93Mesh_t3648964284_CustomAttributesCacheGenerator_Mesh_GetAllocArrayFromChannelImpl_m3084065604P21CustomAttributesCache
sPa:__Z37ReadDirectoryInfo_UnityWebAndUnityRawR12FileAccessorRKN20ArchiveStorageHeader6HeaderERNS1_13DirectoryInfoE
eBi:_PKCS12_get_Keys_m3893933360
gaa:__ZNSt3__26__treeINS_12__value_typeIPKciEENS_19__map_value_compareIS3_S4_15compare_tstringIS3_ELb1EEENS_9allocatorIS4_EEE7destroyEPNS_11__tree_nodeIS4_PvEE
hCf:_Array_InternalArray__Insert_TisIntPtr_t_m189626842_gshared
ZMe:_X509Certificate2_get_IssuerName_m1277209535
LDi:_RijndaelManaged_CreateEncryptor_m263736311
cRb:__ZN20DynamicPropertySheet14SetValueQueuedEN9ShaderLab16FastPropertyNameEN19ShaderPropertySheet12PropertyTypeEjNS2_8SetFlagsE
wTc:__ZN2UI6Canvas26MarkAllNestedCanvasesDirtyEv
weg:_InvokableCallList_ClearPersistent_m1904264973
QHb:__ZN25PathNamePersistentManagerD2Ev
gZ:__ZN17PersistentManager48IntegrateObjectAndUnlockIntegrationMutexInternalEi
Vga:__ZZ29InitializeSortingGroupManagerPvEN44PostLateUpdateSortingGroupsUpdateRegistrator7ForwardEv
boi:__ZL55EventTrigger_t1076084509_CustomAttributesCacheGeneratorP21CustomAttributesCache
Cof:_SecurityElement_SearchForChildByTag_m900466299
xp:__ZN6Object12SetHideFlagsENS_9HideFlagsE
wIf:_Convert_ToSingle_m3227075028
H0j:_emscripten_glGetFramebufferAttachmentParameteriv__wrapper
mOb:__ZN13RendererScene15InitializeUmbraEv
pYa:__Z28CalculateGlobalMatrixInverse23TransformAccessReadOnly
cEg:_GenericEqualityComparer_1_Equals_m3457564127_gshared
Qie:_BigInteger_ModInverse_m2426215562
Xsf:_DecoderExceptionFallback__ctor_m4044614564
Qve:_LocalDataStoreSlot__cctor_m644942532
FRj:__ZN6il2cpp6icalls8mscorlib6System6Object7GetTypeEP12Il2CppObject
Lod:_MonoProperty_CachePropertyInfo_m2968057423
f3c:__ZNK25UnityWebRequestJavaScript18GetDownloadedBytesEv
_kg:_Ray_GetPoint_m1852405345_AdjustorThunk
UEh:_ReadOnlyCollection_1_System_Collections_Generic_IListU3CTU3E_Insert_m3798411681_gshared
UGb:__Z23scripting_class_is_enum17ScriptingClassPtr
Z2c:__ZN12HeaderHelper14SetUnvalidatedERKN4core12basic_stringIcNS0_20StringStorageDefaultIcEEEES6_b
pG:__ZN4FMOD6SoundI7releaseEv
Vcb:__ZN14SpriteRenderer13AwakeFromLoadE17AwakeFromLoadMode
DEc:_cff_parse_num
WPa:__ZN10MemoryFile9SetLengthEy
Axb:__ZN5RectTIiE8TransferI24GenerateTypeTreeTransferEEvRT_
v5a:__ZN14SafeBinaryRead21TransferSTLStyleArrayI13dynamic_arrayI7Hash128Lj8EEEEvRT_17TransferMetaFlags
SGb:__Z28scripting_class_is_interface17ScriptingClassPtr
Ih:_glTexStorage2D
fpd:_MonoProperty_GetOptionalCustomModifiers_m62958967
fna:__ZNK9ShaderLab10SubProgram14EnsureCompiledEv
aHe:_MethodBuilder_GetGenericArguments_m1765425737
bLf:_DateTime_CompareTo_m3687348273
jMj:_GC_push_marked
ALf:_DateTime_ToUniversalTime_m1945318289_AdjustorThunk
y$:__Z18BuildScriptClassId17ScriptingClassPtr
P1i:_TextGenerator_Init_m1168488231
uNa:__ZL31DeleteLastPathNameComponentImplRKN4core12basic_stringIcNS_20StringStorageDefaultIcEEEEPKc
V4b:__Z13RegisterClassI18DelayedCallManagerEvv
G$c:__ZN18UnityConnectClient15GetCloudServiceEv
Jvb:__Z18Transfer_BlittableI24GenerateTypeTreeTransferLb0EiEvRK29SerializationCommandArgumentsR31RuntimeSerializationCommandInfo
H0d:_InternalEnumerator_1_get_Current_m2698009637_gshared
Wej:__ZN6il2cpp2os19SocketHandleWrapperD2Ev
LGb:__ZL28SerializationCommandGroupForRK31TransferFunctionScriptingTraits17ScriptingClassPtr17ScriptingFieldPtrRK20CoreScriptingClasses
ASa:__ZN10TagManager32RegisterDefaultTagsAndLayerMasksEv
pXf:_WaitHandle_Dispose_m738127030
n4g:__Z50RuntimeInvoker_Double_t594665363_Int32_t2950945753PFvvEPK10MethodInfoPvPS4_
_ch:__Z104RuntimeInvoker_Void_t1185182177_Color_t2555686324_Single_t1397266774_SByte_t1669577662_SByte_t1669577662PFvvEPK10MethodInfoPvPS4_
gIg:_Enumerator_System_Collections_IEnumerator_get_Current_m1540440674_gshared
xpf:_Single_System_IConvertible_ToInt16_m809233024_AdjustorThunk
XYc:__Z56Register_UnityEngine_Analytics_CustomEventData_AddUInt32v
kUj:_fmodf
dJd:_InputField_UpdateLabel_m1837760870
Yua:__ZN4gles8InitCapsEP7ApiGLESP12GraphicsCapsR16GfxDeviceLevelGL
bza:__ZN6prcore14BlitImageFloatERK14ImageReferenceRS0_NS0_8BlitModeE
VXa:__Z24CalculateVertexLightDataRK15SharedLightDataR14GfxVertexLight
qi:_glEnable
S4b:__Z13RegisterClassI13BuildSettingsEvv
Zma:__ZNK9ShaderLab7Program28BeginReadUnsupportedVariantsEv
z6:__ZN12CachedWriter11Align4WriteEv
bib:__ZNSt3__26vectorIN30RuntimeInitializeOnLoadManager9ClassInfoE13stl_allocatorIS2_L18MemLabelIdentifier13ELi16EEE7reserveEj
_tc:__Z35Transfer_Blittable_FixedBufferFieldI9JSONWriteiEvRK29SerializationCommandArgumentsR31RuntimeSerializationCommandInfo
sEg:_Enumerator__ctor_m1590062855_AdjustorThunk
npj:__ZN14dense_hash_mapI10KeyWrapperINSt3__24pairIPK10MethodInfoP11Il2CppClassEEEj17ReflectionMapHashIS8_ENS9_14EqualsComparerINS1_8equal_toIS8_EEEENS1_9allocatorINS2_IKS9_jEEEEEC2EjRKSB_RKSF_
by:__ZN26AnimatorControllerPlayable17ProcessRootMotionEP35AnimationPlayableEvaluationConstantP32AnimationPlayableEvaluationInputP33AnimationPlayableEvaluationOutput
ove:_UnexceptionalStreamReader_Peek_m1842169584
b_c:__ZN11UnityEngine7Connect15DeviceInfoEvent16CollectExtraInfoEv
tag:_Bounds_GetHashCode_m1844059663_AdjustorThunk
lGd:_CryptographicException__ctor_m1422015889
Org:_Vector4_Equals_m1779210055_AdjustorThunk
FJf:_Convert_ChangeType_m739676612
lKj:__ZThn8_N6il2cpp2vm13CachedCCWBaseINS0_13ManagedObjectEE6AddRefEv
Rme:_Alert_GetAlertMessage_m1942367141
Vyd:_RemotingServices_GetRealProxy_m2081098851
r6f:_BlockProcessor_Core_m189015002
P0j:_emscripten_glScissor__wrapper
Io:FUNCTION_TABLE_viifi
Jo:FUNCTION_TABLE_viiff
BTe:_X501__cctor_m1166912714
vPd:_MaskUtilities_GetRectMasksForClip_m532898711
pLc:_UNITY_tt_face_free_hdmx
Vag:_Bounds_ToString_m4208690781
mqj:__ZN6il2cpp2vm14TypeNameParser5ParseEb
kwe:_Math_Sqrt_m1297338011
Xte:_StreamWriter_Initialize_m3490883444
QZf:_Type_GetGenericArguments_m3500465462
_1c:__ZN23UnityPurchasingSettingsC2Ev
Tmd:_Module_IsDefined_m2423524910
YDe:_DerivedType_create_unmanaged_type_m747846525
wli:__ZL60EventType_t3528516131_CustomAttributesCacheGenerator_repaintP21CustomAttributesCache
EUa:__ZN17GPUFenceInternals7ReleaseEv
uti:__ZL66Selectable_t3250028441_CustomAttributesCacheGenerator_m_NavigationP21CustomAttributesCache
YZb:__ZL10RenderFaceR9GfxDeviceR18MaterialStateCacheP13RenderTextureiif
byf:_Array_IndexOf_TisCustomAttributeNamedArgument_t287865710_m2817957199_gshared
Kja:__ZN15SerializeTraitsI13dynamic_arrayIN9ShaderLab21SerializedBindChannelELj4EEE19ResizeSTLStyleArrayERS3_i
wAj:__ZNK24NamespaceAndNamePairHashclERKNSt3__24pairIPKcS3_EE
fAi:_ExtendedKeyUsageExtension_ToString_m2116504780
Xkb:__ZNK5Unity9Component38MarkGameObjectAndComponentDependenciesER27GarbageCollectorThreadState
Sef:_BinaryReader_Read_m3708759962
t3c:__ZN20UnityWebRequestProtoI24UnityWebRequestTransport16AtomicRefCounter14RedirectHelper14ResponseHelper15DownloadHandler13UploadHandler12HeaderHelper14AsyncOperationED0Ev
Dua:__ZN9GfxDevice26CreateDefaultVertexBuffersEv
h2j:_emscripten_glVertexAttrib2fv__wrapper
Bue:_SynchronizedReader_ReadToEnd_m2160105378
jPf:_Double_System_IConvertible_ToUInt16_m4132603953_AdjustorThunk
Wxa:__ZN4crnd12symbol_codec32decode_receive_static_data_modelERNS_25static_huffman_data_modelE
n3b:__ZN18ScriptingArguments8AddFloatEf
npg:_TouchScreenKeyboard_Open_m3325559252
Wid:_Image_set_fillOrigin_m469806249
RZc:__ZN11UnityEngine15PlatformWrapper16GetVRRenderScaleEv
_uc:__Z18Transfer_BlittableI9JSONWriteLb0EaEvRK29SerializationCommandArgumentsR31RuntimeSerializationCommandInfo
WR:__ZN11UnityEngine15CloudWebService14DataDispatcher34OnSessionContainerArchivedAndReadyERNS0_16SessionContainerE
Nig:_ConnectionChangeEvent__ctor_m764126802
lqd:_ResolveEventHandler_Invoke_m1337322179
dHg:_Enumerator_VerifyState_m2621680056_gshared
PJi:_UriParser_InternalRegister_m3643767086
gia:__ZN14SafeBinaryRead19TransferSTLStyleMapINSt3__23mapIN4core12basic_stringIcNS3_20StringStorageDefaultIcEEEEiNS1_4lessIS7_EENS1_9allocatorINS1_4pairIKS7_iEEEEEEEEvRT_17TransferMetaFlags
BJc:_gray_move_to
oMf:_DBNull_System_IConvertible_ToSingle_m13713620
iGh:_ReadOnlyCollection_1_System_Collections_IList_Contains_m1327645028_gshared
hjd:_Image_GetDrawingDimensions_m3060965396
_ii:__ZL69FontTextureRebuildCallback_t2467502454_CustomAttributesCacheGeneratorP21CustomAttributesCache
h_f:_TypeLoadException__ctor_m1154572625
Jhc:__Z30RegisterValidateMethodCallbackiPF18ScriptingMethodPtrS_17ScriptingClassPtrP6ObjectEPKc
nqe:_Context_get_WriteSequenceNumber_m1115956887
dsh:_Dictionary_2_Do_ICollectionCopyTo_TisKeyValuePair_2_t2401056908_m1169495264_gshared
Kjd:_OpCodes__cctor_m3821715395
Tcd:_ContentSizeFitter__ctor_m2349275633
OIc:_tt_cmap_init
qzc:__ZN8JSONRead8TransferI9BoundsIntEEvRT_PKc17TransferMetaFlagsb
Ia:invoke_viidi
vqh:_Array_Sort_TisOrderBlock_t1585977831_m2922111197_gshared
Igd:_Graphic_OnRectTransformDimensionsChange_m3695755375
VEd:_SByte_System_IConvertible_ToChar_m1489191771_AdjustorThunk
SI:__ZN9AudioClip7CleanupEv
Suj:__ZNK15dense_hashtableINSt3__24pairIK10KeyWrapperIP11Il2CppClassES4_EES5_N6il2cpp8metadata16SZArrayClassHashEN14dense_hash_mapIS5_S4_SA_NS5_14EqualsComparerINS9_19SZArrayClassCompareEEENS0_9allocatorIS7_EEE9SelectKeyESE_SG_E12test_deletedEj
Txc:__Z18Transfer_BlittableI8JSONReadLb0EdEvRK29SerializationCommandArgumentsR31RuntimeSerializationCommandInfo
_vd:_SynchronizationAttribute_EnterContext_m1660729920
y2i:_Canvas_get_referencePixelsPerUnit_m3420541976
hQi:_Event_get_current_m2393892120
rWi:_VertexHelper_Clear_m627349662
nfj:__ZN6il2cpp2vm21ThreadPoolCompartment13QueueWorkItemEP17Il2CppAsyncResult
Apa:__ZNK9GfxDevice13GetViewMatrixEv
Mve:_UnmanagedMemoryStream_Dispose_m2681886347
Wjb:__ZN17RemapPPtrTransferC2E24TransferInstructionFlagsb
DGf:_Convert_ToDecimal_m889385228
X0:__ZN8TypeTree8BlobReadERPKhS1_ib
BXe:_Array_Reverse_m3714848183
cfd:_Dropdown_ClearOptions_m4085591601
ecd:_CanvasUpdateRegistry_InternalRegisterCanvasElementForGraphicRebuild_m3522560454
yib:__ZN18LoadSceneOperation23GetAllowSceneActivationEv
_Sa:__ZN6CameraD0Ev
Jfa:__ZN31CanvasBatchIntermediateRenderer16StaticInitializeEPv
tx:__ZN7mecanim12AndValueMaskILb0EEEvPKNS_14ValueArrayMaskEPS1_
Rhb:__ZN14SafeBinaryRead21TransferSTLStyleArrayINSt3__26vectorIi13stl_allocatorIiL18MemLabelIdentifier13ELi16EEEEEEvRT_17TransferMetaFlags
nRf:_EncoderFallback__cctor_m3806755293
zPc:_raccess_guess_apple_double
aCa:__ZL18ProgramUniform1uivPK7ApiGLESjiihPKv
_8b:__ZN14Texture2DArray13RebuildMipMapEv
O8i:__ZN13Il2CppHashSetIPK17Il2CppGenericInstN6il2cpp8metadata21Il2CppGenericInstHashENS4_24Il2CppGenericInstCompareENSt3__29allocatorI10KeyWrapperIS2_EEEEC2EjRKS5_RKS6_
erb:__Z18Transfer_BlittableI14SafeBinaryReadLb1EaEvRK29SerializationCommandArgumentsR31RuntimeSerializationCommandInfo
YGj:__ZN6il2cpp2gc16GarbageCollector14RemoveWeakLinkEPPv
Ena:__ZN9ShaderLab20SerializedSubProgram14AddVectorParamEPKcii15ShaderParamTypei
jVc:__ZN2UI14CanvasRenderer12CleanupClassEv
ODf:_Enumerator__ctor_m3362421874
obh:__Z117RuntimeInvoker_CSSSize_t3377836552_IntPtr_t_Single_t1397266774_Int32_t2950945753_Single_t1397266774_Int32_t2950945753PFvvEPK10MethodInfoPvPS4_
k6j:_emscripten_glIsFramebuffer__wrapper
WDj:__ZN6il2cpp2vm6Object3BoxEP11Il2CppClassPv
Gvj:__ZN6il2cpp2vm6Thread7SetNameEP12Il2CppThreadP12Il2CppString
YIb:__ZN13ScreenManager18SetAllowCursorLockEb
oT:__ZN11UnityEngine15CloudWebService10RestClientINS0_23WebRequestRestHeaderMapEE16SetRequestHeaderERKN4core12basic_stringIcNS4_20StringStorageDefaultIcEEEESA_
Whb:__ZN30RuntimeInitializeOnLoadManager15ClassMethodInfo8TransferI14SafeBinaryReadEEvRT_
Jwd:_ConstructionCall_InitDictionary_m2824447813
RP:__ZL22InitializeModule_Audiov
Xob:__ZN16MemoryFileSystem8IsLockedERK13FileEntryData
Zxj:__ZN6il2cpp6icalls8mscorlib6System2IO6MonoIO5WriteEiP11Il2CppArrayiiPi
vhg:_Mathf_InverseLerp_m4155825980
A1g:__Z92RuntimeInvoker_RuntimeObject_RuntimeObject_RuntimeObject_SByte_t1669577662_SByte_t1669577662PFvvEPK10MethodInfoPvPS4_
fl:_emscripten_glBindRenderbuffer
DMg:_List_1_System_Collections_IList_Insert_m1011775503_gshared
jNj:_GC_dirty_init
pBj:__ZN6il2cpp2vm5Image33GetCachedMemoryMappedResourceFileEP24Il2CppReflectionAssembly
IDj:__ZN6il2cpp2vm5Field14GetValueObjectEP9FieldInfoP12Il2CppObject
yTc:__ZNK2UI6Canvas16GetTargetDisplayEv
ZXf:_TimeSpan_CompareTo_m3633415627_AdjustorThunk
zda:__ZN6Object17FindObjectsOfTypeEPKN5Unity4TypeER13dynamic_arrayIPS_Lj4EEb
b2i:_TextGenerator_Dispose_m1708662137
nPd:_MaskableGraphic_OnTransformParentChanged_m329502413
iGb:__ZN13MonoBehaviour17RemoveFromManagerEv
org:_Vector3_get_Item_m668685504_AdjustorThunk
FTa:__ZN12ImageFilters14AddImageFilterERK11ImageFilter
Zud:_Context_NotifyDynamicSinks_m1841702879
JQi:_GUIUtility_get_pixelsPerPoint_m2369948084
oof:_WindowsIdentity_System_Runtime_Serialization_IDeserializationCallback_OnDeserialization_m3428853631
HW:__ZN13MemoryManagerC2Ev
VFa:__ZN12SkinMeshInfo10DeallocateEPS_
RSd:_ScrollRect_SetDirty_m214267968
jQa:__ZN20ArchiveStorageReader28AcquireAndPrefillUnusedBlockEjPNS_11CacheResultE
_Ye:_Boolean_System_IConvertible_ToDateTime_m603510836
U8b:__Z12NHxRoughnessIA4_tEvP9Texture2DPT_iiii
K1c:__ZN11UnityEngine15PlatformWrapper33GetTimeSinceStartupInMillisecondsEv
Tda:__ZN18AsyncUploadManagerD2Ev
zmb:__ZN9Transform5ResetEv
zHf:_Decimal_op_Explicit_m1842265407
Qxb:__Z22TransferField_NonArrayI24GenerateTypeTreeTransfer16Converter_StringEvRK23StaticTransferFieldInfoR31RuntimeSerializationCommandInfoRT0_
o3i:_CanvasRenderer_SetAlphaTexture_m2009567627
hFc:_UNITY_FT_CMap_New
uZd:_InternalEnumerator_1_get_Current_m4241643334_AdjustorThunk
RIb:__Z17MainLoopKeepalivePv
K3d:_InternalEnumerator_1_get_Current_m1588647567_AdjustorThunk
pTj:_printf_core
SZh:__ZL51GCHandle_t3351438187_CustomAttributesCacheGeneratorP21CustomAttributesCache
CJd:_InputField_get_caretBlinkRate_m3620074524
ZQb:__Z19SetupLODFadeKeywordR17ShaderPassContexti
kkf:_RSAPKCS1SignatureFormatter_CreateSignature_m3191980616
g0a:__ZN10builtintex16GetDefaultTexEnvE16TextureDimensionb
xFa:__ZL25CheckCopyTextureArgumentsRK7ApiGLESP11GLESTextureS3_
Z4j:_glDeleteShader__wrapper
nxb:__Z29Transfer_Blittable_ArrayFieldI24GenerateTypeTreeTransferyEvRT_R9ArrayInfoRK23StaticTransferFieldInfo
EJ:__ZN4FMOD7SystemI9playSoundE17FMOD_CHANNELINDEXPNS_5SoundEbPPNS_7ChannelE
Hdf:_Int64_GetHashCode_m703091690
H7e:_CultureInfo_set_DateTimeFormat_m1843682751
aQi:_Event_get_commandName_m4275147343
sx:__ZN27AnimationLayerMixerPlayable17LayerMixerProcessEP35AnimationPlayableEvaluationConstantP32AnimationPlayableEvaluationInputP33AnimationPlayableEvaluationOutputM17AnimationPlayableFvS1_S3_S5_EMS_FvS1_S3_S5_ESA_MS_FvS5_S1_S3_S5_ifE
IGf:_Decimal_op_Implicit_m4256234411
cI:__ZN12AudioManager23VirtualRedirectTransferER18StreamedBinaryReadILb0EE
b_g:__Z60RuntimeInvoker_RuntimeObject_RuntimeObject_Int16_t2552820387PFvvEPK10MethodInfoPvPS4_
Tab:__ZN10VertexData13SwapEndianessEv
Hif:_StreamReader__ctor_m3941437302
Jnc:__Z57Register_UnityEngine_Transform_INTERNAL_get_localRotationv
CZj:dynCall_viif
us:__ZN7mecanim4hand8HandPoseC2Ev
vue:_StringReader_ReadLine_m2337102945
Vub:__ZL26Transfer_SimpleNativeClassI17RemapPPtrTransfer8GradientLb0EEvRK29SerializationCommandArgumentsR31RuntimeSerializationCommandInfo
ICf:_SyncHashtable_Add_m3016107307
ez:__ZN17AnimationPlayable26DisconnectNoTopologyChangeEPS_i
xZe:_Boolean_Equals_m2410333903_AdjustorThunk
gTg:_List_1_System_Collections_IList_Contains_m2131605266_gshared
jU:__ZN13UploadHandlerD2Ev
YXj:dynCall_viiiiiffi
Cc:_emscripten_glBlendFuncSeparate
gAh:_Collection_1_Add_m809543251_gshared
S_:__Z20scripting_string_newPKc
fmc:__Z43Material_CUSTOM_Internal_CreateWithMaterialP12Il2CppObjectS0_
_Ii:_Parser_IsSingleline_m326238187
Z2e:_CollectionBase_get_Count_m1708965601
IHd:_HMAC__ctor_m97939284
w1f:_ValueType_DefaultEquals_m2927252100
wtc:__ZN9JSONWrite12AppendToNodeEPN5Unity9rapidjson12GenericValueINS1_4UTF8IcEE13JSONAllocatorEEPKcRS6_
$5f:_ASN1_ToString_m1340204511
_Ne:_X509Store_get_Certificates_m2149701265
wZf:_Type_GetField_m2961003358
Spi:__ZL144StandaloneInputModule_t2760469101_CustomAttributesCacheGenerator_StandaloneInputModule_t2760469101____allowActivationOnMobileDevice_PropertyInfoP21CustomAttributesCache
eTf:_StringBuilder_set_Chars_m3548656617
Cij:__ZN6il2cpp2os4File17GetFileAttributesERKNSt3__212basic_stringIcNS2_11char_traitsIcEENS2_9allocatorIcEEEEPi
lC:__ZNSt3__26__sortIRPFbPKN8Animator11AnimatorJobES4_EPS4_EEvT0_S9_T_
hH:__ZN17AudioCustomFilterD2Ev
tih:__Z56RuntimeInvoker_Void_t1185182177_MonoResource_t4103430009PFvvEPK10MethodInfoPvPS4_
cLj:_GC_unpromote_black_lists
PDa:__ZN18GfxFramebufferGLES18ReleaseFramebufferEP17RenderSurfaceBaseP14GfxContextGLES
Jwc:__Z18Transfer_BlittableI8JSONReadLb1EiEvRK29SerializationCommandArgumentsR31RuntimeSerializationCommandInfo
FV:__ZN19CloudServiceHandler34HandleSaveFileWebRequestPlayerLoopEv
Sy:__ZN7mecanim21ValueArrayReverseCopyEPKNS_18ValueArrayConstantEPKNS_10ValueArrayES2_PS3_PKi
RG:__Z31GetParentSampleClipFromInstancePN11SoundHandle8InstanceE
r6b:__ZNK28RectTransformPropertyBinding13GetFloatValueERKN11UnityEngine9Animation10BoundCurveE
t_b:__ZN6Camera22StandaloneCustomRenderENS_10RenderFlagEP6ShaderRKN4core12basic_stringIcNS3_20StringStorageDefaultIcEEEEPNS_21PerformRenderFunctionE
xyf:_Array_InternalArray__IndexOf_TisKeyValuePair_2_t2401056908_m4118889689_gshared
mhb:__ZNSt3__26vectorI4PPtrI6ObjectE13stl_allocatorIS3_L18MemLabelIdentifier52ELi16EEE6assignINS_11__wrap_iterIPS3_EEEENS_9enable_ifIXaasr21__is_forward_iteratorIT_EE5valuesr16is_constructibleIS3_NS_15iterator_traitsISD_E9referenceEEE5valueEvE4typeESD_SD_
bSj:__ZN6il2cpp2os16ThreadLocalValue8GetValueEPPv
bNe:_X509Certificate2_get_PublicKey_m370665820
fdj:__ZN6il2cpp2vm13MetadataCache14GetGenericInstEPKPK10Il2CppTypej
UP:__ZN13AudioListener17ReadExtensionNameEi
Nb:invoke_iiidii
np:setThrew
L8b:__ZL21BuildEmptyCubeTexturePKci11ColorRGBA3217TextureColorSpace
jia:__ZN14SafeBinaryRead21TransferSTLStyleArrayINSt3__26vectorIN9ShaderLab20SerializedSubProgramENS1_9allocatorIS4_EEEEEEvRT_17TransferMetaFlags
Wyf:_Array_InternalArray__IndexOf_TisX509ChainStatus_t133602714_m48896230_gshared
NOa:__ZN19dynamic_block_arrayI13FileEntryInfoLj32EE4growEj
Swc:__Z15Transfer_StringI8JSONReadLb1EEvRK29SerializationCommandArgumentsR31RuntimeSerializationCommandInfo
xAa:__ZN6prcoreL17RemapGenericFloatI17TexFormatRGBFloat15TexFormatRGHalfEEvPKNS_9InnerInfoE
BHc:_sfnt_load_face
YOc:_UNITY_FT_Render_Glyph_Internal
lxj:__ZNSt3__212basic_stringIDsNS_11char_traitsIDsEENS_9allocatorIDsEEE21__grow_by_and_replaceEjjjjjjPKDs
BFc:_UNITY_ft_service_list_lookup
yqc:__ZN5IMGUI21SelectReceivingWindowER8GUIStateb
YHd:_HMAC_Initialize_m3157696427
rUj:___strchrnul
gW:__ZN13BaseAllocator13TryDeallocateEPv
WLe:_X509SubjectKeyIdentifierExtension__ctor_m2055934916
PUa:__ZNSt3__26vectorIN12FlareManager10FlareEntryENS_9allocatorIS2_EEE21__push_back_slow_pathIKS2_EEvRT_
lTj:_sprintf
ohc:__ZN9Scripting25CreateNullExceptionObjectE18ScriptingObjectPtr
b8f:_PrivateKeyInfo_DecodeRSA_m2889346634
LH:__ZN13AudioListener17RemoveFromManagerEv
yd:_glAttachShader
cdd:_ContentSizeFitter_SetLayoutHorizontal_m2833273874
gFh:_ReadOnlyCollection_1_System_Collections_IList_RemoveAt_m134366701_gshared
BY:__ZNK6Camera19GetProjectionMatrixEv
dsi:__ZL70InputField_t3762917431_CustomAttributesCacheGenerator_m_SelectionColorP21CustomAttributesCache
cKd:_InputField_SetToCustomIfContentTypeIsNot_m2813459946
$fi:__ZL70RuntimePlatform_t4159857903_CustomAttributesCacheGenerator_FlashPlayerP21CustomAttributesCache
Daf:_Guid_GetHashCode_m3042133858_AdjustorThunk
l0:__Z38PreallocateObjectFromPersistentManagerib
VQe:_Interpreter_Backtrack_m2828876822
M3a:__ZNK9Texture2D20GetUnscaledTextureIDEv
jFd:_SByte_System_IConvertible_ToType_m4075253447
c9f:_StrongName_get_PublicKey_m1841537984
o3j:_glFenceSync__wrapper
aqg:_Transform_INTERNAL_get_worldToLocalMatrix_m2730237241
gYe:_AssemblyLoadEventHandler_Invoke_m1462077361
R3a:__ZNK9Texture2D26CanReuploadDataToGfxDeviceEv
t2h:__ZL63CodeAccessPermission_t2681295399_CustomAttributesCacheGeneratorP21CustomAttributesCache
ijb:__Z29ClearRepeatingLogMessageStatev
X1d:_InternalEnumerator_1_get_Current_m3191242573_gshared
p_e:_Byte_Equals_m1161982810_AdjustorThunk
hte:_SslCipherSuite_ComputeMasterSecret_m3963626850
SJa:__ZN7ApiGLESD2Ev
WRa:__ZN9Transform47ClearTransformHierarchyAndApplyToSerializedDataEv
fyc:__ZN8JSONRead21TransferSTLStyleArrayINSt3__26vectorI8MonoPPtr13stl_allocatorIS3_L18MemLabelIdentifier1ELi16EEEEEEvRT_17TransferMetaFlags
eTa:__ZN6Camera23VirtualRedirectTransferER19StreamedBinaryWriteILb0EE
TZj:dynCall_fidi
akj:__ZN15dense_hashtableINSt3__24pairIK10KeyWrapperINS1_IPK9FieldInfoP11Il2CppClassEEEjEES9_17ReflectionMapHashIS8_EN14dense_hash_mapIS9_jSD_NS9_14EqualsComparerINS0_8equal_toIS8_EEEENS0_9allocatorISB_EEE9SelectKeyESI_SK_E12resize_deltaEjj
UQi:_GUILayoutEntry__ctor_m2229197035
z4:__ZN15dense_hashtableINSt3__24pairIKN9ShaderLab7Program23ShaderKeywordSetAndHashEPKNS2_10SubProgramEEES4_NS3_24ShaderKeywordHashFunctorEN14dense_hash_mapIS4_S8_SA_NS0_8equal_toIS4_EE13stl_allocatorIS9_L18MemLabelIdentifier67ELi16EEE9SelectKeyESD_SG_E15insert_noresizeERKS9_
h_a:__ZN13RenderTexture12SetDimensionE16TextureDimension
zte:_SslClientStream_set_ClientCertSelectionDelegate_m1261530976
oe:_SDL_FreeRW
XVc:__Z34CanvasRenderer_Get_Custom_PropCullP12Il2CppObject
AN:__ZN20SoundChannelInstance8getDelayE14FMOD_DELAYTYPEPjS1_
Q4:__ZNSt3__26vectorIN20GpuProgramParameters15StructParameterENS_9allocatorIS2_EEEC2ERKS5_
zXd:_ArrayReadOnlyList_1_Contains_m232667507_gshared
S3g:__Z77RuntimeInvoker_Boolean_t97287965_IntPtr_t_Int32_t2950945753_SByte_t1669577662PFvvEPK10MethodInfoPvPS4_
bkg:_PlayableHandle_GetPlayableType_m432385838_AdjustorThunk
MNc:__ZNSt3__26vectorIN20TextRenderingPrivate8FontImpl13CharacterInfoE13stl_allocatorIS3_L18MemLabelIdentifier1ELi16EEE8__appendEj
v:tempBigInt
Fnh:_Array_InternalArray__Insert_TisKeyframe_t4206410242_m1558638568_gshared
we:_emscripten_glVertexAttrib1fv
Sia:__ZNSt3__26vectorIN9ShaderLab20SerializedSubProgram12UAVParameterENS_9allocatorIS3_EEE7reserveEj
TWj:__ZSt11__terminatePFvvE
cK:__ZN12AudioManager14systemCallbackEP11FMOD_SYSTEM24FMOD_SYSTEM_CALLBACKTYPEPvS3_
TJh:_ReadOnlyCollection_1_System_Collections_Generic_ICollectionU3CTU3E_Clear_m3451551308_gshared
Pad:_BaseMeshEffect_OnEnable_m3291426649
IF:__ZN10SampleClip23VirtualRedirectTransferER24GenerateTypeTreeTransfer
sZa:__ZN16ReflectionProbes16UpdateSampleDataEv
P7e:_CultureInfo_GetCultureInfo_m56098747
xXb:__Z20AddActiveLocalLightsR11CullResultsR27LocalLightCullingParametersPPK15SharedLightDataPK8Vector4fRK9IndexListPfRSA_R12ActiveLightsSG_P5RectTIfEP13TargetEyeMask
LVh:__ZL80Hashtable_t1853889766_CustomAttributesCacheGenerator_Hashtable__ctor_m1763145853P21CustomAttributesCache
tGf:_Convert_ToDecimal_m1284148187
YBh:_Collection_1__ctor_m3489157029_gshared
R0j:_emscripten_glRenderbufferStorage__wrapper
Iqj:__ZNK6il2cpp2vm14TypeNameParser10NextWillBeEcb
XCc:_cf2_getNormalizedVector
Te:_JS_Sound_Play
QKh:_ReadOnlyCollection_1_System_Collections_IList_set_Item_m1538987737_gshared
xha:__ZN9ShaderLab16SerializedShader8TransferI14SafeBinaryReadEEvRT_
gid:_GridLayoutGroup_set_constraint_m3308895167
axd:_ConstructionCallDictionary_SetMethodProperty_m3145285304
Acf:_Int32_System_IConvertible_ToUInt32_m3557270157
e8g:__Z243RuntimeInvoker_Void_t1185182177_Int16_t2552820387_RuntimeObject_Int32_t2950945753_Int32_t2950945753_Int32_t2950945753_SByte_t1669577662_SByte_t1669577662_SByte_t1669577662_SByte_t1669577662_Int16_t2552820387_SByte_t1669577662_SByte_t1669577662PFvvEPK10MethodInfoPvPS4_
sYd:_InternalEnumerator_1_System_Collections_IEnumerator_get_Current_m1503522504_gshared
FB:__ZN7mecanim8skeleton13SkeletonAlignEPKNS0_8SkeletonERKN4math7_float4ES7_i
D9b:__ZN19ShaderPropertySheet16SetVectorIndexedEN9ShaderLab16FastPropertyNameEifRK8Vector4fNS_8SetFlagsE
RYf:_Type_get_IsAbstract_m1120089130
urg:_Vector3_get_normalized_m2454957984_AdjustorThunk
xKi:_UriFormatException__ctor_m1115096473
Ftj:__ZN15dense_hashtableINSt3__24pairIK10KeyWrapperINS1_IP11Il2CppClassjEEES4_EES6_N6il2cpp8metadata14ArrayClassHashEN14dense_hash_mapIS6_S4_SB_NS6_14EqualsComparerINSA_17ArrayClassCompareEEENS0_9allocatorIS8_EEE9SelectKeyESF_SH_E9copy_fromERKSK_j
DSi:_GUIUtility_IsExitGUIException_m3644066650
mV:__ZN11UnityEngine15CloudWebService14DataDispatcher4StopEv
Rcd:_ColorBlock_GetHashCode_m4264192507
vbf:_Int16_System_IConvertible_ToUInt64_m134975563
Uia:__ZNSt3__26vectorIN9ShaderLab20SerializedSubProgram12UAVParameterENS_9allocatorIS3_EEE8__appendEj
qqc:__ZN5IMGUI9GUIWindow5OnGUIER8GUIState
tpf:_Single_System_IConvertible_ToDecimal_m325860800_AdjustorThunk
rBf:_Array_InternalArray__ICollection_CopyTo_TisSingle_t1397266774_m455540885_gshared
JNa:__ZN17ScriptingGCHandle7AcquireE18ScriptingObjectPtr25ScriptingGCHandleWeakness
e6g:__Z74RuntimeInvoker_RuntimeObject_RuntimeObject_Int64_t3736567304_RuntimeObjectPFvvEPK10MethodInfoPvPS4_
PTc:__ZN2UI14CanvasRenderer14AttachToCanvasER8JobFencePNS_6CanvasENS0_15InstructionTypeE
NYj:dynCall_iifiii
xya:__Z21HasAlphaTextureFormat13TextureFormat
jP:__ZN12AudioManager6UpdateEv
qya:__ZN14ImageReference9BlitImageERKS_NS_8BlitModeE
ct:__ZN8Animator12AddToManagerEv
ROe:_X509Chain__ctor_m2674663382
UJh:_ReadOnlyCollection_1_System_Collections_Generic_IListU3CTU3E_Insert_m1121807192_gshared
cHb:__ZN23CachedSerializationDataD2Ev
tZb:__ZNK25CameraStackRenderingState31CalculateStereoCameraTargetTypeEv
UYa:__ZN14RenderSettings23VirtualRedirectTransferER14SafeBinaryRead
V4d:_InternalEnumerator_1_get_Current_m114240259_gshared
YFj:__ZN6il2cpp2os10ThreadImpl15CurrentThreadIdEv
Pnh:_Array_InternalArray__Insert_TisVector2_t2156229523_m2148694950_gshared
Llf:_SymmetricAlgorithm_get_Key_m3241860519
xMd:_U3CMouseDragOutsideRectU3Ec__Iterator1_Reset_m2233410497
vLc:_UNITY_tt_face_load_fpgm
QRa:__Z17IsObjectAvailablei
DWg:_Queue_1_Peek_m1713833142_gshared
CVf:_ExecutionContext_Capture_m681135907
KZd:_InternalEnumerator_1_System_Collections_IEnumerator_get_Current_m2889979481_AdjustorThunk
NVj:_posix_memalign
Y5f:_ASN1_GetBytes_m3305539297
u_:__ZNK15MonoScriptCache7ReleaseEv
q7i:__ZN6il2cpp2vm5Class13HasReferencesEP11Il2CppClass
gg:_glBindTexture
cUj:_snprintf
Uch:__Z50RuntimeInvoker_RuntimeObject_Resources_t1597885468PFvvEPK10MethodInfoPvPS4_
g2j:_emscripten_glVertexAttrib1fv__wrapper
Jkb:__Z36scripting_liveness_calculation_begin17ScriptingClassPtriPFvPP12Il2CppObjectiPvES3_PFvvES7_
X0i:_AudioExtensionManager_RemoveExtensionFromManager_m442924172
F0j:_emscripten_glGetProgramInfoLog__wrapper
eE:__ZN25AnimatedPropertyEvaluator29BindCurveToScriptingObjectPtrERKN13AnimationClip10FloatCurveEj18ScriptingObjectPtrb
s0:__ZN17PersistentManager23DestroyFromFileInternalEi
ydg:_Display__ctor_m501911701
CGh:_ReadOnlyCollection_1_System_Collections_Generic_IListU3CTU3E_Insert_m1020890112_gshared
aed:_DefaultControls_SetDefaultTextValues_m1943359795
DSb:__Z19SetupMotionMatricesR6CameraR18RPDataMotionVector
_4i:__ZL7log2_64y
_C:__ZN26AnimatorControllerPlayable18PrepareForPlaybackERN7mecanim6memory9AllocatorE
wD:__ZN8Animator11AnimatorJob11AddPlayableEP17AnimationPlayablef
bid:_GridLayoutGroup_get_cellSize_m2967185053
UJf:_CurrentSystemTimeZone_GetUtcOffset_m340358963
HAi:_PKCS12_Decrypt_m1280162536
v5i:_CustomEventData_AddChar_m2745147926
TZd:_InternalEnumerator_1_get_Current_m3081223448_gshared
kQi:_Event_get_isMouse_m1058251071
bXa:__ZN10VertexDataC2ERKS_17ShaderChannelMask10MemLabelId
H2e:_CaseInsensitiveHashCodeProvider_AreEqual_m1790260777
cGc:_otv_JSTF_validate
T4:__ZN22CreateGpuProgramOutputC2Ev
Keg:_PersistentCallGroup_Initialize_m4253175514
ZYe:_Boolean_System_IConvertible_ToChar_m4279513009_AdjustorThunk
D3e:_Hashtable__ctor_m1763145853
pxd:_LogicalCallContext__ctor_m1263247987
aze:_NumberFormatter_ScaleOrder_m3813786990
GKa:__ZN11SpriteAtlas8TransferI14SafeBinaryReadEEvRT_
c8f:_PrivateKeyInfo_DecodeDSA_m771724585
tlj:__ZNK15dense_hashtableINSt3__24pairIK10KeyWrapperINS1_IPK10MethodInfoP11Il2CppClassEEEjEES9_17ReflectionMapHashIS8_EN14dense_hash_mapIS9_jSD_NS9_14EqualsComparerINS0_8equal_toIS8_EEEENS0_9allocatorISB_EEE9SelectKeyESI_SK_E23find_position_with_hashERSA_j
AYc:__Z38CustomEventData_CUSTOM_InternalDestroyP12Il2CppObject
xac:__ZN8GUILayer12CleanupClassEv
z$f:_UInt32_System_IConvertible_ToSByte_m1061556466
DBd:_WellKnownClientTypeEntry__ctor_m2471908952
p7i:__ZN6il2cpp2vm5Class4InitEP11Il2CppClass
ga:invoke_vidi
v0a:__ZN8Material17MainThreadCleanupEv
hBd:_RemotingServices_CreateClientProxyForContextBound_m783705199
TXe:_Array_slow_swapper_m4116724811
eUc:__ZN2UI14CanvasRenderer17SyncDirtyElementsER8JobFence
kae:_Enumerator_System_Collections_IEnumerator_get_Current_m3816090481_gshared
RIj:__ZN6il2cpp5utils11StringUtils15StringDuplicateEPKc
dAg:_DefaultComparer_Equals_m2480133610_gshared
j4:__ZNK9ShaderLab21ShaderRasterStateDesc16ToGfxRasterStateEPK19ShaderPropertySheetS3_R14GfxRasterState
Sqh:_Array_Sort_TisVector3_t3722313464_m1915176437_gshared
iSj:__ZN6il2cpp2os9EventImplC2Ebb
gQg:_List_1_get_Item_m2113769949_gshared
WUa:__ZN12FlareManager12RemoveCameraER6Camera
h5:__Z20IsMatrixBuiltinParamPKcPi
cnf:_String_memcpy4_m979367827
GTf:_UnicodeEncoding_GetBytesInternal_m1902824297
k9b:__ZN8Renderer19PostInitializeClassEv
Txf:_Array_FindIndex_TisRuntimeObject_m2504082708_gshared
yCi:_X509Chain_FindCertificateRoot_m1937726457
Eif:_StreamAsyncResult_get_AsyncWaitHandle_m3390046559
wOj:__ZN6il2cpp6icalls8mscorlib6System8Delegate23CreateDelegate_internalEP20Il2CppReflectionTypeP12Il2CppObjectP22Il2CppReflectionMethodb
lbe:_Enumerator_System_Collections_IEnumerator_get_Current_m921113401_AdjustorThunk
zYb:__ZNK13RendererScene22GetStaticBoundingBoxesEv
wGb:__ZN18DelayedCallManager18CancelCallDelayed2E4PPtrI6ObjectEPF15CallObjectStatePS1_PvES7_
yhg:_Matrix4x4_GetHashCode_m4034747639
uLa:__ZN25ThreadsafeLinearAllocator10ReallocateEPvji
vqb:__Z18Transfer_BlittableI14SafeBinaryReadLb1E11QuaternionfEvRK29SerializationCommandArgumentsR31RuntimeSerializationCommandInfo
Rga:__ZN18SpriteAtlasManagerD0Ev
abb:__ZN10Matrix4x4f8TransferI14SafeBinaryReadEEvRT_
iGd:_CryptographicUnexpectedOperationException__ctor_m2381988196
Koj:__ZN14dense_hash_mapI10KeyWrapperIPK22Il2CppGenericParameterEPK24MonoGenericParameterInfoN6il2cpp5utils11PointerHashIS2_EENS4_14EqualsComparerINSt3__28equal_toIS3_EEEENSD_9allocatorINSD_4pairIKS4_S7_EEEEE15set_deleted_keyERSJ_
UC:__ZN14AvatarPlayback8StopTimeEv
w0d:_InternalEnumerator_1_System_Collections_IEnumerator_get_Current_m4213507601_gshared
xba:__Z6AppendRKN4core12basic_stringIcNS_20StringStorageDefaultIcEEEEPKc
wSi:_GUIUtility_RemoveCapture_m1294193818
qua:__ZN7ApiGLES18ClearBufferSubDataEjN2gl12BufferTargetEll
Qic:__Z37Camera_Get_Custom_PropAllCamerasCountv
w9a:__ZN14Texture2DArray8TransferI18StreamedBinaryReadILb0EEEEvRT_
GWb:__Z18ApplyOcclusionMaskR19ProbeOcclusionCacheRK17LightProbeContextRK10RenderNodeb
YMc:_Split_Cubic
db:invoke_fiiii
WLd:_InputField_OnSubmit_m3583210804
JJi:_Uri_CheckHostName_m2213216182
d2j:_emscripten_glBindRenderbuffer__wrapper
Hsh:_Mesh_SetUvsImpl_TisVector2_t2156229523_m3009194955_gshared
v1f:_ValueType_InternalEquals_m1384040357
Uqh:_Array_Sort_TisVector4_t3319028937_TisVector4_t3319028937_m4254533673_gshared
S0e:_ArrayListWrapper_Contains_m2641184447
KMc:_ft_black_render
n3g:__Z177RuntimeInvoker_Int32_t2950945753_RuntimeObject_Int32_t2950945753_Int32_t2950945753_RuntimeObject_Int32_t2950945753_EncoderFallbackBufferU26_t2343550713_CharU5BU5DU26_t3299466565PFvvEPK10MethodInfoPvPS4_
_Zj:dynCall_viiifi
$Ca:__ZN18GfxFramebufferGLES20ActiveContextChangedEPP17RenderSurfaceBaseS2_
SCa:__Z19PluginsRenderMarkeri
OE:__ZN10HumanTrait18InitializeBoneNameEv
$ia:__ZNSt3__26vectorIN9ShaderLab20SerializedSubProgram15StructParameterENS_9allocatorIS3_EEE6assignINS_11__wrap_iterIPS3_EEEENS_9enable_ifIXaasr21__is_forward_iteratorIT_EE5valuesr16is_constructibleIS3_NS_15iterator_traitsISC_E9referenceEEE5valueEvE4typeESC_SC_
uBj:__ZNSt3__214__split_bufferIN6il2cpp2vm5Image20EmbeddedResourceDataERNS_9allocatorIS4_EEEC2EjjS7_
pH:__ZN12AudioManager17RemoveAudioSourceEP11AudioSource
$Ne:_X509Certificate2Collection_Add_m3151757943
N8d:_Comparer_1__cctor_m951016718_gshared
L2e:_CaseInsensitiveHashCodeProvider_get_DefaultInvariant_m4264275163
F3g:__Z195RuntimeInvoker_Int32_t2950945753_RuntimeObject_Int32_t2950945753_Int32_t2950945753_Int32_t2950945753_RuntimeObject_DecoderFallbackBufferU26_t3866396827_ByteU5BU5DU26_t4057885439_SByte_t1669577662PFvvEPK10MethodInfoPvPS4_
QEi:_MatchCollection_get_Count_m1586545784
VQ:__ZN5physx14PxLightCpuTask12addReferenceEv
LWa:__ZNK15InstancingProps35FillInstanceBufferDispatchConstantsIN10Instancing14RenderLoopArgsEEEvPPvjjRK19ShaderPropertySheetRKT_
Ygh:__Z86RuntimeInvoker_Int32_t2950945753_Color32_t2600501292_Color32_t2600501292_RuntimeObjectPFvvEPK10MethodInfoPvPS4_
_5a:__ZN21EnlightenSceneMapping8TransferI19StreamedBinaryWriteILb0EEEEvRT_
hDj:__ZN6il2cpp2gc16GarbageCollector19InitializeFinalizerEv
Uy:__ZN7mecanim8skeleton18CreateSkeletonMaskEjPKNS0_19SkeletonMaskElementERNS_6memory9AllocatorE
Xpc:__ZN10GUIManager10DoGUIEventER10InputEventb
nwb:__Z35Transfer_Blittable_FixedBufferFieldI24GenerateTypeTreeTransferxEvRK29SerializationCommandArgumentsR31RuntimeSerializationCommandInfo
SGc:_otv_LangSys_validate
nmg:_RectOffset_get_right_m2294081512
coh:_Array_InternalArray__set_Item_TisLink_t544317964_m1234244240_gshared
BLc:_UNITY_TT_Init_Glyph_Loading
ERb:__Z20CalculateSqrDistanceRK8Vector3fRK4AABB
cEd:_SerializationInfo_GetBoolean_m1756153320
PL:__Z32AudioMixerDuckingProcessCallbackP21UnityAudioEffectStatePfS1_jii
dig:_Mesh_get_uv2_m3615020997
o8b:__ZN26CustomRenderTextureManagerD2Ev
dBg:_EqualityComparer_1_System_Collections_IEqualityComparer_Equals_m4172006498_gshared
hI:__ZN12AudioManager8TransferI24GenerateTypeTreeTransferEEvRT_
khg:_Mathf_Round_m4098141538
uxa:__Z25GetBytesFromTextureFormat13TextureFormat
Kwj:__ZN6il2cpp6icalls8mscorlib6System9Threading6Thread20Thread_free_internalEP12Il2CppThreadi
_Xj:dynCall_iiffi
OIe:__KeysEnumerator_get_Current_m2996478063
ZD:__ZN16MecanimAnimation25RegisterIAnimationBindingEPKN5Unity4TypeEiP17IAnimationBinding
g0:__Z32scripting_class_get_assemblyname17ScriptingClassPtr
TZc:__ZN11UnityEngine15PlatformWrapper15GetVRDeviceNameEv
Gch:__Z99RuntimeInvoker_Boolean_t97287965_Int32_t2950945753_PointerEventDataU26_t867828220_SByte_t1669577662PFvvEPK10MethodInfoPvPS4_
c$d:_InternalEnumerator_1_get_Current_m2128158355_AdjustorThunk
WIa:__ZN9GfxDevice21RegisterNativeTextureE9TextureIDi16TextureDimension
Ngd:_GraphicRegistry__ctor_m1851575309
MPj:__ZN6il2cpp6icalls8mscorlib6System10Reflection4Emit11TypeBuilder20create_generic_classEP27Il2CppReflectionTypeBuilder
ykf:_SHA1Internal_FillBuff_m3615718415
Fvf:_PlayableHandle_IsPlayableOfType_TisAnimationLayerMixerPlayable_t3631223897_m201603007_gshared
qKj:__GLOBAL__sub_I_Assembly_cpp_41499
Sje:_PrimalityTest_EndInvoke_m1035389364
AQ:__Z60Register_UnityEngine_AudioListener_GetNumExtensionPropertiesv
$i:_emscripten_glUniformMatrix4fv
Utj:__ZN15dense_hashtableINSt3__24pairIK10KeyWrapperINS1_IP11Il2CppClassjEEES4_EES6_N6il2cpp8metadata14ArrayClassHashEN14dense_hash_mapIS6_S4_SB_NS6_14EqualsComparerINSA_17ArrayClassCompareEEENS0_9allocatorIS8_EEE9SelectKeyESF_SH_E13set_empty_keyERKS8_
qlb:__ZN12ScriptMapperD2Ev
Q5j:b100
gig:_Mesh_get_colors32_m1253190811
MLj:_GC_stopped_mark
p9f:_AnimationCurve_Finalize_m2397002729
oWd:_Text_OnEnable_m616205807
inh:__Z50RuntimeInvoker_RuntimeObject_ColorTween_t809614380PFvvEPK10MethodInfoPvPS4_
JDd:_SerializationCallbacks__cctor_m1674315180
cnc:__Z52Register_UnityEngine_RenderTexture_Internal_GetWidthv
$la:__ZN9ShaderLab20SerializedSubProgram16TextureParameter8TransferI19StreamedBinaryWriteILb0EEEEvRT_
OKa:__ZNK7Hash12812PackToUInt32Ev
T1e:_SynchronizedArrayListWrapper_IndexOf_m3642674350
W1:__ZNSt3__227__insertion_sort_incompleteIRNS_6__lessI14ObjectLoadDataS2_EEPS2_EEbT0_S6_T_
uV:__ZN11UnityEngine15CloudWebService16SessionContainer8AddEventEPNS0_14CloudEventInfoE
LHa:__Z4TrimRKN4core12basic_stringIcNS_20StringStorageDefaultIcEEEES5_
Xrh:_Dictionary_2_Do_ICollectionCopyTo_TisKeyValuePair_2_t3842366416_m1399105608_gshared
lNe:_X509Certificate2_Import_m4026562329
Ace:_Enumerator_System_Collections_IEnumerator_get_Current_m2763095718_AdjustorThunk
m3j:_glGetStringi__wrapper
W7a:__ZN10VertexData8TransferI14SafeBinaryReadEEvRT_
yJ:__ZN4FMOD8ChannelI8setDelayE14FMOD_DELAYTYPEjj
ANj:_GC_malloc_atomic
Jsd:_ActivatedClientTypeEntry_ToString_m2494181680
cFg:_HashSet_1_GetEnumerator_m3346268098_gshared
jQj:__ZN6il2cpp5utils6Memory13AlignedMallocEjj
aMd:_Selectable_get_animator_m2899312855
Acg:__ZN23GenericVirtFuncInvoker5I19CSSSize_t3377836552ififiE6InvokeEPK10MethodInfoP12Il2CppObjectififi
oZ:__ZL20SortItemByInstanceIDRKN18AwakeFromLoadQueue4ItemES2_
arg:_Vector2_op_Multiply_m2347887432
eJe:_TypeConverterAttribute__ctor_m1774069684
dz:__ZNK34AnimationStateMachineMixerPlayable26GetInterruptedPosePlayableEv
M0c:__ZN20UnityConnectSettings8TransferI24GenerateTypeTreeTransferEEvRT_
gB:__ZN34BlobWriteTransferSTLStyleArrayImplI22OffsetPtrArrayTransferIbEEclERS1_17TransferMetaFlagsR9BlobWrite
ZTe:_Byte_ToString_m4063101981
Fxe:_MonoType_GetConstructors_m2574682189
V_i:__ZL25UnresolvedVirtualCall_224P12Il2CppObjectfPK10MethodInfo
WJe:_ServicePointManager_FindServicePoint_m4119451290
bda:__ZL31InitializeRendererUpdateManagerPv
xpd:_ParameterInfo__ctor_m2779026345
VJd:_InputField_set_onValueChange_m1251390545
SUc:__ZN2UI13CanvasManager14GetRenderOrderEPKNS_6CanvasE
xze:_NumberFormatter_get_IsZeroInteger_m2263284741
Xyi:_X509Certificate_PEM_m2020851166
bCf:_Array_InternalArray__Insert_TisDateTime_t3738529785_m2308632330_gshared
vjf:_RNGCryptoServiceProvider_RngGetBytes_m1695806698
Bre:_TlsServerCertificateRequest_ProcessAsTls1_m3214041063
mHc:_compare_uni_maps
J_c:__ZN11UnityEngine15PlatformWrapper27GetGraphicsCapsSupportFlagsEv
Yrh:_Dictionary_2_Do_ICollectionCopyTo_TisRuntimeObject_m3695543300_gshared
Qzb:__ZN12NativeBufferI16Converter_StringE15SetupForWritingER9ArrayInfo
A5f:_SequentialSearchPrimeGeneratorBase_GenerateSearchBase_m3595783982
iga:__ZN13RuntimeStaticI18AssetBundleManagerLb1EE16StaticInitializeEPv
H$j:___cxa_end_catch__wrapper
I$e:_Char_ToString_m278452217
vXg:__Z32RuntimeInvoker_Boolean_t97287965PFvvEPK10MethodInfoPvPS4_
uje:_BigInteger_op_RightShift_m460065452
fHb:__ZN13MonoBehaviour22DoScriptRebuildWarningEv
Sic:__Z38Camera_CUSTOM_INTERNAL_CALL_RaycastTryP12Il2CppObjectRK3Rayfi
Mvj:__ZN6il2cpp6icalls8mscorlib6System5Array13ClearInternalEP11Il2CppArrayii
qQd:_RectMask2D_get_rootCanvasRect_m2913509457
kRc:__Z38TextGenerator_Get_Custom_PropLineCountP12Il2CppObject
gyi:_InternalAsyncResult_SetComplete_m963842420
$Rf:_Encoding_GetEncoding_m2801244948
Zqc:__ZN11IMGUIModule25GetGUIStyleScriptingClassEv
QJc:_tt_get_interface
kyi:_SslStreamBase_EndRead_m495357226
vwj:__ZN6il2cpp5utils9PathUtils7CombineIcEENSt3__212basic_stringIT_NS3_11char_traitsIS5_EENS3_9allocatorIS5_EEEERKSA_SC_
Hwc:__ZN9JSONWrite8TransferI13dynamic_arrayIiLj4EEEEvRT_PKc17TransferMetaFlags
Y5g:__Z64RuntimeInvoker_RuntimeObject_SByte_t1669577662_SByte_t1669577662PFvvEPK10MethodInfoPvPS4_
Ccc:__ZN13PlayableGraph21InvalidateMultithreadEv
XGg:_Enumerator_System_Collections_IEnumerator_get_Current_m713684915_AdjustorThunk
DDg:_GenericComparer_1_Compare_m459680062_gshared
REe:_EnumBuilder_GetConstructorImpl_m3068576149
V_:__Z18ConvertUTF16toUTF8PPKtS0_PPhS2_15ConversionFlags
sHj:__ZN6il2cpp2os20PathErrnoToErrorCodeERKNSt3__212basic_stringIcNS1_11char_traitsIcEENS1_9allocatorIcEEEEi
Vri:__ZL68InputField_t3762917431_CustomAttributesCacheGenerator_m_KeyboardTypeP21CustomAttributesCache
Cfc:__Z24GetActualTargetFrameRatev
N4i:__ZL16my_g_bit_nth_msfj
_Vg:_Enumerator_MoveNext_m3662315381_AdjustorThunk
jre:_TlsClientFinished_ProcessAsTls1_m2429863130
QPb:__Z23SetupStereoFlareElementP11FlareVertexRK8Vector2fS3_S3_RK11ColorRGBA32RK10Matrix4x4fRK8Vector3fb
sa:invoke_iiiifiiii
$Jd:_InputField_EnforceContentType_m2436948794
bsf:_String_Join_m2050845953
Aee:_ShimEnumerator_MoveNext_m2406150314_gshared
VDa:__ZL19BlitFramebufferImplRN4gles23BlitFramebufferDrawQuadER9GfxDevice9TextureIDRK8Vector4f
Dkj:__ZN15dense_hashtableINSt3__24pairIK10KeyWrapperIPK10Il2CppTypeEjEES6_N6il2cpp8metadata14Il2CppTypeHashEN14dense_hash_mapIS6_jSB_NS6_14EqualsComparerINSA_26Il2CppTypeEqualityComparerEEENS0_9allocatorIS8_EEE9SelectKeyESF_SH_E4findERS7_
KYj:dynCall_viiiiiiiiiiiiii
fLc:_UNITY_FT_List_Add
O8b:__ZN14Texture2DArray11InitTextureEiii13TextureFormatb
Tzi:_X509Extension__ctor_m1474351312
zLi:_InvokableCall_1_Invoke_m1524307439_gshared
jff:_Directory_CreateDirectoriesInternal_m3735342319
kOd:_LayoutUtility_GetLayoutProperty_m3731360667
zpj:__ZN15dense_hashtableINSt3__24pairIK10KeyWrapperINS1_IPK11Il2CppImageP11Il2CppClassEEEjEES9_17ReflectionMapHashIS8_EN14dense_hash_mapIS9_jSD_NS9_14EqualsComparerINS0_8equal_toIS8_EEEENS0_9allocatorISB_EEE9SelectKeyESI_SK_E14squash_deletedEv
Alf:_SHAConstants__cctor_m1699027474
sY:__ZNK6Camera26GetStereoSingleCullEnabledEv
fib:__Z14resize_trimmedINSt3__26vectorIN4core12basic_stringIcNS2_20StringStorageDefaultIcEEEE13stl_allocatorIS6_L18MemLabelIdentifier13ELi16EEEEEvRT_j
drb:__Z18Transfer_BlittableI14SafeBinaryReadLb0EaEvRK29SerializationCommandArgumentsR31RuntimeSerializationCommandInfo
M$e:_CharEnumerator_System_Collections_IEnumerator_get_Current_m1328529384
T_j:_emscripten_glFrustum__wrapper
Y3i:_AnimationLayerMixerPlayable__ctor_m860721801
LLc:_UNITY_FT_List_Iterate
g$e:_Char_System_IConvertible_ToUInt64_m3536560782
uAg:_EqualityComparer_1__cctor_m3452395357_gshared
QMc:_Render_Single_Pass
uOb:__Z20SyncFenceCullResultsR11CullResults
xGa:__ZN15TextureTFMethod20IsBoneCountSupportedEi
APf:_Double_ToString_m3828879243_AdjustorThunk
yvb:__Z22TransferField_NonArrayI17RemapPPtrTransfer27Converter_SimpleNativeClassI8GUIStyleEEvRK23StaticTransferFieldInfoR31RuntimeSerializationCommandInfoRT0_
Wue:_TextReader_Synchronized_m3004980758
r3b:__ZNK17AnimationCurveTplIfE20EvaluateWithoutCacheEfRf
Iah:__Z67RuntimeInvoker_Boolean_t97287965_Rect_t2360479859_SByte_t1669577662PFvvEPK10MethodInfoPvPS4_
kZa:__ZN19ShaderPropertySheet10SetTextureERK23FastTexturePropertyNameP7Texture
DCe:_CustomAttributeData__ctor_m2966233049
Tbd:_CanvasUpdateRegistry_PerformUpdate_m1793997159
Bqe:_Context_set_ClientWriteIV_m3405909624
sec:__ZN4Mesh10SetNormalsEPK8Vector3fj
sTi:_AesManaged_CreateDecryptor_m692040246
IIj:__ZNSt3__212basic_stringIDsNS_11char_traitsIDsEENS_9allocatorIDsEEE9__grow_byEjjjjjj
ws:__ZN17AnimationCurveTplIfE8TransferI14SafeBinaryReadEEvRT_
ioh:_Array_InternalArray__set_Item_TisInt16_t2552820387_m2544074754_gshared
jWe:_ArithmeticException__ctor_m3551809662
i5e:_MonoIO_ExistsDirectory_m2182482658
c1b:__Z29StdTemplateConversionFunctionIybEbPvR14SafeBinaryRead
v6a:__ZNSt3__26vectorIN15QualitySettings14QualitySettingENS_9allocatorIS2_EEE6assignIPS2_EENS_9enable_ifIXaasr21__is_forward_iteratorIT_EE5valuesr16is_constructibleIS2_NS_15iterator_traitsIS9_E9referenceEEE5valueEvE4typeES9_S9_
f:HEAPU32
nKg:_List_1_CheckCollection_m1671972112_gshared
Moe:_CipherSuiteFactory_GetSsl3SupportedCiphers_m3757358569
STf:_UnicodeEncoding_GetPreamble_m3002287178
D0i:_AudioSource_get_spatialize_m3609701298
mah:__Z52RuntimeInvoker_Color_t2555686324_Color32_t2600501292PFvvEPK10MethodInfoPvPS4_
xna:__ZN20GpuProgramParameters14AddVectorParamEPKcii15ShaderParamTypeiiiP16PropertyNamesSet
I2c:__ZNK12HeaderHelper3GetERKN4core12basic_stringIcNS0_20StringStorageDefaultIcEEEE
Geb:__ZN9InputAxis8TransferI14SafeBinaryReadEEvRT_
IZ:__ZNK21ExecutionOrderManager30GetCustomAwakeFromLoadQueueForEPKN5Unity4TypeE
b2c:__Z27RegisterModule_UnityConnectv
U6b:__ZZL31RegisterRectTransformPropertiesR22GenericPropertyBindingEN32Wrapper_RectTransformSizeDeltax013GetFloatValueEPv
Hhf:_MemoryStream_Expand_m3554752073
Wnj:__ZN6il2cpp2vm10Reflection27GetCustomAttributesCacheForEP25Il2CppReflectionParameter
Ung:_ScriptableObject_CreateInstance_m2611081756
NBd:_ObjectRecord_get_IsInstanceReady_m2304516395
U4d:_InternalEnumerator_1_System_Collections_IEnumerator_get_Current_m1635397542_gshared
mif:_Path__cctor_m3273994011
UTi:_AnalyticsEventTracker__ctor_m3064238498
ZWj:__ZNSt11logic_errorD2Ev
yKf:_DateTimeUtils_CountRepeat_m3396693018
cgj:_WeakReference_get_Target_m168713953
SK:__ZN10ObjectPoolIN4FMOD12ChannelGroupENS0_13ChannelGroupIEE7SetSizeEi
dTi:_SymmetricTransform_FinalDecrypt_m764004682
cGj:__ZN6il2cpp2os10ThreadImpl33UnregisterCurrentThreadForCleanupEv
EGi:_Parser_ParseGroupingConstruct_m263270497
Fpj:__ZN14dense_hash_mapI10KeyWrapperINSt3__24pairIPK9EventInfoP11Il2CppClassEEEj17ReflectionMapHashIS8_ENS9_14EqualsComparerINS1_8equal_toIS8_EEEENS1_9allocatorINS2_IKS9_jEEEEE15set_deleted_keyERSH_
ix:__ZN27AnimationLayerMixerPlayable22PrepareAnimationEventsEfR13dynamic_arrayI22AnimationClipEventInfoLj4EE
Psb:__Z14resize_trimmedINSt3__26vectorI17AnimationCurveTplIfE13stl_allocatorIS3_L18MemLabelIdentifier1ELi16EEEEEvRT_j
rZb:__ZN25CameraStackRenderingState19SetupLastEyeCamerasERK11CameraStack
zQa:__Z12GUIDToStringRK9UnityGUID
$se:_RSASslSignatureDeformatter_SetKey_m2204705853
OG:__ZN11SoundHandleC2ERKS_
rt:__ZN17AnimationPlayableC2E18DirectorPlayerType
XId:_InputField_set_shouldHideMobileInput_m1650743574
Mcj:__ZNK6il2cpp5utils11collections13ArrayValueMapIPK10Il2CppType17Il2CppInteropData26InteropDataToTypeConverterNS_8metadata14Il2CppTypeLessENS8_26Il2CppTypeEqualityComparerEE10find_firstERKS5_
cgf:_FileStream_get_CanSeek_m331583577
lHd:_DSAParameters_t1885824122_marshal_pinvoke_back
Kz:__ZN8Animator22OnGraphTopologyChangedEP8Playablei
p5f:_Kernel_MultiplyByDword_m1266935086
Sv:__ZN17AnimationPlayable18DeallocateBindingsEv
c$b:__ZN6Camera25StandaloneRenderToCubemapEP7TextureiPFvPK9SceneNodePK4AABBR9IndexListPvESA_j
Zqf:_String_Trim_m3384720403
YYa:__ZN14RenderSettings18TransferDeprecatedI14SafeBinaryReadEEvRT_
M3g:__Z93RuntimeInvoker_Single_t1397266774_SingleU26_t1922108698_Single_t1397266774_Single_t1397266774PFvvEPK10MethodInfoPvPS4_
VPi:_Event__ctor_m526447123
m8g:__Z88RuntimeInvoker_RuntimeObject_RuntimeObject_RuntimeObject_RuntimeObject_Int32_t2950945753PFvvEPK10MethodInfoPvPS4_
PZf:_Type_ToString_m3975981286
BZ:__ZN12TLSAllocatorI14StackAllocatorE8AllocateEji
x$:__ZN16ScriptingManager18GetMonoScriptCacheEi
SGi:_ExpressionAssertion__ctor_m2554412824
u7b:__ZN32TransformHierarchyChangeDispatch21AddPermanentInterestsE15TransformAccessPKN5Unity4TypeE
TFg:_Enumerator_System_Collections_IEnumerator_get_Current_m2237476582_gshared
krb:__Z18Transfer_BlittableI14SafeBinaryReadLb1EyEvRK29SerializationCommandArgumentsR31RuntimeSerializationCommandInfo
dgj:_WeakReference_Finalize_m2841826116
Nye:_NullReferenceException__ctor_m3076065613
Dtc:__ZN8JSONRead8TransferIfEEvRT_PKc17TransferMetaFlagsb
Yma:__ZN9ShaderLab7Program22ComputeSupportsShadowsEv
ZLe:_X509SubjectKeyIdentifierExtension_Decode_m1505409124
gna:__ZL23AddGpuProgramParametersR20GpuProgramParametersRKNSt3__26vectorIN9ShaderLab20SerializedSubProgram15MatrixParameterENS1_9allocatorIS5_EEEERKNS2_INS4_15VectorParameterENS6_ISB_EEEEiiP16PropertyNamesSet
MAa:__ZN6prcoreL17RemapGenericFloatI18TexFormatARGBFloat17TexFormatRGBAHalfEEvPKNS_9InnerInfoE
RTi:_AnalyticsEventParamListContainer__ctor_m1995104893
Cqf:_String_System_IConvertible_ToUInt16_m2888090399
BM:__ZN11AudioSource21ApplyCachedParametersE12SoundChannel
zBe:_Assembly_InternalGetType_m3065345470
brd:_ResourceSet__ctor_m3356376607
Dje:_PrimeGeneratorBase_get_PrimalityTest_m2487240563
D_h:__ZL56_ParameterInfo_t489405856_CustomAttributesCacheGeneratorP21CustomAttributesCache
A5a:__ZN15SerializeTraitsI33EnlightenTerrainChunksInformationE8TransferI14SafeBinaryReadEEvRS0_RT_
A9b:__ZNK32RendererMaterialAnimationBinding9BindValueER6ObjectRKN11UnityEngine9Animation14GenericBindingERNS3_10BoundCurveE
hhe:_Transform_1_Invoke_m1731820209_gshared
UZa:__Z13GetIAnimationv
Vya:__ZL18stbir__support_onef
Vpf:_Single_CompareTo_m189772128
ovc:__Z26Transfer_UnityEngineObjectI9JSONWriteLb0EEvRK29SerializationCommandArgumentsR31RuntimeSerializationCommandInfo
h7d:_DefaultComparer_Compare_m4042058291_gshared
Jid:_Image_set_overrideSprite_m3213596394
g1a:__ZNSt3__26vectorIN4core12basic_stringIcNS1_20StringStorageDefaultIcEEEE13stl_allocatorIS5_L18MemLabelIdentifier1ELi16EEE6assignINS_11__wrap_iterIPS5_EEEENS_9enable_ifIXaasr21__is_forward_iteratorIT_EE5valuesr16is_constructibleIS5_NS_15iterator_traitsISF_E9referenceEEE5valueEvE4typeESF_SF_
lTc:__ZNSt3__27__sort5IRNS_6__lessIN2UI14DepthSortEntryES3_EEPS3_EEjT0_S7_S7_S7_S7_T_
Off:_FileLoadException_ToString_m2989457882
V0i:_AudioListener_ClearExtensionProperties_m3849891634
ECc:_UNITY_FT_DivFix
ith:_Array_InternalArray__get_Item_TisDecimal_t2948259380_m3511003792_gshared
onf:_SecurityElement_IsValidAttributeValue_m948345692
xBc:__ZN19ControllerHitReport15onControllerHitERKN5physx16PxControllersHitE
Ba:invoke_vdd
Gn:FUNCTION_TABLE_fiii
fve:_TextWriter_Write_m2252948084
Tbc:__Z19RegisterModule_Corev
V7b:__ZNK30SpriteRendererAnimationBinding12GetPPtrValueERKN11UnityEngine9Animation10BoundCurveE
QQc:__ZZ29InitializeTextRenderingModulevEN27cleanupAfterLoadRegistrator7ForwardEv
rx:__ZN27AnimationLayerMixerPlayable24ProcessAnimationLayerMixEP33AnimationPlayableEvaluationOutputP35AnimationPlayableEvaluationConstantP32AnimationPlayableEvaluationInputS1_if
W5e:_CCFixed_FromDateTime_m3894190577
eZb:__Z29PluginsIssueRenderingExtEvent26UnityRenderingExtEventTypePv
L_g:__Z116RuntimeInvoker_RuntimeObject_RuntimeObject_Int32_t2950945753_RuntimeObject_RuntimeObject_RuntimeObject_RuntimeObjectPFvvEPK10MethodInfoPvPS4_
sCd:_MessageFormatter_ReadMethodCall_m2327590823
B8b:__Z14RandomRotationP9Texture2DPhiiii
pAf:_Array_InternalArray__ICollection_Add_TisUInt16_t2177724958_m3981262878_gshared
gNf:_Decimal_GetBits_m453754410
$Eg:_HashSet_1_Contains_m3173358704_gshared
LVi:_ToggleEvent__ctor_m834619998
Gle:_PKCS1_Encode_v15_m2077073129
lmg:_RectOffset_get_left_m1232181034
WBa:__ZN4gles14UseGLSLProgramER15DeviceStateGLESjbij
Y4j:_glDeleteProgram__wrapper
Zic:__Z50Register_UnityEngine_Camera_INTERNAL_get_pixelRectv
cAa:__ZN6prcoreL18BlitFloatToIntegerERK14ImageReferenceRS0_
rMf:_DBNull_System_IConvertible_ToUInt32_m3784627971
Epe:_ClientSessionCache_Add_m964342678
fGa:__ZN13dynamic_arrayI15ComputeShaderCBLj4EE6assignEPKS0_S3_
PU:__ZN11UnityEngine15CloudWebService14RestDownloader17OnCompleteContentEv
ujj:__ZN15dense_hashtableINSt3__24pairIK10KeyWrapperINS1_IPK14Il2CppAssemblyP11Il2CppClassEEEjEES9_17ReflectionMapHashIS8_EN14dense_hash_mapIS9_jSD_NS9_14EqualsComparerINS0_8equal_toIS8_EEEENS0_9allocatorISB_EEE9SelectKeyESI_SK_E15insert_noresizeERKSB_
Tpg:_Transform_get_localScale_m129152068
wNf:_DivideByZeroException__ctor_m3496959969
Qa:invoke_viffi
qz:__ZN17AnimationPlayable28UpdateInternalStateRecursiveILi1ELb0EEEvPK35AnimationPlayableEvaluationConstant
vDj:__ZN6il2cpp2gcL10CleanupCCWEPvS1_
Ta:invoke_vifff
K3j:_glGetVertexAttribiv__wrapper
GPh:_Predicate_1_Invoke_m851618236_gshared
$Hb:__ZN20LocalFileSystemWebGL6DeleteER13FileEntryDatab
Ue:_emscripten_glDisableVertexAttribArray
bvf:_Array_InternalArray__ICollection_Remove_TisSingle_t1397266774_m3361324455_gshared
an:FUNCTION_TABLE_iiiifiiii
Sga:__ZN4core8hash_mapINS_12basic_stringIcNS_20StringStorageDefaultIcEEEE13dynamic_arrayI4PPtrI6SpriteELj4EENS_4hashIS4_EENSt3__28equal_toIS4_EEE12delete_nodesEv
mc:invoke_fifffi
aCh:_Collection_1_System_Collections_IList_Add_m2969482770_gshared
b6f:_BitConverterLE_GetBytes_m4130646282
sae:_Enumerator_System_Collections_IDictionaryEnumerator_get_Entry_m3249874482_AdjustorThunk
CNi:_UnityEvent_1_Invoke_m3604335408_gshared
df:_emscripten_glDeleteObjectARB
X5c:_EventSystem_RaycastComparer_m3685368675
_f:_IMG_Load
F2g:__Z131RuntimeInvoker_Void_t1185182177_RuntimeObject_RuntimeObject_Int64_t3736567304_ObjectU26_t2146539884_SerializationInfoU26_t419328957PFvvEPK10MethodInfoPvPS4_
dnc:__Z53Register_UnityEngine_RenderTexture_Internal_GetHeightv
tTe:_PKCS12_RemoveCertificate_m1421555398
uVd:_Slider_FindSelectableOnLeft_m1667068522
dBa:__ZN6prcoreL17RemapGenericFloatI17TexFormatRGBAHalf18TexFormatARGBFloatEEvPKNS_9InnerInfoE
Pqc:__Z14GetBuiltinSkini
Oxd:_MethodDictionary_get_Item_m1201458851
NQ:___cxx_global_var_init_13
hR:___cxx_global_var_init_10
iR:___cxx_global_var_init_11
U7:___cxx_global_var_init_18
pl:_JS_SystemInfo_GetBrowserVersionString
Ulb:__ZN2UI13RectTransform23VirtualRedirectTransferER14SafeBinaryRead
qka:__ZNSt3__26vectorIN9ShaderLab20SerializedSubProgramENS_9allocatorIS2_EEE6assignIPS2_EENS_9enable_ifIXaasr21__is_forward_iteratorIT_EE5valuesr16is_constructibleIS2_NS_15iterator_traitsIS9_E9referenceEEE5valueEvE4typeES9_S9_
Axc:__Z18Transfer_BlittableI8JSONReadLb0E8BitFieldEvRK29SerializationCommandArgumentsR31RuntimeSerializationCommandInfo
H$e:_Char_ToString_m3588025615_AdjustorThunk
VEg:_HashSet_1_CopyTo_m2849056227_gshared
iBb:__ZL17Transfer_GUIStyleI18StreamedBinaryReadILb1EELb0EEvRK29SerializationCommandArgumentsR31RuntimeSerializationCommandInfo
Z4f:_ModulusRing_Multiply_m343333088
fia:__ZN9ShaderLab14SerializedPass8TransferI14SafeBinaryReadEEvRT_
Hrc:__Z71Register_UnityEngine_GUILayoutUtility_INTERNAL_CALL_Internal_MoveWindowv
nP:__ZN12AudioManager16SetListenerPauseEb
cib:__ZNSt3__26vectorIN30RuntimeInitializeOnLoadManager9ClassInfoE13stl_allocatorIS2_L18MemLabelIdentifier13ELi16EEE6assignINS_11__wrap_iterIPS2_EEEENS_9enable_ifIXaasr21__is_forward_iteratorIT_EE5valuesr16is_constructibleIS2_NS_15iterator_traitsISC_E9referenceEEE5valueEvE4typeESC_SC_
Pvf:_SetPropertyUtility_SetStruct_TisSingle_t1397266774_m2805350785_gshared
Ywj:__ZN6il2cpp2vm9Exception25RaiseOutOfMemoryExceptionERKNS_5utils10StringViewIDsEE
da:invoke_viiiiiiiiiii
QSj:___syscall_ret
KAi:_DeriveBytes_set_Salt_m1400945044
e8c:_PointerEventData_set_worldNormal_m1888481930
AHi:_AnchorInfo__ctor_m46784903
koe:_CipherSuiteCollection_get_Item_m4188309062
oxi:_SslHandshakeHash_HashFinal_m2573455475
Svd:_SynchronizationAttribute_ReleaseLock_m1030353464
_Yc:__Z56Register_UnityEngine_Analytics_CustomEventData_AddDoublev
y8a:__ZN11ChannelInfo8TransferI19StreamedBinaryWriteILb0EEEEvRT_
LIj:__ZN4utf88internal13validate_nextIPKcEENS0_9utf_errorERT_S5_Rj
cui:__ZL53ToggleGroup_t123837990_CustomAttributesCacheGeneratorP21CustomAttributesCache
EQb:__ZN14qsort_internal13Partition3WayIP17RODataReplacementi19ROSorterReplacementEENSt3__24pairIT_S6_EES6_S6_T0_T1_
NLd:_InputField_CreateCursorVerts_m3585916868
fkc:__Z34Register_UnityEngine_Gradient_Initv
fvd:_Context_ToString_m1073616138
w7a:__ZN13ScreenManager23SetIsOrientationEnabledE18EnabledOrientationb
RId:_InputField_EnforceTextHOverflow_m3400115777
Leb:__ZN9InputAxis8TransferI19StreamedBinaryWriteILb0EEEEvRT_
Tbf:__Z33il2cpp_codegen_check_sub_overflowxx
JYj:dynCall_viififiii
KJd:_InputField_get_caretColor_m2973283772
kQd:_RectMask2D_get_Canvas_m9990042
$Of:_Double_System_IConvertible_ToInt16_m3591921965_AdjustorThunk
uNh:_Comparison_1_Invoke_m2925518770_gshared
xRa:__ZN10GameObject23VirtualRedirectTransferER18StreamedBinaryReadILb0EE
OSi:_SymmetricTransform__ctor_m2693628991
xue:_ObjectDisposedException__ctor_m1034312941
vg:_glFrontFace
hmg:_RectOffset__ctor_m3236153262
lPd:_MaskUtilities_IsDescendantOrSelf_m2247511982
CVb:__ZNSt3__26vectorI16ShadowCasterData13stl_allocatorIS1_L18MemLabelIdentifier2ELi16EEE21__push_back_slow_pathIKS1_EEvRT_
yRc:__Z51Register_UnityEngine_TextGenerator_GetLinesInternalv
Ihe:_Enumerator_get_Current_m2250080680_AdjustorThunk
zTi:_AesManaged_set_Key_m767972181
Waf:_Int16_System_IConvertible_ToBoolean_m1656400658_AdjustorThunk
a_e:_Byte_System_IConvertible_ToInt64_m285584218
Ita:__ZN13GfxDeviceGLES22SetScissorRectPlatformERK5RectTIiE
uAa:__ZN6prcoreL17RemapGenericFloatI17TexFormatRGBFloat18TexFormatRGBAFloatEEvPKNS_9InnerInfoE
Jzf:_Array_InternalArray__ICollection_Add_TisDictionaryEntry_t3123975638_m665385049_gshared
ywe:_MissingMemberException__ctor_m2707802176
t2i:_Canvas_get_renderMode_m841659411
G5a:__ZN15SerializeTraitsI13dynamic_arrayI28EnlightenRendererInformationLj8EEE19ResizeSTLStyleArrayERS2_i
_Dd:_SerializationInfo_GetValue_m42271953
FG:__ZN9AudioClip11CreateSoundEv
Tpj:__ZN14dense_hash_mapI10KeyWrapperINSt3__24pairIPK9FieldInfoP11Il2CppClassEEEj17ReflectionMapHashIS8_ENS9_14EqualsComparerINS1_8equal_toIS8_EEEENS1_9allocatorINS2_IKS9_jEEEEEC2EjRKSB_RKSF_
plj:__ZNK15dense_hashtableINSt3__24pairIK10KeyWrapperINS1_IPK10MethodInfoP11Il2CppClassEEEjEES9_17ReflectionMapHashIS8_EN14dense_hash_mapIS9_jSD_NS9_14EqualsComparerINS0_8equal_toIS8_EEEENS0_9allocatorISB_EEE9SelectKeyESI_SK_E13find_positionERSA_
Psa:__ZN13GfxDeviceGLES20CreateComputeProgramEPKhj
j1c:__ZN11UnityEngine7Connect16PersistentValues13RestoreValuesER8JSONRead
Jaf:_Guid_BaseToString_m3600006650
dPa:__ZN20ArchiveStorageReader31TryToReadDirectoryFromBlockDataEyPKvj
Yzj:__ZN6il2cpp2vmL11GetIdentityEP14Il2CppIUnknown
pMj:_GC_push_gc_structures
tre:_TlsServerCertificate_ProcessAsTls1_m819212276
NIh:_ReadOnlyCollection_1_System_Collections_Generic_ICollectionU3CTU3E_Clear_m2102011098_gshared
lsh:_Dictionary_2_Do_ICollectionCopyTo_TisRuntimeObject_m3942192587_gshared
uhj:__ZN6il2cpp6icalls8mscorlib6SystemL8IsPublicEPK9EventInfo
Uje:_PrimalityTests_RabinMillerTest_m2544317101
Zie:_Kernel_DwordDivMod_m1540317819
VVg:_Enumerator_System_Collections_IEnumerator_get_Current_m1399273671_gshared
oCi:_X509StoreManager_get_CurrentUser_m719101392
dld:_TypeBuilder_GetPropertyImpl_m3104345782
R8a:__ZNSt3__213__stable_sortIRNS_4lessI4PPtrI11SpriteAtlasEEENS_11__wrap_iterIPS4_EEEEvT0_SA_T_NS_15iterator_traitsISA_E15difference_typeEPNSD_10value_typeEi
Zdf:_Int64_ToString_m2085073918_AdjustorThunk
cge:_Transform_1_Invoke_m4084479750_gshared
Wld:_FieldInfo_GetFieldOffset_m1356898082
Uyf:_Array_InternalArray__IndexOf_TisTypeTag_t3541821701_m2988972362_gshared
k9:__ZN8keywords6CreateEPKc
$4i:__ZL7log2_32j
S:Math_imul
qdb:__ZN14SpriteRenderer15SetupPropertiesEv
Ore:_TlsServerKeyExchange_Update_m453798279
J6a:__ZN11PlayerPrefs6GetIntERKN4core12basic_stringIcNS0_20StringStorageDefaultIcEEEEi
roe:_CipherSuiteCollection_System_Collections_IList_IndexOf_m1361500977
nWd:_Text_set_fontStyle_m648756124
gRc:__Z45TextGenerator_CUSTOM_INTERNAL_get_rectExtentsP12Il2CppObjectP5RectTIfE
ZJf:_DateTime__ctor_m2135476686_AdjustorThunk
_mg:_RectTransform_GetLocalCorners_m823861473
$1e:_SynchronizedArrayListWrapper_GetEnumerator_m1579424644
H_:__ZN18ScriptingArguments9AddObjectE18ScriptingObjectPtr
xVc:__Z39CanvasGroup_Get_Custom_PropInteractableP12Il2CppObject
QR:__ZN11UnityEngine15CloudWebService16SessionContainerD2Ev
u1c:__ZL38InitializeUnityConnectScriptingClassesv
OZb:__ZN13ProbeRenderer8ConvolveEbijjb
sSi:_GUIUtility_set_systemCopyBuffer_m608712289
Jwa:__ZN17GenericDynamicVBOC2ER9GfxDevice13GfxBufferModejj
Qpc:__ZZN10GUIManager14InitGUIManagerEvEN41PreUpdateIMGUISendQueuedEventsRegistrator7ForwardEv
oDa:__ZN13dynamic_arrayIN18GlslGpuProgramGLES9GLProgramELj4EE6insertEPS1_jRKS1_
f6e:_CCGregorianCalendar_day_from_fixed_m1674702403
hT:__ZN11UnityEngine15CloudWebService17SessionEventQueue10PurgeItemsEj
s_b:__ZN6Camera16StandaloneRenderENS_10RenderFlagEP6ShaderRKN4core12basic_stringIcNS3_20StringStorageDefaultIcEEEE
DNe:_X509Chain_PrepareForNextCertificate_m3691934993
CAb:__Z18Transfer_BlittableI18StreamedBinaryReadILb1EELb1EtEvRK29SerializationCommandArgumentsR31RuntimeSerializationCommandInfo
uli:__ZL58EventType_t3528516131_CustomAttributesCacheGenerator_keyUpP21CustomAttributesCache
L0h:__ZL57X509Certificate_t713131622_CustomAttributesCacheGeneratorP21CustomAttributesCache
Lbb:__ZN12BoneWeights48TransferI19StreamedBinaryWriteILb0EEEEvRT_
Uqa:__ZN9GfxDevice20DeallocRenderSurfaceEP17RenderSurfaceBase
xFf:_DateTime_FromTicks_m4059645178
lna:__ZN20GpuProgramParameters36UpdatePrepareValuesMaximumBufferSizeEv
sHh:_ReadOnlyCollection_1_System_Collections_IList_RemoveAt_m2129436005_gshared
Q2f:_SimpleCollator_GetContraction_m2205549079
lrg:_Vector3__ctor_m1719387948_AdjustorThunk
Cke:_ARC4Managed_GenerateKey_m1607343060
ZAf:_Array_InternalArray__ICollection_CopyTo_TisDecimal_t2948259380_m2749946216_gshared
XSa:__ZN12BaseRenderer23RendererBecameInvisibleEv
Lhb:__ZN30RuntimeInitializeOnLoadManager23VirtualRedirectTransferER14SafeBinaryRead
UNc:__ZN20TextRenderingPrivate8FontImpl13CharacterInfo8TransferI18StreamedBinaryReadILb0EEEEvRT_
Rxb:__Z29Transfer_Blittable_ArrayFieldI24GenerateTypeTreeTransferfEvRT_R9ArrayInfoRK23StaticTransferFieldInfo
Qba:__ZNSt3__26__treeINS_12__value_typeIN4core12basic_stringIcNS2_20StringStorageDefaultIcEEEES6_EENS_19__map_value_compareIS6_S7_NS_4lessIS6_EELb1EEE13stl_allocatorIS7_L18MemLabelIdentifier13ELi16EEE7destroyEPNS_11__tree_nodeIS7_PvEE
Ueg:_UnityEvent_FindMethod_Impl_m2312362624
K$b:__ZN19CustomRenderTexture9AddParentE4PPtrIS_E
j7:__ZN8Gradient8TransferI14SafeBinaryReadEEvRT_
rag:_Vector3_GetHashCode_m2879461828
CGi:_Parser_ParseSpecial_m1961501104
Npf:_Single_System_IConvertible_ToUInt64_m3299129161_AdjustorThunk
f1a:__ZNSt3__26vectorIN4core12basic_stringIcNS1_20StringStorageDefaultIcEEEE13stl_allocatorIS5_L18MemLabelIdentifier1ELi16EEE7reserveEj
HKe:_IPv6Address_AsIPv4Int_m844941024
nse:_RecordProtocol__cctor_m1280873827
Ghg:_Matrix4x4_MultiplyPoint_m1575665487_AdjustorThunk
lsd:_Marshal__cctor_m4007734770
jLj:_GC_new_free_list_inner
K8f:_SymmetricTransform_Random_m2004892672
QKj:_GC_err_printf
mme:_RSAManaged_DecryptValue_m1804388365
aYd:_InternalEnumerator_1_System_Collections_IEnumerator_get_Current_m2980550840_AdjustorThunk
oyc:__ZN8JSONRead8TransferI10RectOffsetEEvRT_PKc17TransferMetaFlagsb
SS:__ZN9JSONWrite8TransferIN11UnityEngine15CloudWebService14DataErrorEvent15FileErrorDetailEEEvRT_PKc17TransferMetaFlags
Pcf:_Int32_Parse_m2087562008
Pxf:_Array_compare_TisVector4_t3319028937_m1974066282_gshared
Uod:_MonoProperty_GetAccessors_m412928203
dPi:_TweenRunner_1_Start_m3757154622_gshared
MJ:__ZN12SoundManager20RegisterModifiedClipEP10SampleClip
cAd:_RemotingServices_GetClientChannelSinkChain_m1499550585
ABe:_Assembly_FillName_m1660001542
s_h:__ZL56_EventBuilder_t2558055199_CustomAttributesCacheGeneratorP21CustomAttributesCache
alf:_SHA384Managed_processBlock_m1272529332
qM:__ZN11AudioSource4PlayEd
eDi:_X509Store_get_Crls_m1211262034
J$e:_Char_ToString_m278452217_AdjustorThunk
paj:__ZN15dense_hashtableI10KeyWrapperIPK17Il2CppGenericInstES4_N6il2cpp8metadata21Il2CppGenericInstHashEN14dense_hash_setIS4_S7_NS4_14EqualsComparerINS6_24Il2CppGenericInstCompareEEENSt3__29allocatorIS4_EEE8IdentityESB_SE_E13set_empty_keyERKS4_
mYg:__Z63RuntimeInvoker_Char_t3634460470_Int16_t2552820387_RuntimeObjectPFvvEPK10MethodInfoPvPS4_
RGf:_Convert_ToDouble_m2924063577
XHg:_Enumerator_System_Collections_IEnumerator_get_Current_m3594024719_gshared
Qsg:_ValueCollection_System_Collections_Generic_ICollectionU3CTValueU3E_Remove_m3673494156_gshared
H3a:__ZN7Cubemap23VirtualRedirectTransferER18StreamedBinaryReadILb0EE
tlc:__ZNSt3__27__sort4IRNS_6__lessI11KeyframeTplIfES3_EEPS3_EEjT0_S7_S7_S7_T_
vKc:_Read_CVT
eM:__ZN11AudioSource23VirtualRedirectTransferER19StreamedBinaryWriteILb0EE
qPa:__ZN12FileAccessor4SeekEx10FileOrigin
Fwb:__ZL26Transfer_SimpleNativeClassI24GenerateTypeTreeTransfer17AnimationCurveTplIfELb0EEvRK29SerializationCommandArgumentsR31RuntimeSerializationCommandInfo
gGf:_Convert_ToDecimal_m1783778724
ozc:__ZN8JSONRead21TransferSTLStyleArrayI13dynamic_arrayI9BoundsIntLj4EEEEvRT_17TransferMetaFlags
O5a:__ZN24GenerateTypeTreeTransfer8TransferI13dynamic_arrayI33EnlightenTerrainChunksInformationLj4EEEEvRT_PKc17TransferMetaFlags
A6e:_DateTimeFormatInfo__ctor_m3106345035
hpe:_TlsServerKeyExchange_verifySignature_m3412856769
lAg:_EqualityComparer_1_System_Collections_IEqualityComparer_GetHashCode_m4137147946_gshared
lda:__ZN16LightmapSettings20DidChangeActiveSceneEP10UnitySceneS1_
kxi:__ZL59g_AssemblyU2DCSharp_Assembly_CustomAttributesCacheGeneratorP21CustomAttributesCache
Xhj:__ZN6il2cpp5utils9PathUtils8BasenameIcEENSt3__212basic_stringIT_NS3_11char_traitsIS5_EENS3_9allocatorIS5_EEEERKSA_
vAd:_RemotingProxy__cctor_m4096951805
trc:__Z35Register_UnityEngine_Event_get_typev
hxj:__ZN6il2cpp2vm9Exception23GetInvalidCastExceptionERKNS_5utils10StringViewIDsEE
rz:__ZN8Animator28BuildControllerPlayableCacheEv
sZ:__Z63ThreadAndSerializationSafeCheckGetMonoBehaviourBeingTransferredv
BOf:_StackTrace__ctor_m206492268
qNg:_List_1_set_Item_m4224739467_gshared
idd:_ColorTween_set_startColor_m2562993758_AdjustorThunk
KDe:_ConstructorBuilder_get_Name_m2426555260
alc:__Z37Register_UnityEngine_Input_GetAxisRawv
DGi:_Parser_ParseCharacterClass_m4285351396
jIf:_Convert_ToSByte_m2653418303
yCf:_SyncHashtable__ctor_m2449935938
cM:__ZN11AudioSource5ResetEv
mkf:_RSAPKCS1SignatureFormatter_SetKey_m2935054088
cQb:__ZN12ImageFilters27SetSurfaceUseResolvedBufferEP13RenderTextureb
fGi:_Regex__ctor_m3948448025
e9a:__ZN14Texture2DArray23VirtualRedirectTransferER18StreamedBinaryReadILb0EE
BUf:_UTF7Encoding_GetByteCount_m209415911
Llb:__ZN2UI13RectTransform13AwakeFromLoadE17AwakeFromLoadMode
jJi:_RegularExpression_Compile_m2385682508
p6e:_CompareInfo__cctor_m1837489679
$Ub:__ZN14qsort_internal30FindAndMovePivotToLastPositionIP20ShadowCasterSortDatai26ShadowCasterSortDataSorterEEvT_S4_T0_T1_
bqb:__Z18Transfer_BlittableI14SafeBinaryReadLb1EiEvRK29SerializationCommandArgumentsR31RuntimeSerializationCommandInfo
JNe:_X509ExtensionEnumerator_get_Current_m256207749
n8:__GLOBAL__sub_I_modules_profiler_public_0_cpp
jkb:__ZN17PersistentManager13GetAllFileIDsERKN4core12basic_stringIcNS0_20StringStorageDefaultIcEEEER13dynamic_arrayIxLj8EE
QXe:_Array_Sort_m182264525
dNd:_LayoutGroup_set_padding_m282562135
sCe:_Default_IsArrayAssignable_m953489228
a$f:_UInt16_ToString_m355311020_AdjustorThunk
Mk:_glGetStringi
Ysf:_DecoderExceptionFallback_CreateFallbackBuffer_m1133375601
UBj:__ZNK15dense_hashtableI10KeyWrapperIP18Il2CppGenericClassES3_N6il2cpp8metadata22Il2CppGenericClassHashEN14dense_hash_setIS3_S6_NS3_14EqualsComparerINS5_25Il2CppGenericClassCompareEEENSt3__29allocatorIS3_EEE8IdentityESA_SD_E10test_emptyERK30dense_hashtable_const_iteratorIS3_S3_S6_SF_SA_SD_E
Uae:_Enumerator_get_CurrentKey_m889650866_gshared
KA:__ZN8Animator9WriteStepEy
lae:_Enumerator_VerifyCurrent_m829026141_gshared
Kcc:__ZN16PropertyAccessorC2Ev
S6a:__ZNSt3__23mapIN4core12basic_stringIcNS1_20StringStorageDefaultIcEEEE9PrefValueNS_4lessIS5_EENS_9allocatorINS_4pairIKS5_S6_EEEEEixERSB_
ecc:__ZN15DirectorManager22ConstructPlayableGraphEv
Vwh:_Collection_1_ConvertItem_m1743542180_gshared
nRc:__Z38Register_UnityEngine_Font_HasCharacterv
YYb:__Z35IntersectSpherePlaneBoundsOptimizedRKN4math7_float4EPS1_i
tjf:_RNGCryptoServiceProvider__cctor_m3587754670
IEj:__ZN6il2cpp2os5posix15PosixWaitObject13InterruptWaitEv
Kca:__Z22CleanupLODGroupManagerPv
prc:__Z21Event_CUSTOM_PopEventP12Il2CppObject
vl:_glUniform3fv
eRj:__ZNK6il2cpp8metadata24Il2CppGenericInstCompareclERK10KeyWrapperIPK17Il2CppGenericInstES8_
ghb:__ZNSt3__218__insertion_sort_3IRN15ResourceManager10Dependency6SorterEPS2_EEvT0_S6_T_
cOe:_X509ChainElement_Set_m655180762
A5i:_CustomEventData_AddInt32_m548429697
Cig:_MonoBehaviour_StopCoroutine_m615723318
LTb:__ZNK16LightmapSettings31GetRealtimeLightmapDecodeValuesEv
eL:__ZN5audio5mixer12SetSuspendedERNS0_16AudioMixerMemoryEb
clb:__ZN17PersistentManager21UnloadNonDirtyStreamsEv
p3g:__Z96RuntimeInvoker_Int32_t2950945753_RuntimeObject_Int32_t2950945753_RuntimeObject_Int32_t2950945753PFvvEPK10MethodInfoPvPS4_
mUi:_AnalyticsEventTracker_OnEnable_m1121905268
KJi:_Uri_get_Parser_m3737125102
C2i:_Canvas_get_overrideSorting_m2740418462
adg:_Debug_LogFormat_m309087137
ZWf:_Scheduler__ctor_m3313141270
hab:__ZN12ImageFilters4BlitER17ShaderPassContextP7TextureP13RenderTextureiPK18SharedMaterialDataPKcP6ShaderiNS_9BlitFlagsE11CubemapFaceRK8Vector2fSH_
Arf:_String_LastIndexOf_m3451222878
AEi:_Mark_get_Index_m3048692661
oui:__ZL69CanvasScaler_t2767979955_CustomAttributesCacheGenerator_m_ScaleFactorP21CustomAttributesCache
Eug:_Dictionary_2_ToTValue_m692436965_gshared
rT:__ZN11UnityEngine15CloudWebService10RestClientINS0_23WebRequestRestHeaderMapEED2Ev
Sl:_emscripten_glDepthMask
fBd:_RemotingServices_CreateClientProxy_m3886727610
Yxa:__ZN4crnd25static_huffman_data_model22prepare_decoder_tablesEv
sse:_RecordProtocol_GetMessage_m2086135164
oqc:__Z23GUIStatePopDisplayIndexv
qda:__Znaj
w5j:_emscripten_glEnableClientState__wrapper
Y9:__ZN17MessageIdentifierC2EPKcNS_7OptionsEPKN5Unity4TypeES1_
uig:_Mesh_SetTriangles_m1523451247
Cpf:_Single_System_IConvertible_ToSByte_m1208276900
I1g:__Z105RuntimeInvoker_Void_t1185182177_RuntimeObject_RuntimeObject_RuntimeObject_RuntimeObject_Int32_t2950945753PFvvEPK10MethodInfoPvPS4_
zsg:_ValueCollection_System_Collections_Generic_ICollectionU3CTValueU3E_Add_m3298059628_gshared
JYg:__Z64RuntimeInvoker_RuntimeObject_Int16_t2552820387_Int16_t2552820387PFvvEPK10MethodInfoPvPS4_
HQ:__Z55Register_UnityEngine_AudioSource_get_spatializeInternalv
QLa:__ZN14SafeBinaryRead8TransferI14ConstantStringEEvRT_PKc17TransferMetaFlags
oOb:__ZNK6Camera16GetStereoEnabledEv
q6g:__Z72RuntimeInvoker_Int32_t2950945753_TimeSpan_t881159249_TimeSpan_t881159249PFvvEPK10MethodInfoPvPS4_
Tse:_SendRecordAsyncResult_SetComplete_m153213906
Rna:__ZL24FindBelongingStructParamRPKcRNSt3__26vectorIN9ShaderLab20SerializedSubProgram14ConstantBufferENS2_9allocatorIS6_EEEE
c9b:__ZN12LightManager15InitializeClassEv
kXf:_WaitHandle__cctor_m4242752477
e0a:__ZN9ShaderLab11shaderprops16GetComputeBufferEPK19ShaderPropertySheetS3_NS_16FastPropertyNameE
hJj:__ZN6il2cpp6icalls8mscorlib6System10Reflection10MethodBase31GetMethodFromHandleInternalTypeEii
X_:__ZN18ScriptingArgumentsC2Ev
Nag:_Vector3_op_Equality_m4231250055
S0j:_emscripten_glBlendFuncSeparate__wrapper
Aff:_FileSystemInfo__ctor_m3769019897
Rth:_Array_InternalArray__get_Item_TisContentType_t1787303396_m421427711_gshared
$ua:__Z17HasSampledTexture14GraphicsFormat13formatSupport
EPb:__ZNK25CameraStackRenderingState27GetStereoImageEffectTextureEb
iId:_HMACSHA384__ctor_m1677515580
pjf:_RIPEMD160Managed_J_m1336489154
Dp:__ZN8Vector3f8TransferI14SafeBinaryReadEEvRT_
Yej:__ZN6il2cpp6icalls6System6System3Net7Sockets6Socket7ReceiveEiP11Il2CppArrayiiNS4_11SocketFlagsEPi
Go:FUNCTION_TABLE_ii
NSa:__ZN10TagManager8TransferI18StreamedBinaryReadILb0EEEEvRT_
Quc:__Z18Transfer_BlittableI9JSONWriteLb0E8BitFieldEvRK29SerializationCommandArgumentsR31RuntimeSerializationCommandInfo
xhf:_MemoryStream_set_Capacity_m1773624579
Mtj:__ZNK15dense_hashtableINSt3__24pairIK10KeyWrapperINS1_IP11Il2CppClassjEEES4_EES6_N6il2cpp8metadata14ArrayClassHashEN14dense_hash_mapIS6_S4_SB_NS6_14EqualsComparerINSA_17ArrayClassCompareEEENS0_9allocatorIS8_EEE9SelectKeyESF_SH_E10test_emptyEj
Q5e:_GC_SuppressFinalize_m1177400158
aja:__ZNSt3__26vectorIN9ShaderLab20SerializedSubProgram15StructParameterENS_9allocatorIS3_EEE8__appendEj
vb:invoke_diiii
x$j:b47
K7g:__Z95RuntimeInvoker_Void_t1185182177_RuntimeObject_RuntimeObject_SByte_t1669577662_SByte_t1669577662PFvvEPK10MethodInfoPvPS4_
rNa:__Z24CreateDirectoryRecursiveRKN4core12basic_stringIcNS_20StringStorageDefaultIcEEEE
j$j:b41
wla:__ZN9ShaderLab20SerializedSubProgram8TransferI18StreamedBinaryReadILb0EEEEvRT_
i$j:b40
Nfi:__ZL54ContextMenu_t1295656858_CustomAttributesCacheGeneratorP21CustomAttributesCache
y9:__ZN13RuntimeStaticI21ScalableBufferManagerLb0EE13StaticDestroyEPv
VRc:__ZN2UI13CanvasManager9AddCanvasEPNS_6CanvasE
_9a:__ZN9Texture3D8TransferI19StreamedBinaryWriteILb0EEEEvRT_
hQb:__ZNK6Camera22CalculateRenderingPathEv
iwc:__ZN9JSONWrite8TransferI5RectTIfEEEvRT_PKc17TransferMetaFlags
tC:__ZN11UnityEngine9Animation37SetGenericRootTransformPropertyValuesERKNS0_30AnimatorGenericBindingConstantERKN7mecanim10ValueArrayER9Transformbb
mEa:__Z13ConvertMipmap14GraphicsFormatPKvS_Pviiii
lvb:__ZL12InvokeMethodI17RemapPPtrTransferEvRK29SerializationCommandArgumentsR31RuntimeSerializationCommandInfo
zsf:_StringComparer_Compare_m991165676
cIc:_tt_sbit_decoder_load_image
ROi:_U3CStartU3Ec__Iterator0_Dispose_m261027331_gshared
kFa:__ZN4core8hash_mapIPK17RenderSurfaceBaseP13RenderTexture19PointerHashFunctionIS3_ENSt3__28equal_toIS3_EEE6insertERKNS8_4pairIKS3_S5_EE
iqc:__ZNSt3__24listIN10GUIManager12SortedScriptE11memory_poolIS2_EE6__sortI13OldSortScriptEENS_15__list_iteratorIS2_PvEESA_SA_jRT_
Vzh:_Collection_1_System_Collections_IList_Add_m3364892189_gshared
NNg:_List_1_AddEnumerable_m3500350831_gshared
Tle:_PrivateKeyInfo_get_PrivateKey_m3647771102
Jwj:__ZN6il2cpp6icalls8mscorlib6System9ThreadingL11ThreadStartEPv
ifa:__ZN15DirectorManager12OnSampleTimeEv
Kkd:_TypeBuilder_check_not_created_m3652863637
y9c:_StandaloneInputModule_UpdateModule_m450861257
r1i:_Font_add_textureRebuilt_m2164317336
OLh:_ReadOnlyCollection_1_System_Collections_IList_Insert_m2928873627_gshared
UBg:_EqualityComparer_1__cctor_m314889309_gshared
s6:__ZN12CachedReader10Align4ReadEv
wBi:_X501__cctor_m2428304915
B2i:_Canvas_get_renderOrder_m1489855841
gZg:__Z50RuntimeInvoker_Void_t1185182177_Single_t1397266774PFvvEPK10MethodInfoPvPS4_
nQi:_Event_ToString_m1688862299
pKa:__ZNK9Behaviour22GetTypeVirtualInternalEv
e6e:_CCGregorianCalendar_month_from_fixed_m4268992710
Gxf:_Array_compare_TisUICharInfo_t75501106_m1310495481_gshared
IZb:__Z21GetScriptingArraySize17ScriptingArrayPtr
qNc:__ZN20TextRenderingPrivate8FontImpl8TransferI14SafeBinaryReadEEvRT_
bKh:_ReadOnlyCollection_1_System_Collections_IList_Clear_m4022532825_gshared
bSf:_Encoding_get_ASCII_m3595602635
Qra:__ZN9GfxDevice17ImmediateTexCoordEifff
EEe:_DerivedType_GetCustomAttributes_m3536779709
D3h:__ZL93Interlocked_t2273387594_CustomAttributesCacheGenerator_Interlocked_CompareExchange_m388540288P21CustomAttributesCache
Skd:_MethodBase_get_IsAbstract_m428833029
Ovb:__Z35Transfer_Blittable_FixedBufferFieldI24GenerateTypeTreeTransferhEvRK29SerializationCommandArgumentsR31RuntimeSerializationCommandInfo
L_j:_emscripten_glUniform4f__wrapper
lIg:_Enumerator_MoveNext_m2595190390_AdjustorThunk
dzf:_Array_InternalArray__IndexOf_TisColor32_t2600501292_m3783551884_gshared
GY:__ZNK6Camera16GetProjectionFarEv
Uq:__Z24InverseTransformRotationRK23TransformAccessReadOnlyRKN4math7_float4E
wCi:_X509Chain_Build_m2469702749
jM:__ZN11AudioSource6UpdateEv
o2c:__Z31GetPerformanceReportingSettingsv
h2a:__ZNK14PlayableOutput11DerivesFromE17ScriptingClassPtr
Lvd:__ZN25GenericVirtActionInvoker06InvokeEPK10MethodInfoP12Il2CppObject
V3:__ZN12BaseRenderer25FlattenSharedMaterialDataILb0EEEvRKS_R22PerThreadPageAllocatorR10RenderNode
Ikd:_TypeBuilder_DefineConstructor_m2989882735
ZPa:__ZN25SingleBlockMemoryFileDataC2E10MemLabelIdPvjb
BD:__ZN8Animator8TransferI14SafeBinaryReadEEvRT_
wYb:__ZN27IntermediateRendererManager24GetIntermediateRenderersEi
O1:__Z23AsyncReadForceCloseFileRKN4core12basic_stringIcNS_20StringStorageDefaultIcEEEE
bu:__ZN17AnimationPlayable34CollectAnimatorControllerPlayablesER13dynamic_arrayIP26AnimatorControllerPlayableLj4EE
fP:__ZN16BaseVideoTexture19UpdateVideoTexturesEv
Tnd:_MonoField_GetValue_m3124733531
DWa:__Z28BuildSingleStreamChannelInfo17ShaderChannelMaskRK20VertexChannelsLayoutS_S2_P11ChannelInfo
D7a:__ZN6Sprite23VirtualRedirectTransferER19StreamedBinaryWriteILb0EE
a7b:__ZN2UI13RectTransform12SetAnchorMaxERK8Vector2f
l6c:_EventTrigger_Execute_m2453060771
bNh:_Comparison_1_Invoke_m517083441_gshared
I3g:__Z253RuntimeInvoker_Int32_t2950945753_RuntimeObject_Int32_t2950945753_Int32_t2950945753_RuntimeObject_Int32_t2950945753_UInt32U26_t3735378166_UInt32U26_t3735378166_RuntimeObject_DecoderFallbackBufferU26_t3866396827_ByteU5BU5DU26_t4057885439_SByte_t1669577662PFvvEPK10MethodInfoPvPS4_
rkj:__ZNK15dense_hashtableINSt3__24pairIK10KeyWrapperINS1_IPK9FieldInfoP11Il2CppClassEEEjEES9_17ReflectionMapHashIS8_EN14dense_hash_mapIS9_jSD_NS9_14EqualsComparerINS0_8equal_toIS8_EEEENS0_9allocatorISB_EEE9SelectKeyESI_SK_E5beginEv
coa:__ZNK9ShaderLab7Program19HasMatchingVariantsERK13dynamic_arrayI16ShaderKeywordSetLj4EE
xB:__ZN15SerializeTraitsIN4math4trsXEE8TransferI8BlobSizeEEvRS1_RT_
Kva:__ZN14DataBufferGLES11CopySubDataEPKS_jjj
ke:_emscripten_glVertexPointer
YTc:__ZN2UI13PrepareOutputERNS_7BatchesEjjNS_30AdditionalCanvasShaderChannelsE
iij:__ZN6il2cpp2vm7Runtime47RaiseExecutionEngineExceptionIfMethodIsNotFoundEPK10MethodInfo
gFi:_PatternCompiler_GetMachineFactory_m3758869886
FVb:__Z17GetFrustumPortionPK8Vector3fffPS_
tzj:__ZN15dense_hashtableINSt3__24pairIK10KeyWrapperIP14Il2CppIUnknownEjEES5_N6il2cpp5utils11PointerHashIS3_EEN14dense_hash_mapIS5_jSB_NS5_14EqualsComparerINS0_8equal_toIS4_EEEENS0_9allocatorIS7_EEE9SelectKeyESG_SI_E14squash_deletedEv
C6c:_EventTrigger_OnCancel_m585099428
zRi:_GUILayoutEntry_ApplyOptions_m1741659338
OEd:_RuntimeTypeHandle_Equals_m2857439487_AdjustorThunk
Hpa:__ZNK9GfxDevice27GetPlatformAdjustedViewportEv
iHh:_ReadOnlyCollection_1_System_Collections_Generic_IListU3CTU3E_set_Item_m88350439_gshared
jVi:_StandardEventPayload_IsRequiredDataValid_m361738930
JOh:_Func_3_Invoke_m1194147890_gshared
QHi:_Reference_Compile_m4195878675
wJh:_ReadOnlyCollection_1_System_Collections_ICollection_CopyTo_m2672196987_gshared
sqf:_String_System_IConvertible_ToChar_m863771412
zmg:_RectTransform_get_anchorMin_m2928307238
U$e:_ArrayList__ctor_m3828927650
Sta:__ZThn9568_N13GfxDeviceGLES26EnableScissorRectsPlatformEv
VGa:__ZN10Matrix3x3f15InvertTransposeEv
LRi:_GUILayoutGroup_SetHorizontal_m996475327
CRi:_GUILayoutEntry__cctor_m663865902
HNb:__Z11IsBatchmodev
WGg:_Enumerator_System_Collections_IEnumerator_get_Current_m713684915_gshared
Ntb:__Z29Transfer_Blittable_ArrayFieldI14SafeBinaryRead8Vector3fEvRT_R9ArrayInfoRK23StaticTransferFieldInfo
fOc:__ZN20TextRenderingPrivate8FontImpl18ResetCachedTextureEv
xgj:__ZN6il2cpp6icalls8mscorlib6SystemL16GetFieldFromTypeINS_5utils10functional6FilterINSt3__212basic_stringIcNS7_11char_traitsIcEENS7_9allocatorIcEEEENS4_13VmStringUtils21CaseSensitiveComparerEEEEEP21Il2CppReflectionFieldP11Il2CppClassSK_iRKT_
noc:__Z27Screen_Get_Custom_PropWidthv
TLj:_GC_print_finalization_stats
qSi:_GUITargetAttribute_GetGUITargetAttrValue_m2954410352
Cic:__Z53Register_UnityEngine_Behaviour_get_isActiveAndEnabledv
YXe:_SimpleEnumerator_get_Current_m72361444
sq:__ZNSt3__26vectorIN4core12basic_stringIcNS1_20StringStorageDefaultIcEEEENS_9allocatorIS5_EEE8__appendEj
uP:__ZN13ProduceHelperI10SampleClipLb0EE7ProduceE10MemLabelId18ObjectCreationMode
vgb:__ZN26PlayerSettingsSplashScreen8TransferI17RemapPPtrTransferEEvRT_
V5f:_ASN1_set_Value_m2803403806
Egj:__ZN6il2cpp6icalls8mscorlib6SystemL17CollectTypeFieldsINS_5utils10functional10TrueFilterEEEvP11Il2CppClassPKS7_iRNSt3__26vectorIP9FieldInfoNSB_9allocatorISE_EEEERKT_
n4b:__Z13GetTagManagerv
AVe:_Hashtable__ctor_m1815022027
YUf:_UTF8Encoding_GetChars_m1433288684
S4i:__ZL10roundUp128PyS_
AR:__ZN11UnityEngine15CloudWebService17CloudJobSchedulerD0Ev
ql:_glGetIntegeri_v
jXd:_ArrayReadOnlyList_1_Contains_m381552673_gshared
GYf:_TimeZone_ToUniversalTime_m2789507578
cZg:__Z96RuntimeInvoker_Boolean_t97287965_RuntimeObject_RuntimeObject_Int32_t2950945753_Int32_t2950945753PFvvEPK10MethodInfoPvPS4_
hyf:_Array_IndexOf_TisUICharInfo_t75501106_m3198896198_gshared
rSc:__ZNK2UI11CanvasGroup22GetTypeVirtualInternalEv
Jqe:_Context_get_Current_m2853615040
Cqc:__Z21CleanupGlobalGUIStatev
KZf:_Type_IsContextfulImpl_m3693603908
KHg:_Enumerator_VerifyState_m2873941769_gshared
aDb:__Z18Transfer_BlittableI18StreamedBinaryReadILb0EELb1EN4math12int3_storageEEvRK29SerializationCommandArgumentsR31RuntimeSerializationCommandInfo
sIa:__ZN22VertexDeclarationCache5ClearEv
tGd:_CspParameters__ctor_m3852972821
L0b:__ZN17PersistentManager12SetPathRemapERKN4core12basic_stringIcNS0_20StringStorageDefaultIcEEEES6_
gXb:__ZN6Camera24PrepareCullingParametersERK23CameraCullingParameters13RenderingPathR11CullResults
gfc:__Z12SetIUISystemP9IUISystem
Nib:__ZN19RuntimeSceneManager22EndIntegrateMainThreadEP10UnitySceneNS_11LoadingModeE
Gqh:_Array_Sort_TisUICharInfo_t75501106_m3474449559_gshared
nvb:__Z26Transfer_UnityEngineObjectI17RemapPPtrTransferLb0EEvRK29SerializationCommandArgumentsR31RuntimeSerializationCommandInfo
dGi:_QuickSearch_GetShiftDistance_m2542665852
qth:_Array_InternalArray__get_Item_TisCustomAttributeTypedArgument_t2723150157_m2639399822_gshared
h4f:_BigInteger_GenerateRandom_m3141592944
Ixb:__Z29Transfer_Blittable_ArrayFieldI24GenerateTypeTreeTransfer4AABBEvRT_R9ArrayInfoRK23StaticTransferFieldInfo
URe:_Interval_Contains_m1454846757
Ogd:_Graphic_CacheCanvas_m1120385152
MSj:_emscripten_GetProcAddress
Ca:invoke_fiiifii
gUj:_modff
BZa:__ZN20SphericalHarmonicsL219AddDirectionalLightERKN4math7_float3ERKNS0_7_float4E
$ea:__Z26ScheduleJobForEachInternalR8JobFencePFvPvjES1_iPFvS1_E11JobPriority
sNb:__ZZ23InitPlayerLoopCallbacksvEN41PostLateUpdateProfilerEndFrameRegistrator7ForwardEv
zfc:__ZN9Scripting18RaiseMonoExceptionEPKcz
TRc:__ZN2UI13UIInstruction19ClearSharedMeshDataER8JobFence
Cbc:__ZN10GameObject17WillHandleMessageERK17MessageIdentifier
wnf:_StrongNamePublicKeyBlob_Equals_m3655422942
tof:_SecurityContext__ctor_m1730177197
M3i:_RectTransformUtility_GetTransposed_m3952754222
B9b:__ZN9ShaderLab16FastPropertyName15InitBy28BitHashEj
LMg:_List_1_System_Collections_IList_set_Item_m4182383657_gshared
k0g:__Z96RuntimeInvoker_Void_t1185182177_Int32_t2950945753_Single_t1397266774_RuntimeObject_RuntimeObjectPFvvEPK10MethodInfoPvPS4_
v9d:_Enumerator_System_Collections_IDictionaryEnumerator_get_Key_m195047678_AdjustorThunk
A2i:_Canvas_get_pixelPerfect_m333060872
_ab:__ZN17PackedFloatVector12UnpackFloatsEPfiiii
Pz:__ZN17AnimationPlayable28UpdateInternalStateRecursiveILi3ELb0EEEvPK35AnimationPlayableEvaluationConstant
Qsa:__ZN13GfxDeviceGLES21DestroyComputeProgramER12ObjectHandleI18ComputeProgram_TagPvE
CFi:_PatternCompiler_EmitIfDefined_m2075050865
XMf:_Decimal_System_IConvertible_ToInt64_m1446427516_AdjustorThunk
Oca:__ZN17UniqueIDGenerator16DestroyPureIndexEj
Iye:_NotImplementedException__ctor_m3095902440
h0:__ZL21AppendNestedClassName17ScriptingClassPtrRN4core17string_with_labelILi1EEE
Jia:__ZN14SafeBinaryRead21TransferSTLStyleArrayINSt3__26vectorIN9ShaderLab20SerializedSubProgram12UAVParameterENS1_9allocatorIS5_EEEEEEvRT_17TransferMetaFlags
u1i:_FontTextureRebuildCallback_Invoke_m3604797831
KS:__ZN24TextDOMTransferWriteBaseI9JSONWriteE12PushMetaFlagEi
E_h:__ZL59_PropertyBuilder_t1366136710_CustomAttributesCacheGeneratorP21CustomAttributesCache
wBa:__ZN6prcoreL26RemapGenericIntegerToFloatI17TexFormatARGB888815TexFormatRFloatEEvPKNS_9InnerInfoE
Qfj:__ZN6il2cpp2vm10ThreadPool10InitializeEv
jQg:_List_1__ctor_m808270210_gshared
Mqj:__ZN6il2cpp2vm17TypeNameParseInfoD2Ev
IEg:_PrimeHelper_ToPrime_m3704362632_gshared
kJ:__ZN4FMOD7Channel7setModeEj
FMf:_Decimal_System_IConvertible_ToType_m2919262279
hrg:_Vector2_get_right_m1027081661
NX:__ZNK8Renderer8GetLayerEv
uif:_Stream_Close_m771352034
q7d:__ZN21InterfaceFuncInvoker1Ii19TimeSpan_t881159249E6InvokeEjP11Il2CppClassP12Il2CppObjectS0_
QRb:__ZNK6Camera20GetReplacementShaderEv
jTg:_List_1_System_Collections_IList_Remove_m4226673807_gshared
gQj:__ZNSt3__26__treeINS_12__value_typeINS_12basic_stringIcNS_11char_traitsIcEENS_9allocatorIcEEEEPFvvEEENS_19__map_value_compareIS7_SA_NS_4lessIS7_EELb1EEENS5_ISA_EEE4findIS7_EENS_15__tree_iteratorISA_PNS_11__tree_nodeISA_PvEEiEERKT_
Lya:__ZL23stbir__calculate_memoryP11stbir__info
Zce:_KeyCollection_System_Collections_Generic_ICollectionU3CTKeyU3E_Clear_m1261840136_gshared
aRe:_Interpreter_Close_m126356671
tab:__ZNK6Camera18GetRenderRectangleEv
O8a:__ZN13sorted_vectorIN4core12basic_stringIcNS0_20StringStorageDefaultIcEEEENSt3__24lessIS4_EE13stl_allocatorIS4_L18MemLabelIdentifier81ELi16EEE4findIS4_EENS5_11__wrap_iterIPS4_EERKT_
uGi:_Parser_HandleExplicitNumericGroups_m1412234891
Pth:_Array_InternalArray__get_Item_TisRaycastHit2D_t2279581989_m2440275162_gshared
SCe:_CustomAttributeNamedArgument_Equals_m1414002036
Jxc:__ZL26Transfer_SimpleNativeClassI8JSONRead10RectOffsetLb1EEvRK29SerializationCommandArgumentsR31RuntimeSerializationCommandInfo
Zgg:_Material_SetInt_m475299667
FVc:__Z44CanvasRenderer_CUSTOM_INTERNAL_CALL_SetColorP12Il2CppObjectRK10ColorRGBAf
mGg:_Enumerator_System_Collections_IEnumerator_Reset_m959124362_AdjustorThunk
oQf:_Enum_ToObject_m121831801
bjd:_Image_get_hasBorder_m3423344180
yuc:__Z18Transfer_BlittableI9JSONWriteLb1EsEvRK29SerializationCommandArgumentsR31RuntimeSerializationCommandInfo
bZc:__Z48UnityAnalyticsHandler_CUSTOM_SendCustomEventNameP12Il2CppObjectP12Il2CppString
ggc:__ZN9Transform16SetLocalRotationERK11Quaternionf
igd:_FontData_set_richText_m993590067
eOb:__ZN13RenderManager37RenderCamerasWithScriptableRenderLoopEi
wXf:_TimeSpan__ctor_m3689759052
GB:__ZN7mecanim8skeleton25SkeletonPoseComputeLocalQEPKNS0_8SkeletonEPKNS0_13SkeletonPoseTIN4math4trsXEEEPS7_ii
zmh:__Z37RuntimeInvoker_Enumerator_t3123848928PFvvEPK10MethodInfoPvPS4_
ACj:__ZN6il2cpp2os19ReleaseSocketHandleEj
sO:__ZN11AudioModule16GetDSPSampleRateEv
TKb:__ZN15InstancingProps11NewConstantERKN9ShaderLab16FastPropertyNameEj15ShaderParamTypehhjjP6Object
yJd:_InputField_get_characterValidation_m4196664041
OYf:_Type_get_Attributes_m58528356
NSe:_Array_GetUpperBound_m4018715963
dDi:_X509Store__ctor_m2736551756
BEj:__ZN6il2cpp2os5posix15PosixWaitObjectC2ENS2_4TypeE
bQb:__ZN6Camera21PostMultiCustomRenderENS_10RenderFlagEb
nnh:_Array_InternalArray__Insert_TisMonoResource_t4103430009_m1997865927_gshared
slf:_SHA512Managed_HashFinal_m2173184560
HKb:__ZN23ShaderVariantCollection13WarmupShadersEv
m7b:__ZN13ProduceHelperI9TransformLb0EE7ProduceE10MemLabelId18ObjectCreationMode
R$:__Z25GetCommonScriptingClassesv
kjb:__Z27scripting_gc_collect_unsafei
tle:_MD5SHA1_HashFinal_m4115488658
xO:__ZN11AudioModule20SuspendVideoTexturesEv
Lzf:_Array_InternalArray__ICollection_Add_TisKeyValuePair_2_t71524366_m3468275433_gshared
e1i:_AudioSettings_InvokeOnAudioManagerUpdate_m4044425648
yQ:__Z59Register_UnityEngine_AudioExtensionManager_GetAudioListenerv
$wb:__Z26Transfer_UnityEngineObjectI24GenerateTypeTreeTransferLb0EEvRK29SerializationCommandArgumentsR31RuntimeSerializationCommandInfo
PGf:_Convert_ToDouble_m278900635
TEc:_UNITY_FT_GlyphLoader_CheckPoints
wdg:_DebugLogHandler_LogException_m302830419
uLd:_InputField_LineDownCharacterPosition_m2798128425
Yae:_Enumerator_System_Collections_IDictionaryEnumerator_get_Value_m684446183_AdjustorThunk
UXa:__ZN15SharedLightData7PrecalcEv
$1:__ZN10Matrix4x4fmLERKS_
nlg:_Vector2__ctor_m3970636864
xAb:__Z35Transfer_Blittable_FixedBufferFieldI18StreamedBinaryReadILb1EEsEvRK29SerializationCommandArgumentsR31RuntimeSerializationCommandInfo
G4e:_Environment_InternalGetFolderPath_m468390978
QOa:__ZN15ArchiveReadFileD0Ev
P_c:__ZN11UnityEngine15PlatformWrapper18GetOperatingSystemEv
bpf:_SecurityFrame_ToString_m339310712
lyc:__ZN8GUIStyle8TransferI8JSONReadEEvRT_
$9c:_TouchInputModule_ProcessTouchPress_m3504077560
tUd:_Selectable_IsInteractable_m2611421038
wEc:_FT_MSB
Z2j:_emscripten_glReadPixels__wrapper
ZEg:_HashSet_1_Add_m1971460364_gshared
wQj:__ZN6il2cpp6icalls8mscorlib4Mono8Security12Cryptography18KeyPairPersistence10_CanSecureEP12Il2CppString
Stf:_Array_InternalArray__ICollection_Contains_TisParameterModifier_t1461694466_m1000453323_gshared
Mwg:_Dictionary_2_System_Collections_ICollection_CopyTo_m4047192178_gshared
Fij:__ZN6il2cpp2os4File11GetFileStatERKNSt3__212basic_stringIcNS2_11char_traitsIcEENS2_9allocatorIcEEEEPNS0_8FileStatEPi
Vif:_RIPEMD160Managed_Initialize_m2173168986
o9b:__ZN9TransformC2E10MemLabelId18ObjectCreationMode
apa:__ZN13GfxDeviceGLES14SetRasterStateEPK17DeviceRasterState
FBe:_Assembly_ToString_m2053237013
Chg:_Vector4_Equals_m1779210055
NGc:_otv_Coverage_get_count
Ppd:_ParameterModifier_t1461694466_marshal_pinvoke_back
S2:__ZN14SafeBinaryRead11EndTransferEv
dDg:_EqualityComparer_1__cctor_m2741186979_gshared
Nrb:__ZN14SafeBinaryRead8TransferI8MonoPPtrEEvRT_PKc17TransferMetaFlags
eQf:_Enum_System_IConvertible_ToUInt16_m4216751959
CGa:__ZN21UniformBufferTFMethod13MapBoneBufferEj
fCf:_Array_InternalArray__Insert_TisInt32_t2950945753_m4073217122_gshared
wjf:_RNGCryptoServiceProvider_RngClose_m3915778345
mDf:_SortedList_Remove_m2784369438
Ixa:__ZN4crnd12crn_unpacker10unpack_dxnEPPhjjj
B0:__ZN14SerializedFileD2Ev
jrc:__Z30Event_Get_Custom_PropModifiersP12Il2CppObject
qu:__ZN7mecanim9animation16CreateClipOutputEPKNS0_4ClipERNS_6memory9AllocatorE
aQd:_RawImage_get_mainTexture_m2396337033
R5i:_CustomEventData_Add_m1638466298
mjj:__ZN6il2cpp2vm10Reflection17GetAssemblyObjectEPK14Il2CppAssembly
lFb:__ZNSt3__218__stable_sort_moveIRN10vector_mapI17ScriptingClassPtrPKN5Unity4TypeENS_4lessIS2_EENS_9allocatorINS_4pairIS2_S6_EEEEE13value_compareENS_11__wrap_iterIPSB_EEEEvT0_SJ_T_NS_15iterator_traitsISJ_E15difference_typeEPNSM_10value_typeE
lha:__ZN6Shader21AwakeFromLoadThreadedEv
yAa:__ZN6prcoreL17RemapGenericFloatI17TexFormatRGBFloat17TexFormatRGBAHalfEEvPKNS_9InnerInfoE
F_f:_UInt16_System_IConvertible_ToSingle_m2654722405_AdjustorThunk
Wqg:_Vector2_GetHashCode_m3916089713_AdjustorThunk
IRj:__ZN6il2cpp2os9SemaphoreC2Eii
Prb:__ZNSt3__26vectorI8MonoPPtr13stl_allocatorIS1_L18MemLabelIdentifier1ELi16EEE8__appendEj
GQb:__ZN14qsort_internal30FindAndMovePivotToLastPositionIP17RODataReplacementi19ROSorterReplacementEEvT_S4_T0_T1_
NGa:__ZN15UniformTFMethod20IsBoneCountSupportedEi
b1f:_UnauthorizedAccessException__ctor_m246605039
J8b:__Z12BuildTextureIA4_tPFvP9Texture2DPS0_iiiiEES2_PKcii13TextureFormatRKT0_17TextureColorSpaceb
wYj:dynCall_viidi
Jce:_KeyCollection__ctor_m1356492051_gshared
h$:__ZN24ScriptingMethodFiltering17FilterOnSignatureENS_18MethodSearchFilterE
j0b:__ZN18ScreenManagerWebGL13SetLockCursorE14CursorLockMode
Yne:_CipherSuite_DecryptRecord_m1495386860
UBi:_X509Certificate_VerifySignature_m3538124832
yif:_StreamAsyncResult_SetComplete_m1102187093
zIi:_CharacterClass_GetIntervalCost_m4036989868
Gui:__ZL64HorizontalLayoutGroup_t2586782146_CustomAttributesCacheGeneratorP21CustomAttributesCache
c6b:__ZN13MonoBehaviour19HandleNotificationsEPviR11MessageData
img:_RectOffset_Init_m2028508611
kSj:__ZN6il2cpp2os9EventImpl5ResetEv
Kme:_Alert__ctor_m3135936936
ndf:_Int64_System_IConvertible_ToInt32_m772105781
Oyi:_TlsClientSettings__ctor_m3220697265
nnj:__ZNK15dense_hashtableINSt3__24pairIK10KeyWrapperINS1_IPK9EventInfoP11Il2CppClassEEEjEES9_17ReflectionMapHashIS8_EN14dense_hash_mapIS9_jSD_NS9_14EqualsComparerINS0_8equal_toIS8_EEEENS0_9allocatorISB_EEE9SelectKeyESI_SK_E23find_position_with_hashERSA_j
U$j:b58
awg:_Dictionary_2_make_pair_m2250450206_gshared
FSf:_ForwardingDecoder_GetChars_m4228908854
vRe:_InterpreterFactory_get_GroupCount_m2226373271
N$j:b53
A$j:b50
B$j:b51
S$j:b56
T$j:b57
O$j:b54
R$j:b55
Y2f:_SimpleCollator_IsSafe_m310268646
HTe:_X509Certificate_get_RawData_m2387471414
z1j:_glDetachShader__wrapper
dYe:_ArrayTypeMismatchException__ctor_m3375008173
Lee:_Transform_1_BeginInvoke_m1757796657_gshared
ahh:__Z88RuntimeInvoker_Int32_t2950945753_UIVertex_t4057497605_UIVertex_t4057497605_RuntimeObjectPFvvEPK10MethodInfoPvPS4_
Xac:__ZN10GameObject12CleanupClassEv
Qpa:__ZN9GfxDevice25SetShaderPropertiesSharedERK19ShaderPropertySheet
Oad:_BaseMeshEffect_get_graphic_m1852367505
M2e:_CaseInsensitiveHashCodeProvider_GetHashCode_m2168170016
osf:_String_CreateString_m3400201881
kac:__ZL25InitializeDefaultMaterialv
eWc:__Z53Register_UnityEngine_CanvasRenderer_get_materialCountv
Wjd:_PropertyBuilder_GetCustomAttributes_m3798356764
Tpd:_PropertyInfo_get_MemberType_m2794839864
_Ui:_EventTrigger_RemoveRule_m1596811726
q8d:_Comparer_1_System_Collections_IComparer_Compare_m4179495191_gshared
bNa:__ZN17PersistentManager12UnloadStreamERKN4core12basic_stringIcNS0_20StringStorageDefaultIcEEEEb
QPa:__ZN10MemoryFile4ReadEyyPvPy
Lnh:_Array_InternalArray__Insert_TisUICharInfo_t75501106_m2924156520_gshared
Bzf:_MonoProperty_GetterAdapterFrame_TisRuntimeObject_TisRuntimeObject_m458718082_gshared
X6a:__ZN13ScreenManager17RequestResolutionEiibi
Qsj:_il2cpp_unity_liveness_calculation_from_statics
$x:__ZNK26AnimatorControllerPlayable11DerivesFromE17ScriptingClassPtr
G5d:_InternalEnumerator_1_System_Collections_IEnumerator_get_Current_m2649471526_gshared
l6:__ZN8Renderer8TransferI17RemapPPtrTransferEEvRT_
opa:__ZN13GfxDeviceGLES26UpdateViewProjectionMatrixEv
r9d:_Enumerator_System_Collections_IDictionaryEnumerator_get_Entry_m522483686_gshared
$7f:_PrivateKeyInfo_RemoveLeadingZero_m3921889925
eWf:_Thread_get_CurrentContext_m1695017876
f_b:__Z24LookRotationToQuaternionRK8Vector3fS1_P11Quaternionf
d_b:__ZN16ReflectionProbes9GetCameraEv
bna:__ZL18IsGpuProgramUsable20ShaderGpuProgramTypePK6Shader
GUc:__ZN2UI6Canvas17SetSortingLayerIDEi
yEj:__ZN6il2cpp2vm11MethodStack23CleanupForCurrentThreadEv
NEh:_Collection_1_ConvertItem_m618594517_gshared
yJf:_Convert_ToUInt64_m388601487
RVa:__ZN20TierGraphicsSettings8TransferI24GenerateTypeTreeTransferEEvRT_
Sbj:__ZN15dense_hashtableINSt3__24pairIK10KeyWrapperIN6il2cpp5utils13dynamic_arrayIPK10Il2CppTypeLj4EEEEPFvvEEESA_NS3_8metadata19Il2CppSignatureHashEN14dense_hash_mapISA_SD_SG_NSA_14EqualsComparerINSF_22Il2CppSignatureCompareEEENS0_9allocatorISE_EEE9SelectKeyESK_SM_E16reset_thresholdsEv
$hg:_Mesh_get_vertices_m3585684815
Ctb:__ZN14SafeBinaryRead21TransferSTLStyleArrayI13dynamic_arrayI4AABBLj4EEEEvRT_17TransferMetaFlags
opg:_TouchScreenKeyboard_get_text_m1797464608
q$b:__ZN26CustomRenderTextureManager25UpdateCustomRenderTextureEP19CustomRenderTexturei
bga:__ZNSt3__26__treeINS_12__value_typeIiN11TypeManager18TypeCallbackStructEEENS_19__map_value_compareIiS4_NS_4lessIiEELb1EEENS_9allocatorIS4_EEE7destroyEPNS_11__tree_nodeIS4_PvEE
iHb:__ZN13MonoBehaviour18TransferEngineDataI24GenerateTypeTreeTransferEE4PPtrI10MonoScriptERT_
Fcc:__ZNK14PlayableOutput23GetSourcePlayableUnsafeEv
JZc:__ZN11UnityEngine7Connect17XRDeviceInfoEventD0Ev
J$h:__ZL60SoapTypeAttribute_t1750930817_CustomAttributesCacheGeneratorP21CustomAttributesCache
kCe:_Binder_ConvertArgs_m2124461494
fW:__ZN21UnityDefaultAllocatorI17LowLevelAllocatorE10DeallocateEPv
Cs:__ZN15PackedIntVector8TransferI14SafeBinaryReadEEvRT_
jrg:_Vector3__ctor_m3353183577_AdjustorThunk
u_d:_InternalEnumerator_1_System_Collections_IEnumerator_get_Current_m1514266661_gshared
sle:_MD5SHA1_Initialize_m675470944
wAf:_Array_InternalArray__ICollection_Add_TisKeyframe_t4206410242_m442111799_gshared
alb:__ZN29AssetBundleLoadAssetOperation10GetGCRootsER13dynamic_arrayIiLj4EE
NH:__ZN13AudioListener8DoUpdateEv
_cf:_Int32_GetTypeCode_m1648562395_AdjustorThunk
fwe:__Z13bankers_roundd
kgb:__ZN14SafeBinaryRead8TransferI5RectTIfEEEvRT_PKc17TransferMetaFlags
wi:_emscripten_glGenFramebuffers
Xfa:__ZN17BaseObjectManager16StaticInitializeEPv
gMg:_List_1_CheckCollection_m2602703205_gshared
evc:__Z18Transfer_BlittableI9JSONWriteLb0EyEvRK29SerializationCommandArgumentsR31RuntimeSerializationCommandInfo
q$a:__ZN13RenderTexture15ThreadedCleanupEv
OMe:_X509BasicConstraintsExtension__ctor_m3721156175
H2a:__ZN12CubemapArray23VirtualRedirectTransferER14SafeBinaryRead
uu:__ZN21AnimationClipPlayable16ProcessHumanPassEPK35AnimationPlayableEvaluationConstantPK32AnimationPlayableEvaluationInputP33AnimationPlayableEvaluationOutput
X4e:_Path_GetFileName_m1354558116
n6f:_BitConverterLE_ToDouble_m1601000678
w0j:_emscripten_glUniform3i__wrapper
Slg:_Rect_Contains_m1232228501_AdjustorThunk
Nlc:__Z43RectTransform_CUSTOM_INTERNAL_set_sizeDeltaP12Il2CppObjectRK13Vector2fIcall
wdf:_Int64_System_IConvertible_ToType_m3223988955_AdjustorThunk
oAj:__ZN15dense_hashtableINSt3__24pairIK10KeyWrapperINS1_IPKcS4_EEEiEES6_24NamespaceAndNamePairHashN14dense_hash_mapIS6_iS9_NS6_14EqualsComparerI26NamespaceAndNamePairEqualsEENS0_9allocatorIS8_EEE9SelectKeyESD_SF_E6insertERKS8_
i6:__ZN24GenerateTypeTreeTransfer18BeginArrayTransferEPKcS1_Ri17TransferMetaFlags
Nth:_Array_InternalArray__get_Item_TisPlayableBinding_t354260709_m3837494573_gshared
wm:___syscall51
Tpc:__Z26BeforeDomainReloadCallbackv
REi:_MatchCollection_get_FullList_m1829231879
Am:___syscall54
VWe:_Array_GetValue_m2528415604
cqg:_Transform_INTERNAL_CALL_TransformPoint_m4261269221
Haf:_Guid_AppendShort_m791023083
gRg:_List_1__ctor_m4212503576_gshared
loa:__ZN9ShaderLab9SubShader19CreateFromSubShaderERKS0_
UEc:_cff_builder_add_point1
xBj:__ZN6il2cpp2vm5Image21GetCachedResourceDataEPK11Il2CppImageRKNSt3__212basic_stringIcNS5_11char_traitsIcEENS5_9allocatorIcEEEE
wqb:__Z18Transfer_BlittableI14SafeBinaryReadLb0E10ColorRGBAfEvRK29SerializationCommandArgumentsR31RuntimeSerializationCommandInfo
za:invoke_iiiiiiiiii
aQ:__ZN11AudioSource25GetNumExtensionPropertiesEv
IBf:_Array_InternalArray__ICollection_CopyTo_TisUILineInfo_t4195266810_m104406798_gshared
Q6b:__ZZL31RegisterRectTransformPropertiesR22GenericPropertyBindingEN32Wrapper_RectTransformAnchorMaxx013GetFloatValueEPv
hdg:_Debug_LogErrorFormat_m3558239521
Kgd:_Graphic_get_canvas_m3320066409
SKd:_InputField_ActivateInputFieldInternal_m3360893886
IDi:_RijndaelManagedTransform__ctor_m1033522223
r2b:__ZN10FileSystem19SetCurrentDirectoryERKN4core12basic_stringIcNS0_20StringStorageDefaultIcEEEE
gcg:_Component_get_gameObject_m442555142
iwe:_Math_Log_m2526073084
r7b:__ZN23TransformChangeDispatch24RemovePermanentInterestsE15TransformAccessPKN5Unity4TypeE
B6b:__ZN32TransformHierarchyChangeDispatch31RegisterPermanentInterestSystemEPKcPKN5Unity4TypeENS_12InterestTypeEPFvPK15TransformAccessjE
uic:__Z47Register_UnityEngine_Coroutine_ReleaseCoroutinev
yI:__ZN15AudioReverbZone13SetFMODValuesEv
XZ:__ZN14SafeBinaryRead4InitERK16TypeTreeIteratorxx24TransferInstructionFlags10MemLabelId
fha:__ZL19StaticDestroyShaderPv
fe:_glRenderbufferStorageMultisample
occ:__ZN8Playable4PlayEv
OCf:_SyncHashtable_Clone_m3726939774
lz:__ZN23AnimationPlayableOutput17SetTargetAnimatorEP8Animator
Bwc:__ZN9JSONWrite8TransferI13dynamic_arrayIN4math12int3_storageELj4EEEEvRT_PKc17TransferMetaFlags
WSb:__ZN22MotionVectorRenderLoopD2Ev
jdg:_Debug_LogException_m2207318968
Fzf:_Array_InternalArray__ICollection_Add_TisClientCertificateType_t1004704908_m2622721177_gshared
Ks:__ZN17PackedFloatVector8TransferI18StreamedBinaryReadILb0EEEEvRT_
I3a:__ZN7Cubemap23VirtualRedirectTransferER17RemapPPtrTransfer
qoc:__Z37Register_UnityEngine_Screen_get_widthv
s5i:_UnityAnalyticsHandler_SendCustomEvent_m1223269116
eKi:_Uri_get_Authority_m3816772302
Ddc:__ZN22BlockMemoryCacheWriter11GetPathNameEv
sje:_BigInteger_op_Division_m3713793389
fpg:_Touch_get_position_m3109777936
iVc:__ZZN2UI14CanvasRenderer15InitializeClassEvEN38FunctorImpl_902kCanvasHierarchyChanged4CallEPviR11MessageData
Xod:_ParameterInfo__ctor_m3269320476
PPe:_X509SubjectKeyIdentifierExtension_FromHexChars_m3244835916
Opf:_Single_CompareTo_m2785801815
DAi:_PKCS12_MAC_m3355614022
jp:stackAlloc
Oic:__Z44Camera_CUSTOM_INTERNAL_CALL_ScreenPointToRayP12Il2CppObjectRK8Vector3fR3Ray
aQa:__ZN25SingleBlockMemoryFileData4LockEPPv
c4j:_glProgramParameteri__wrapper
SZ:__ZN17PersistentManager23PostReadActivationQueueEiPK8TypeTreeb
rkc:__Z32RectOffset_Get_Custom_PropBottomP12Il2CppObject
cdg:_Debug_LogError_m2850623458
kYi:__ZL24UnresolvedVirtualCall_79P12Il2CppObjectPK10MethodInfo
VBh:_Collection_1_CheckWritable_m3225530705_gshared
sUj:_stat
D4:__ZN9ShaderLab10SubProgram7CompileEv
VKb:__ZN15InstancingProps14CombineBuiltinEN10Instancing11BuiltinPropES1_S1_
Pjd:_PropertyBuilder_get_CanRead_m3783190070
E0:__ZN14SerializedFile14SerializedTypeD2Ev
Mzf:_Array_InternalArray__ICollection_Add_TisKeyValuePair_2_t3699644050_m4052349323_gshared
joe:_CipherSuiteCollection_System_Collections_IList_get_Item_m2175128671
ZSa:__ZN6CameraD2Ev
la:invoke_iiiiiiiiiiii
BKf:_DateTime_System_IConvertible_ToType_m1242864300_AdjustorThunk
Q4d:_InternalEnumerator_1_get_Current_m2446410893_AdjustorThunk
CWa:__Z29CalculateDefaultChannelsToAdd17ShaderChannelMaskS_
CSa:__ZN10TagManager13RegisterLayerEjRKN4core12basic_stringIcNS0_20StringStorageDefaultIcEEEE
zIa:__ZNSt3__26__treeI20DeviceBlendStateGLES14MemoryCompLessI16DeviceBlendStateENS_9allocatorIS1_EEE7destroyEPNS_11__tree_nodeIS1_PvEE
k3i:_CanvasRenderer_SetMaterial_m633746949
vL:__ZN10AudioMixer12RebindOutputEv
iuj:__ZNK15dense_hashtableINSt3__24pairIK10KeyWrapperIP11Il2CppClassES4_EES5_N6il2cpp8metadata16SZArrayClassHashEN14dense_hash_mapIS5_S4_SA_NS5_14EqualsComparerINS9_19SZArrayClassCompareEEENS0_9allocatorIS7_EEE9SelectKeyESE_SG_E5beginEv
XNd:_LayoutRebuilder_PerformLayoutControl_m4241054021
i7i:__ZN6il2cpp2vm17SetupFieldsLockedEP11Il2CppClassRKNS_2os12FastAutoLockE
IJb:__ZNK9GfxDevice20IsViewportFullscreenEv
lDa:__ZN18GlslGpuProgramGLES13SwitchProgramEj
OQa:__ZN20ArchiveStorageReaderC2E10MemLabelId
CYg:__Z132RuntimeInvoker_Int32_t2950945753_RuntimeObject_Int32_t2950945753_Int32_t2950945753_RuntimeObject_Int32_t2950945753_Int32_t2950945753PFvvEPK10MethodInfoPvPS4_
Qob:__ZN16MemoryFileSystem4NameEv
lpf:_Single_System_IConvertible_ToBoolean_m1716619219_AdjustorThunk
loc:__Z13SetCopyBufferRKN4core12basic_stringIcNS_20StringStorageDefaultIcEEEE
fzi:_TlsException__ctor_m818940807
RTe:_X509CertificateEnumerator_System_Collections_IEnumerator_get_Current_m418791713
rXc:__ZN14UnityAnalyticsD2Ev
Qgc:__Z42ScriptingGetComponentsOfTypeFromGameObjectRK26ScriptingGetComponentsArgs
fhi:__ZL73ArgumentCache_t2187958399_CustomAttributesCacheGenerator_m_ObjectArgumentP21CustomAttributesCache
jrh:_Array_swap_TisRaycastResult_t3360306849_TisRaycastResult_t3360306849_m3400922624_gshared
M0i:_AudioListener_ReadExtensionName_m929423100
sGd:_CspParameters__ctor_m2741097571
Q1a:__ZNSt3__27__sort4IRPFbRKNS_4pairIN9ShaderLab16FastPropertyNameEN18UnityPropertySheet11UnityTexEnvEEES8_EPS6_EEjT0_SD_SD_SD_T_
SDc:_cf2_hintmap_build
Sog:_Texture_get_width_m888163864
$Mc:_Line_Up
kCb:__Z29Transfer_Blittable_ArrayFieldI18StreamedBinaryReadILb1EExEvRT_R9ArrayInfoRK23StaticTransferFieldInfo
me:_emscripten_glBufferSubData
Lrf:_String_ReplaceUnchecked_m1381393810
v7d:_DefaultComparer_Compare_m3278268937_gshared
aq:__Z17CalculateGlobalRS23TransformAccessReadOnly
VOj:__ZNSt3__210__list_impIPN6il2cpp5utils10MemoryPool6RegionENS_9allocatorIS5_EEE5clearEv
ytb:__ZN14SafeBinaryRead21TransferSTLStyleArrayI13dynamic_arrayI9BoundsIntLj4EEEEvRT_17TransferMetaFlags
klb:__ZN22MemoryCacherReadBlocks14LockCacheBlockEjPPhS1_
vqj:__ZN6il2cpp2vm14TypeNameParser17ParseAssemblyNameEv
oab:__ZNK9GfxDevice26GetSinglePassStereoEyeMaskEv
tdg:_DebugLogHandler_Internal_Log_m4175774469
QIj:__ZN4utf88internal15increase_safelyIPKcEENS0_9utf_errorERT_S5_
zai:__ZL66StaticAccessorAttribute_t2432663902_CustomAttributesCacheGeneratorP21CustomAttributesCache
GOc:__ZN20TextRenderingPrivate8FontImpl16CacheFontForTextEPtiifjPK13dynamic_arrayINS_16TextFormatChangeELj4EE
N$e:_CharEnumerator_get_Current_m525608209
E5c:__Z21ArrayElementTypeCheckP11Il2CppArrayPv
h3j:_emscripten_glTexSubImage2D__wrapper
COf:_StackTrace_init_frames_m641783388
BMe:_PublicKey_DecodeRSA_m1824703659
jWj:__ZNSt3__212basic_stringIcNS_11char_traitsIcEENS_9allocatorIcEEE6appendEjc
bFb:__Z13TransferFieldI18StreamedBinaryReadILb0EELb0E16Converter_StringEvRK23StaticTransferFieldInfoR31RuntimeSerializationCommandInfoRT1_
kXc:__Z42Register_UnityEngine_Canvas_get_rootCanvasv
I0e:_ArrayListWrapper_set_Item_m3849584877
Ve:_TTF_RenderText_Solid
CKg:_List_1__ctor_m3947764094_gshared
XIi:_Parser_IsIgnorePatternWhitespace_m2107132682
NJe:_HttpRequestCreator_Create_m400548686
O1c:__ZN11UnityEngine7Connect16PersistentValuesC2Ev
kLh:_ReadOnlyCollection_1_System_Collections_IList_Insert_m134149130_gshared
Kuc:__Z18Transfer_BlittableI9JSONWriteLb0E5RectTIiEEvRK29SerializationCommandArgumentsR31RuntimeSerializationCommandInfo
g4f:_BigInteger_get_Rng_m4216817480
$Cc:_cf2_getStdVW
Iuf:_Array_InternalArray__ICollection_Remove_TisDateTime_t3738529785_m2250893026_gshared
EDa:__Z15IsIEEE754Format14GraphicsFormat
svb:__Z19TransferField_ArrayI17RemapPPtrTransfer27Converter_UnityEngineObjectEvRK23StaticTransferFieldInfoR31RuntimeSerializationCommandInfoRT0_
Za:invoke_iifiii
w3e:_KeyNotFoundException__ctor_m541499307
cwf:_SetPropertyUtility_SetStruct_TisSpriteState_t1362986479_m665096788_gshared
YYg:__Z61RuntimeInvoker_Single_t1397266774_RuntimeObject_RuntimeObjectPFvvEPK10MethodInfoPvPS4_
Ouf:_Array_InternalArray__ICollection_Remove_TisIntPtr_t_m3807208150_gshared
H9g:__Z71RuntimeInvoker_Void_t1185182177_Vector3_t3722313464_Vector3_t3722313464PFvvEPK10MethodInfoPvPS4_
y1d:_InternalEnumerator_1_get_Current_m2316281569_AdjustorThunk
MFf:_DateTime__ctor_m1095105629
jra:__ZN13GfxDeviceGLES15UploadTexture2DE9TextureID16TextureDimensionPKhiii14GraphicsFormati18TextureUploadFlags16TextureUsageMode
WPi:_Event_Cleanup_m2477919477
rK:__ZN4FMOD6System9createDSPEP20FMOD_DSP_DESCRIPTIONPPNS_3DSPE
U3h:__ZL87Thread_t2300836069_CustomAttributesCacheGenerator_Thread_GetCompressedStack_m2923422412P21CustomAttributesCache
ute:_SslClientStream_get_ClientCertificates_m998716871
qG:__ZN4FMOD8ChannelI11EndCallbackEv
Oqc:__ZN8GUIStyle14SetDefaultFontEPN13TextRendering4FontE
p6a:__ZN15QualitySettings23VirtualRedirectTransferER24GenerateTypeTreeTransfer
PCd:_ObjectReader_ReadValue_m3145979203
Dbd:_CanvasScaler_OnDisable_m3424669401
Vsi:__ZL68Scrollbar_t1494447233_CustomAttributesCacheGenerator_m_NumberOfStepsP21CustomAttributesCache
faj:__ZN30dense_hashtable_const_iteratorINSt3__24pairIK10KeyWrapperIPK19Il2CppGenericMethodEPK26Il2CppGenericMethodIndicesEES6_N6il2cpp8metadata23Il2CppGenericMethodHashEN14dense_hash_mapIS6_SA_SE_NS6_14EqualsComparerINSD_26Il2CppGenericMethodCompareEEENS0_9allocatorISB_EEE9SelectKeyESI_SK_EppEv
FCc:_UNITY_FT_Request_Metrics
jzj:__ZN6il2cpp6icalls8mscorlib6System10Reflection10MonoMethod29get_IsGenericMethodDefinitionEP22Il2CppReflectionMethod
Evj:__ZN6il2cpp2vm6Thread21AllocThreadStaticDataEi
mCe:_Default_SelectMethod_m469311730
uHf:_Convert_ToInt16_m1223489986
_n:FUNCTION_TABLE_difi
XHj:__ZN30dense_hashtable_const_iteratorINSt3__24pairIK10KeyWrapperIPK19Il2CppGenericMethodEP10MethodInfoEES6_N6il2cpp8metadata23Il2CppGenericMethodHashEN14dense_hash_mapIS6_S9_SD_NS6_14EqualsComparerINSC_26Il2CppGenericMethodCompareEEENS0_9allocatorISA_EEE9SelectKeyESH_SJ_EppEv
_$f:_UInt32_ToString_m2066897296_AdjustorThunk
pP:__Z13RegisterClassI13AudioListenerEvv
N3e:_Enumerator_Reset_m4274366540
huc:__Z18Transfer_BlittableI9JSONWriteLb0E8Vector3fEvRK29SerializationCommandArgumentsR31RuntimeSerializationCommandInfo
Uf:_emscripten_glUniform4i
PGc:_otv_FeatureList_validate
ef:_emscripten_glUniform4f
Dj:___unlock
XFc:_otv_validate
N0b:__ZN13sorted_vectorINSt3__24pairIN4core12basic_stringIcNS2_20StringStorageDefaultIcEEEES6_EEN10vector_mapIS6_S6_27compare_tstring_insensitiveIS6_E13stl_allocatorIS7_L18MemLabelIdentifier38ELi16EEE13value_compareESD_E9erase_oneIS6_EEjRKT_
Nmf:_X509Certificate_Equals_m3784196370
WUg:_List_1__ctor_m3376067838_gshared
NM:__ZN20SoundChannelInstance19setReverbPropertiesEP29FMOD_REVERB_CHANNELPROPERTIES
QHg:_Enumerator_MoveNext_m1446151600_gshared
Bkf:_SHA1Internal_ProcessFinalBlock_m1403775421
Wnc:__Z40Register_UnityEngine_Transform_IsChildOfv
bAd:_RemotingServices_GetOrCreateClientIdentity_m648299611
S6d:_InternalEnumerator_1_get_Current_m2356858238_AdjustorThunk
Cjc:__Z45Register_UnityEngine_Display_GetSystemExtImplv
p8f:_RSAManaged_ImportParameters_m1844641996
y9d:_Enumerator_System_Collections_IDictionaryEnumerator_get_Value_m3325938730_AdjustorThunk
uv:__ZN7mecanim9animation23TransformValuesFromClipEiiiRKNS_10ValueArrayERKNS0_10ClipOutputERKNS0_12ClipBindingsERS1_RNS_14ValueArrayMaskEb
itg:_ValueCollection_System_Collections_ICollection_get_SyncRoot_m1114275063_gshared
Y4i:__ZL17log2withScale_128yyi
xaf:_Guid_Equals_m1866984197
mTc:__ZNSt3__218__insertion_sort_3IRNS_6__lessIN2UI14DepthSortEntryES3_EEPS3_EEvT0_S7_T_
p6b:__ZN2UI13RectTransform15InitializeClassEv
dBe:_PlatformNotSupportedException__ctor_m1787918017
Xda:__ZN13RuntimeStaticI15DirectorManagerLb0EE16StaticInitializeEPv
qIh:_ReadOnlyCollection_1_System_Collections_ICollection_CopyTo_m2643246984_gshared
Yeb:__ZN11TimeManager6UpdateEv
CIg:_Enumerator_System_Collections_IEnumerator_get_Current_m209407522_gshared
wbd:_CanvasScaler_get_fallbackScreenDPI_m2811935689
B6e:_DateTimeFormatInfo_ReadOnly_m890935083
zUj:_fflush
T3:__ZN17LightProbeContext4InitERK16LightmapSettingsRK14RenderSettings
dWb:__ZN18DeferredRenderLoop14RenderLightingER21ActiveLightingContextP13RenderTexture9TextureIDPS3_iRK8Vector4fRK14LightingLayersR10MinMaxAABBb12ObjectHandleI17RenderSurface_TagP17RenderSurfaceBaseE
Nng:_SceneManager_Internal_ActiveSceneChanged_m3676176255
FSj:__GLOBAL__sub_I_Error_cpp
_Of:_Double_System_IConvertible_ToInt16_m3591921965
y9a:__ZN9Texture3DD2Ev
BCh:_Collection_1_set_Item_m4280581817_gshared
aFf:_Convert_ToChar_m2796006345
Knh:_Array_InternalArray__Insert_TisContentType_t1787303396_m3566390691_gshared
b1e:_ArrayListWrapper_GetEnumerator_m2336495952
vYb:__Z34ProcessIndexListIsNodeVisibleStep2RK22SceneCullingParametersPK9SceneNodePK4AABBR9IndexList
sHb:__ZN10MonoScriptD2Ev
AHa:__ZN19ConstantBuffersGLES8UpdateCBE5CbKeyPKvj
q0i:_AudioSource_get_spatializeInternal_m2117549793
Okc:__Z39Input_CUSTOM_INTERNAL_get_mousePositionP8Vector3f
iDd:_SerializationCallbacks_GetMethodsByAttribute_m2095490433
CIc:_tt_cmap13_char_next
aoi:__ZL117EventSystem_t1003666588_CustomAttributesCacheGenerator_EventSystem_t1003666588____lastSelectedGameObject_PropertyInfoP21CustomAttributesCache
ioa:__ZN9ShaderLab4Pass16SetupPassOptionsEv
ih:_JS_Sound_ReleaseInstance
gqa:__ZN13GfxDeviceGLES19DrawBuffersIndirectEP9GfxBufferPK18VertexStreamSourceiP17VertexDeclaration17ShaderChannelMask16GfxPrimitiveType15ComputeBufferIDj
$9e:_Guid_CheckArray_m921056615
eud:_ConfigHandler_ReadLifetine_m208994800
P3g:__Z96RuntimeInvoker_IntPtr_t_SByte_t1669577662_SByte_t1669577662_RuntimeObject_BooleanU26_t4125257963PFvvEPK10MethodInfoPvPS4_
n_f:_UInt16_System_IConvertible_ToByte_m3185614807_AdjustorThunk
ylg:_Rect_get_max_m350137314_AdjustorThunk
Km:FUNCTION_TABLE_diddi
Rvj:__ZN6il2cpp6icalls8mscorlib6System5Array8FastCopyEP11Il2CppArrayiS5_ii
cmc:__Z26Material_CUSTOM_SetIntImplP12Il2CppObjectii
Ekc:__Z42Register_UnityEngine_RectOffset_get_bottomv
aUj:_newlocale
ztb:__ZN9BoundsInt8TransferI14SafeBinaryReadEEvRT_
k1j:_emscripten_glUniform1f__wrapper
fYj:dynCall_di
feg:_BaseInvokableCall_AllowInvoke_m878393606
Qtc:__Z28RegisterModule_JSONSerializev
Zlb:__ZN2UI13RectTransform8TransferI14SafeBinaryReadEEvRT_
avc:__Z35Transfer_Blittable_FixedBufferFieldI9JSONWriteaEvRK29SerializationCommandArgumentsR31RuntimeSerializationCommandInfo
kag:_Behaviour_get_enabled_m753527255
afc:__Z20IsHumanControllingUsv
WW:__ZNK20DynamicHeapAllocatorI17LowLevelAllocatorE10GetPtrSizeEPKv
KWh:__ZL51TextInfo_t3810425522_CustomAttributesCacheGeneratorP21CustomAttributesCache
qNa:__ZN10systeminfo21GetPersistentDataPathEv
Vpa:__ZN13GfxDeviceGLES17DestroyGpuProgramEPK10GpuProgram
Joh:_Array_InternalArray__set_Item_TisRaycastResult_t3360306849_m730888808_gshared
Vpb:__Z44InitializeTransferFunctionScriptingTraitsForI18StreamedBinaryReadILb0EEEvR31TransferFunctionScriptingTraits
yUb:__ZNSt3__218__insertion_sort_3IR23CompareReflectionProbesP31RuntimeReflectionProbeBlendInfoEEvT0_S5_T_
Cvb:__ZN12NativeBufferI27Converter_SimpleNativeClassI8GradientEE15SetupForWritingER9ArrayInfo
O4f:_Kernel_RightShift_m2207393597
Cga:__ZNSt3__213__stable_sortIRNS_4lessIN4core12basic_stringIcNS2_20StringStorageDefaultIcEEEEEENS_11__wrap_iterIPS6_EEEEvT0_SC_T_NS_15iterator_traitsISC_E15difference_typeEPNSF_10value_typeEi
Vvi:__ZL48Shadow_t773074319_CustomAttributesCacheGeneratorP21CustomAttributesCache
x8:__ZN12_GLOBAL__N_113StaticDestroyEPv
Y5j:_glUnmapBuffer__wrapper
Iyc:__ZN8JSONRead21TransferSTLStyleArrayINSt3__26vectorI8Gradient13stl_allocatorIS3_L18MemLabelIdentifier1ELi16EEEEEEvRT_17TransferMetaFlags
tfb:__ZNSt3__218__insertion_sort_3IRNS_6__lessINS_4pairIPKN5Unity4TypeE7Hash128EES8_EEPS8_EEvT0_SC_T_
WJd:_InputField_set_onValueChanged_m3658917578
kxb:__ZN10RectOffset8TransferI24GenerateTypeTreeTransferEEvRT_
Hef:_BinaryReader__ctor_m2266204403
Xne:__ZN21InterfaceFuncInvoker5IiP22ByteU5BU5D_t4116647657iiS1_iE6InvokeEjP11Il2CppClassP12Il2CppObjectS1_iiS1_i
DGg:_Enumerator_VerifyState_m3047769867_AdjustorThunk
wwb:__Z18Transfer_BlittableI24GenerateTypeTreeTransferLb1E5RectTIiEEvRK29SerializationCommandArgumentsR31RuntimeSerializationCommandInfo
Dqc:__ZN16GUIKeyboardStateD2Ev
YSc:__ZN2UI13CanvasManager19RemoveDirtyRendererEPNS_6CanvasEPNS_14CanvasRendererE
cTj:_isspace
ZAd:_BinaryFormatter__ctor_m2620705134
B_c:__ZN11UnityEngine15PlatformWrapper25GetGraphicsRendererStringEv
rUf:_UTF7Encoding_InternalGetBytes_m797138468
L6b:__ZZL31RegisterRectTransformPropertiesR22GenericPropertyBindingEN39Wrapper_RectTransformAnchoredPositiony113SetFloatValueEPvf
CV:__ZN11UnityEngine15CloudWebService17WebFileDownloaderINS0_20WebRequestRestClientENS0_23WebRequestRestHeaderMapEED2Ev
Sb:invoke_vi
oUe:_SmallXmlParser_HandleWhitespaces_m549588711
pwc:__ZN9JSONWrite8TransferI13dynamic_arrayI9BoundsIntLj4EEEEvRT_PKc17TransferMetaFlags
Qb:invoke_vd
rb:invoke_vf
NEi:_Regex_get_RightToLeft_m2317867572
C3:__ZNK10GameObject8IsActiveEv
jjc:__Z34Component_Get_Custom_PropTransformP12Il2CppObject
nmi:__ZL67g_UnityEngine_PhysicsModule_Assembly_CustomAttributesCacheGeneratorP21CustomAttributesCache
aDa:__ZN18GfxFramebufferGLES23SetupDefaultFramebufferEPP17RenderSurfaceBaseS2_N2gl6HandleILNS3_10ObjectTypeE9EEE
qed:_DefaultControls_CreateDropdown_m3286664171
t7a:__ZN13ScreenManager18RequestOrientationE17ScreenOrientation
H7i:__ZN6il2cpp2vm5Class12SetupMethodsEP11Il2CppClass
pgc:__Z39DeleteLastPathNameComponentWithAnySlashRKN4core12basic_stringIcNS_20StringStorageDefaultIcEEEE
Opc:__ZN10GUIManager14InitGUIManagerEv
P_f:_UInt16_Equals_m642257745
vWe:_Array_System_Collections_IList_IndexOf_m3301661616
PBe:_AssemblyFileVersionAttribute__ctor_m3720707642
rrd:_RuntimeResourceSet_CloneDisposableObjectIfPossible_m2725520898
Xrc:__Z37Register_UnityEngine_GUIStyle_Cleanupv
Ma:invoke_iiifii
zoc:__Z26Mesh_CUSTOM_SetIndicesImplP12Il2CppObjecti16GfxPrimitiveTypeP11Il2CppArrayihi
JUd:_SliderEvent__ctor_m3149452941
zTe:_DeriveBytes__cctor_m1212925033
_gd:_Graphic_OnDisable_m1097930217
ohj:__ZN6il2cpp6icalls8mscorlib6System8MonoType13IsPointerImplEP20Il2CppReflectionType
Vi:_emscripten_glFramebufferRenderbuffer
iXb:__ZN19CullingGroupManager17CullAndSendEventsERK22SceneCullingParametersiRK13CullingOutputRK8JobFence
$Ra:__ZN9Transform30EnsureTransformHierarchyExistsEv
LYf:_Type_FilterName_impl_m2651733559
jXe:_Array_GetValue_m116098292
eic:__Z46Register_UnityEngine_Application_get_isPlayingv
B0b:__ZNSt3__26vectorINS_4pairIN4core12basic_stringIcNS2_20StringStorageDefaultIcEEEEPK17MessageIdentifierEENS_9allocatorISA_EEE12__move_rangeEPSA_SE_SE_
HQb:__ZN14qsort_internal17MedianOfThreeSwapIP17RODataReplacement19ROSorterReplacementEEvT_S4_S4_T0_
Nqf:_String_Split_m3646115398
wmg:_RectOffset_ToString_m2007443979
x6i:__ZNK15dense_hashtableINSt3__24pairIK10KeyWrapperIPK22Il2CppGenericParameterEP11Il2CppClassEES6_N6il2cpp5utils11PointerHashIS4_EEN14dense_hash_mapIS6_S9_SE_NS6_14EqualsComparerINS0_8equal_toIS5_EEEENS0_9allocatorISA_EEE9SelectKeyESJ_SL_E3endEv
lgc:__ZN17TransformInternal36OnScaleChangedCalculateTransformTypeE15TransformAccess
cOa:__ZN17ArchiveFileSystem10ToAbsoluteEPKc
m$c:__ZN19UnityConnectService15GetPlayerUserIdEv
Vyf:_Array_InternalArray__IndexOf_TisSByte_t1669577662_m4156538463_gshared
sr:__ZN7mecanim6CRCKeyENS_7eStringE
Xdc:__ZL12SetPrefValueRKN4core12basic_stringIcNS_20StringStorageDefaultIcEEEERK9PrefValue
bab:__ZN19ShaderPropertySheet20ReservePropertyCountEj
wIj:__ZN6il2cpp5utils11StringUtils6PrintfEPKcz
yuj:__ZNSt3__26vectorIN6il2cpp8metadata18GenericArrayMethodENS_9allocatorIS3_EEE7reserveEj
Pma:__ZN15NameToObjectMapI6ShaderNSt3__23mapI4PPtrIS0_EN4core12basic_stringIcNS5_20StringStorageDefaultIcEEEENS1_4lessIS4_EENS1_9allocatorINS1_4pairIKS4_S9_EEEEEENS1_8multimapIS9_S4_NSA_IS9_EENSC_INSD_IKS9_S4_EEEEEEE4FindERSK_
f3a:__ZN24GenerateTypeTreeTransfer21TransferResourceImageE19ActiveResourceImagePKcR13StreamingInfoPvjiPKN5Unity4TypeE
Tqh:_Array_Sort_TisVector3_t3722313464_m1030213405_gshared
_Dj:__ZN6il2cpp2vm6Object5CloneEP12Il2CppObject
uQj:__ZN6il2cpp6icalls8mscorlib6System9Threading5Mutex20CreateMutex_internalEbP12Il2CppStringPb
s5j:_emscripten_glLinkProgram__wrapper
vcg:_Coroutine_Finalize_m1957108547
MSi:_KeyBuilder_Key_m2503211157
HYa:__ZNSt3__212__deque_baseI18ReflectionProbeJobNS_9allocatorIS1_EEED2Ev
Rz:__ZN11UnityEngine9Animation27DestroyAnimationSetBindingsEPNS0_20AnimationSetBindingsERN7mecanim6memory9AllocatorE
yia:__ZN15dense_hashtableINSt3__24pairIKiN4core17string_with_labelILi1EEEEEi18SInt32HashFunctionN14dense_hash_mapIiS5_S7_NS0_8equal_toIiEE13stl_allocatorIS6_L18MemLabelIdentifier1ELi16EEE9SelectKeyESA_SD_E13set_empty_keyERKS6_
jcg:_Component_GetComponentInChildren_m388868270
iEg:_GenericEqualityComparer_1_Equals_m1705889345_gshared
AE:__ZN8Animator12CleanupClassEv
Gyc:__Z13TransferFieldI8JSONReadLb0E27Converter_SimpleNativeClassI10RectOffsetEEvRK23StaticTransferFieldInfoR31RuntimeSerializationCommandInfoRT1_
DJe:_FtpWebRequest__cctor_m699542155
ABj:__GLOBAL__sub_I_GenericMetadata_cpp
CIe:_NameObjectCollectionBase_GetEnumerator_m3677320185
YXb:__Z24CalculateSpotLightBoundsffRK10Matrix4x4fR15SpotLightBounds
tvg:_Dictionary_2_TryGetValue_m3495031886_gshared
z_a:__ZNK13RenderTexture21GetShadowSamplingModeEv
IR:__ZN23CloudWebServicesManager23VirtualRedirectTransferER14SafeBinaryRead
xTe:_PKCS12_AddCertificate_m3857004455
_Gb:__Z19ShouldTransferFieldR32SerializationCommandQueueBuilder17ScriptingClassPtriR18TransferField_InfoRK20CoreScriptingClasses
dof:_SecurityElement_IsValidText_m1346599242
_Ha:__ZN26SinglePassStereoSupportExt21SetStereoMatrixCommonE21MonoOrStereoscopicEye24BuiltinShaderMatrixParamRK10Matrix4x4f
$K:__ZN5audio5mixer22UpdateAudioMixerMemoryERKNS0_18AudioMixerConstantERNS0_16AudioMixerMemoryEfPN4FMOD6SystemEf
SBc:__ZL21InitializeCachedStripPv
Mvg:_Dictionary_2_System_Collections_Generic_ICollectionU3CSystem_Collections_Generic_KeyValuePairU3CTKeyU2CTValueU3EU3E_Add_m3652125112_gshared
Mwj:__ZN6il2cpp6icalls8mscorlib6System9Threading6Thread23GetCachedCurrentCultureEP12Il2CppThread
AY:__ZNK6Camera22GetWorldToCameraMatrixEv
oEj:__ZN6il2cpp2vm12GenericClass11IsValueTypeEP18Il2CppGenericClass
VFb:__ZN13MonoBehaviour7SetNameEPKc
Nxd:_MethodDictionary_IsOverridenKey_m946843558
rgf:_FileStream_BeginRead_m2419864669
UOi:_U3CStartU3Ec__Iterator0_MoveNext_m4270440387_gshared
Bbj:__ZN10KeyWrapperIN6il2cpp5utils13dynamic_arrayIPK10Il2CppTypeLj4EEEEC2ERKS7_
WKb:__ZN17InstancingBatcher22FindCBUpperBoundKonstsEv
j8:__GLOBAL__sub_I_runtime_shaders_shaderimpl_0_cpp
yXc:__ZN11UnityEngine9Analytics15AnalyticsConfig13ConfigChangedERKN4core12basic_stringIcNS2_20StringStorageDefaultIcEEEER8JSONRead
Qib:__ZN18AwakeFromLoadQueue5ClearEv
Ogf:_FileStream_SetLength_m99749826
zWb:__ZNSt3__27__sort5IR15ReflProbeSorterPP15ReflectionProbeEEjT0_S6_S6_S6_S6_T_
Lea:__ZN8Playable10DisconnectEPS_i
Ck:_glGenTransformFeedbacks
TMa:__ZN13LoadOperationD2Ev
pbf:_Int16_System_IConvertible_ToType_m3672347013
EZf:_Type_GetProperty_m4206634422
SJb:__Z21PlayerStartFirstSceneb
CVg:_List_1_CheckIndex_m3933537097_gshared
R1a:__ZNSt3__27__sort5IRPFbRKNS_4pairIN9ShaderLab16FastPropertyNameEN18UnityPropertySheet11UnityTexEnvEEES8_EPS6_EEjT0_SD_SD_SD_SD_T_
mva:__ZNK7ApiGLES18GetExtensionStringEv
bVg:_List_1_System_Collections_IList_IndexOf_m2444653486_gshared
l1j:_emscripten_glVertexAttrib1f__wrapper
Zmb:__ZNK12HandlerChain4SizeERK13FileEntryData
hp:FUNCTION_TABLE_iiiiiiiii
PIh:_ReadOnlyCollection_1_System_Collections_Generic_ICollectionU3CTU3E_Remove_m4177779688_gshared
s$e:_Char_IsLetter_m3996985877
sWg:_Queue_1_Peek_m2302800625_gshared
sLj:_GC_allochblk
$ib:__Z15UnloadGameScenev
BBf:_Array_InternalArray__ICollection_CopyTo_TisKeyframe_t4206410242_m2132255743_gshared
T5j:_glCheckFramebufferStatus__wrapper
Hid:_Image__ctor_m2551076292
dug:_Dictionary_2_System_Collections_ICollection_CopyTo_m3143696177_gshared
X_g:__Z103RuntimeInvoker_Void_t1185182177_Int32_t2950945753_Int32_t2950945753_Int32_t2950945753_SByte_t1669577662PFvvEPK10MethodInfoPvPS4_
uoc:__Z36Renderer_Get_Custom_PropSortingOrderP12Il2CppObject
Jkj:__ZNK15dense_hashtableINSt3__24pairIK10KeyWrapperIPK10Il2CppTypeEjEES6_N6il2cpp8metadata14Il2CppTypeHashEN14dense_hash_mapIS6_jSB_NS6_14EqualsComparerINSA_26Il2CppTypeEqualityComparerEEENS0_9allocatorIS8_EEE9SelectKeyESF_SH_E13find_positionERS7_
p_a:__ZN7Texture5ResetEv
Yvb:__Z18Transfer_BlittableI24GenerateTypeTreeTransferLb0E8Vector2fEvRK29SerializationCommandArgumentsR31RuntimeSerializationCommandInfo
_ud:_Context_get_HasDynamicSinks_m3952434387
HSf:_Latin1Encoding_GetByteCount_m1145650505
Nvb:__Z18Transfer_BlittableI24GenerateTypeTreeTransferLb1EhEvRK29SerializationCommandArgumentsR31RuntimeSerializationCommandInfo
HCb:__Z13TransferFieldI18StreamedBinaryReadILb1EELb0E16Converter_StringEvRK23StaticTransferFieldInfoR31RuntimeSerializationCommandInfoRT1_
Qhc:__ZNK16TypeTreeIterator10ByteOffsetEv
AYj:dynCall_iiifii
Gda:__ZnwjRKSt9nothrow_t
$C:__ZN8Animator11ClearObjectEv
RVe:_ApplicationException__ctor_m2557611022
K0a:__ZN14SafeBinaryRead19TransferSTLStyleMapINSt3__23mapI39DeprecatedFastPropertyNameSerializationN18UnityPropertySheet11UnityTexEnvENS1_4lessIS3_EENS1_9allocatorINS1_4pairIKS3_S5_EEEEEEEEvRT_17TransferMetaFlags
GSg:_List_1_CheckMatch_m579516778_gshared
JZe:_Buffer_ByteLengthInternal_m1388208719
bBf:_Array_InternalArray__ICollection_CopyTo_TisInt64_t3736567304_m2845057751_gshared
Lhc:__Z35UnregisterSerializationCacheBuilderPFv17ScriptingClassPtrR23CachedSerializationDataRbE
Adf:_Int64_System_IConvertible_ToUInt32_m109903525_AdjustorThunk
l4:__Z30GetBuiltinVectorParamArraySize24BuiltinShaderVectorParam
HBf:_Array_InternalArray__ICollection_CopyTo_TisUICharInfo_t75501106_m4268526610_gshared
i_a:__ZN13RenderTextureC2E10MemLabelId18ObjectCreationMode
Fbf:_Int32_GetFormatException_m519586683
$2h:__ZL46StringBuilder_t_CustomAttributesCacheGeneratorP21CustomAttributesCache
gGg:_Enumerator_MoveNext_m1131351993_gshared
Wth:_Array_InternalArray__get_Item_TisVector2_t2156229523_m2502961026_gshared
K6:__ZN21RendererUpdateManager11AddRendererER8Renderer
p5b:__Z13RegisterClassI15ResourceManagerEvv
d1i:_AudioConfigurationChangeHandler_Invoke_m1233557945
Eqb:__Z35Transfer_Blittable_FixedBufferFieldI14SafeBinaryReadsEvRK29SerializationCommandArgumentsR31RuntimeSerializationCommandInfo
ebb:__ZN14SafeBinaryRead21TransferSTLStyleArrayI13dynamic_arrayIfLj4EEEEvRT_17TransferMetaFlags
fFf:_Convert_ToDateTime_m3802186295
xIj:__ZN6il2cpp5utils11StringUtils11Utf16ToUtf8EPKDs
Ahb:__ZN18StreamedBinaryReadILb0EE21TransferSTLStyleArrayINSt3__26vectorIN15ResourceManager10DependencyE13stl_allocatorIS5_L18MemLabelIdentifier52ELi16EEEEEEvRT_17TransferMetaFlags
I0f:_UInt64_CompareTo_m1614517204_AdjustorThunk
S_c:__ZN11UnityEngine15PlatformWrapper20IsRootedOrJailbrokenEv
ANb:__ZZ23InitPlayerLoopCallbacksvEN52PreLateUpdateScriptRunBehaviourLateUpdateRegistrator7ForwardEv
TXb:__Z33IntersectAABBPlaneBoundsOptimizedRK4AABBPKN4math7_float4Ei
kqa:__ZN9GfxDevice19EndGeometryJobFrameEv
IQi:_GUILayoutUtility_Layout_m1159951704
ZId:_InputField_get_shouldActivateOnSelect_m3055465770
Hvb:__ZN27Converter_SimpleNativeClassI17AnimationCurveTplIfEE17ScriptingToNativeER18ScriptingObjectPtrPS1_
KYf:_Type__cctor_m2371893800
fRj:__ZN6il2cpp8metadata24Il2CppGenericInstCompare7CompareERK10KeyWrapperIPK17Il2CppGenericInstES8_
caj:__ZNK15dense_hashtableINSt3__24pairIK10KeyWrapperIPK19Il2CppGenericMethodEPK26Il2CppGenericMethodIndicesEES6_N6il2cpp8metadata23Il2CppGenericMethodHashEN14dense_hash_mapIS6_SA_SE_NS6_14EqualsComparerINSD_26Il2CppGenericMethodCompareEEENS0_9allocatorISB_EEE9SelectKeyESI_SK_E5beginEv
H6c:_ExecuteEvents_Execute_m3049310229
Gt:__ZN27AnimationLayerMixerPlayable21UpdateLayerParametersEv
kw:__ZN7mecanim9animation16CopyMotionOutputEPKNS0_18AnimationNodeStateEPS1_bbRKNS_6bitsetILj83EEE
p3b:__ZNK17AnimationCurveTplIfE8EvaluateEfPNS0_5CacheE
EMb:__Z31ManagerContextInitializeClassesv
YIh:_ReadOnlyCollection_1_System_Collections_IList_Contains_m2650112051_gshared
GKf:_DateTime_System_IConvertible_ToUInt64_m2275741153
eKc:_UNITY_FT_List_Finalize
KRb:__Z20LightAttenuateApproxRKfS0_
C7:__ZN9Scripting30SetCachedPtrOnScriptingWrapperE18ScriptingObjectPtrP6Object
Uv:__ZN17AnimationPlayable17SetInternalWeightEf
iRe:_RepeatContext_get_IsMinimum_m3640286252
CDd:_ObjectRecord_ChainFixup_m1889316362
_Xa:__ZN18BlockRangeInternal16PopLastNodeIndexEP10BlockRangeji
dKj:__ZN6il2cpp2vm13CachedCCWBaseINS0_13ManagedObjectEE6AddRefEv
U9c:_TouchInputModule_UpdateModule_m2582897964
Aab:__ZN4MeshD0Ev
j4c:__ZL42RequestRecreateEyeTexturesBeforeNextUpdatev
tv:__ZN21AnimationClipPlayable23ProcessRootMotionNoClipEPK35AnimationPlayableEvaluationConstantPK32AnimationPlayableEvaluationInputP33AnimationPlayableEvaluationOutput
OVc:__Z36CanvasRenderer_CUSTOM_SetPopMaterialP12Il2CppObjectS0_i
hvc:__Z18Transfer_BlittableI9JSONWriteLb0EdEvRK29SerializationCommandArgumentsR31RuntimeSerializationCommandInfo
vqf:_String_System_IConvertible_ToDouble_m3740733360
yTa:__ZN6Camera8TransferI19StreamedBinaryWriteILb0EEEEvRT_
nMf:_DBNull_System_IConvertible_ToSByte_m3533624679
xTj:_wctomb
i$e:_Char_CompareTo_m42489266
Xih:__Z67RuntimeInvoker_Void_t1185182177_Int32_t2950945753_Double_t594665363PFvvEPK10MethodInfoPvPS4_
Ric:__Z27Camera_CUSTOM_GetAllCamerasP11Il2CppArray
_c:___cxa_rethrow
Ipd:_ParameterInfo_GetCustomAttributes_m2376494592
Mwc:__Z18Transfer_BlittableI8JSONReadLb1EhEvRK29SerializationCommandArgumentsR31RuntimeSerializationCommandInfo
Sgd:_Graphic_get_canvasRenderer_m315509948
jzh:_Collection_1_System_Collections_IList_Contains_m3397768605_gshared
s1j:_glBindRenderbuffer__wrapper
L7e:_CultureInfo_construct_internal_locale_from_name_m3254739477
Zse:_RSASslSignatureDeformatter_VerifySignature_m1061897602
Adj:__ZN6il2cpp2vm13MetadataCache14AddPointerTypeEP11Il2CppClassS3_
N_b:__ZN13MonoBehaviour8SetClassE17ScriptingClassPtr18ScriptingObjectPtr
kDi:_RandomNumberGenerator_Create_m4162970280
lnh:_Array_InternalArray__Insert_TisLabelFixup_t858502054_m171542753_gshared
k6d:_InternalEnumerator_1_System_Collections_IEnumerator_get_Current_m3539708496_AdjustorThunk
Nnb:__ZN20LocalFileSystemPosix4ReadER13FileEntryDatayyPvPy
hVb:__ZNSt3__211__sift_downIRN23ForwardShaderRenderLoop18RenderObjectSorterILb0EEEP21ForwardRenderPassDataEEvT0_S7_T_NS_15iterator_traitsIS7_E15difference_typeES7_
Qmf:_SecurityPermission__ctor_m1462427327
QZj:dynCall_iiiiiiffiiiiiiiiiffffiiii
jGb:__ZN13MonoBehaviour5DoGUIENS_13GUILayoutTypeEii
gtd:_ChannelData_get_ClientProviders_m594662942
cGi:_QuickSearch_GetChar_m1297698557
GLa:__ZNK12TLSAllocatorI14StackAllocatorE8ContainsEPKv
_eb:__ZN11TimeManager8TransferI18StreamedBinaryReadILb0EEEEvRT_
sFf:_DateTime__ParseEnum_m253019513
gJf:_Convert_ToUInt32_m2194577773
$6:__ZN15dense_hashtableINSt3__24pairIKyP17VertexDeclarationEEy14GfxGenericHashIyEN14GfxDoubleCacheIyS4_S7_NS0_8equal_toIyEEN31GfxDoubleCacheConcurrencyPolicy11LocklessGetE42GfxDoubleCacheDefaultEmptyDeletedGeneratorIyEE9SelectKeyESA_13stl_allocatorIS5_L18MemLabelIdentifier24ELi16EEE12resize_deltaEjj
d4e:_Hashtable_Remove_m4032631466
I6f:_DSAManaged_GenerateKeyPair_m2236915969
T2a:__ZN7Texture25ReloadFromStorageIfNeededEPvb
pyf:_Array_InternalArray__IndexOf_TisBoolean_t97287965_m1161209222_gshared
YPj:__ZN6il2cpp2os12Cryptography24OpenCryptographyProviderEv
P1e:_SynchronizedArrayListWrapper_Clear_m2191301493
gLc:_Update_Max
_vj:__ZN6il2cpp6icalls8mscorlib6SystemL15ThrowNoWideningEv
A3b:__ZNK23TransformChangeDispatch24GetChangeMaskForInterestENS_12InterestTypeE
znc:__Z45Transform_CUSTOM_INTERNAL_CALL_TransformPointP12Il2CppObjectRK8Vector3fRS1_
VFe:_GenericTypeParameterBuilder_InvokeMember_m1647304778
Eid:_HorizontalOrVerticalLayoutGroup_set_childControlWidth_m3261460516
$0a:__ZNSt3__26__treeINS_12__value_typeI39DeprecatedFastPropertyNameSerializationfEENS_19__map_value_compareIS2_S3_NS_4lessIS2_EELb1EEENS_9allocatorIS3_EEE7destroyEPNS_11__tree_nodeIS3_PvEE
aJc:_tt_cmap4_char_index
Cad:_AspectRatioFitter_GetParentSize_m3159144324
_of:_SecurityFrame_get_Assembly_m2874566710
TVg:_Enumerator_System_Collections_IEnumerator_Reset_m1487823313_gshared
hnb:__ZNK12HandlerChain8IsHiddenERK13FileEntryData
Xub:__ZL26Transfer_SimpleNativeClassI17RemapPPtrTransfer10RectOffsetLb0EEvRK29SerializationCommandArgumentsR31RuntimeSerializationCommandInfo
bQc:__Z14ValidateFormatR13dynamic_arrayIN20TextRenderingPrivate16TextFormatChangeELj4EE
Zcf:_Int32_ToString_m2507389746_AdjustorThunk
QHf:_Decimal_op_Explicit_m438967917
s4i:_AnimatorControllerPlayable_SetHandle_m2260644454_AdjustorThunk
Sja:__ZNSt3__26vectorIN9ShaderLab20SerializedSubProgram13BufferBindingENS_9allocatorIS3_EEEC2ERKS6_
QJd:_InputField_set_selectionColor_m2084640295
h4:__ZNK9ShaderLab20ShaderBlendStateDesc15ToGfxBlendStateEPK19ShaderPropertySheetS3_R13GfxBlendState
ece:_Enumerator_System_Collections_IEnumerator_get_Current_m1747693366_AdjustorThunk
vz:__ZN11UnityEngine9AnimationL22GenericBindingCallbackEPvS1_i
NKc:_Compute_Point_Displacement
qoa:__ZN9ShaderLab9IntShaderC2Ev
vhj:__ZN6il2cpp6icalls8mscorlib6SystemL9IsPrivateEPK9EventInfo
PPj:__ZN6il2cpp6icalls8mscorlib6System10Reflection4Emit11TypeBuilder20setup_internal_classEP27Il2CppReflectionTypeBuilderS7_
Fec:__Z18TransformPoints3x4RK10Matrix4x4fPK8Vector3fjPS2_ji
Oyf:_Array_InternalArray__IndexOf_TisILTokenInfo_t2325775114_m2602704009_gshared
wTf:_StringBuilder_AppendFormat_m3255666490
aBe:_OverflowException__ctor_m4029085969
tld:_TypeBuilder_GetGenericArguments_m2872156836
h6i:__ZN13Il2CppHashMapIPK22Il2CppGenericParameterP11Il2CppClassN6il2cpp5utils11PointerHashIS1_EENSt3__28equal_toIS2_EENS9_9allocatorINS9_4pairIK10KeyWrapperIS2_ES4_EEEEEC2EjRKS8_RKSB_
cyc:__ZN8JSONRead21TransferSTLStyleArrayI31ArrayOfManagedObjectsTransfererEEvRT_17TransferMetaFlags
sNa:__Z15CreateDirectoryRKN4core12basic_stringIcNS_20StringStorageDefaultIcEEEE
wZa:__Z21CalculateGlobalMatrix23TransformAccessReadOnly
uld:_TypeBuilder_GetGenericTypeDefinition_m1632720438
Atf:_Array_InternalArray__ICollection_Contains_TisLink_t544317964_m163190451_gshared
MLf:_DateTimeOffset_System_IComparable_CompareTo_m176229495_AdjustorThunk
Jgg:_ManagedStreamHelpers_ValidateLoadFromStream_m580138133
dfb:__ZNK13BuildSettings22GetTypeVirtualInternalEv
wMi:__ZN30GenericInterfaceActionInvoker1I17Scene_t2348375561E6InvokeEPK10MethodInfoP12Il2CppObjectS0_
ITg:_List_1_CheckIndex_m2250397830_gshared
n5b:__Z13RegisterClassI14RenderSettingsEvv
z:tempBigIntI
HRe:_Interval_get_Empty_m3617514670
BBe:_Assembly_GetName_m981771927
Kx:__ZN7mecanim12statemachine24CreateStateMachineOutputEPKNS0_20StateMachineConstantEjRNS_6memory9AllocatorE
mEj:__ZN6il2cpp2vm12GenericClass8GetClassEP18Il2CppGenericClass
Lqa:__ZNK9GfxDevice27GetActiveRenderSurfaceWidthEv
Qpi:__ZL114StandaloneInputModule_t2760469101_CustomAttributesCacheGenerator_StandaloneInputModule_ForceAutoSelect_m2837047882P21CustomAttributesCache
D_c:__ZN11UnityEngine15PlatformWrapper28GetCleanGraphicsFixedVersionEv
qPd:_MaskableGraphic_RecalculateClipping_m1772937317
Kve:_UnmanagedMemoryStream_SetLength_m3752964620
Oxi:_SslStreamBase_RaiseLocalPrivateKeySelection_m4112368540
lrj:__ZN6il2cpp2vm4Type7GetTypeEPK10Il2CppType
Kdb:__ZN16SpriteRenderData28PrepareRenderingDataIfNeededEv
mPc:_open_face_PS_from_sfnt_stream
e1d:_InternalEnumerator_1_get_Current_m165106323_AdjustorThunk
gUf:_UTF32Encoding_GetByteCount_m3610769032
FAa:__ZN6prcoreL17RemapGenericFloatI18TexFormatRGBAFloat17TexFormatRGBAHalfEEvPKNS_9InnerInfoE
fOb:__Z16FindCameraStacksRKNSt3__24listI4PPtrI6CameraENS_9allocatorIS3_EEEERNS_6vectorI11CameraStackNS4_ISA_EEEE
WEi:_MatchCollection_CopyTo_m3807326147
q5a:__ZN10GISettings8TransferI14SafeBinaryReadEEvRT_
Cn:FUNCTION_TABLE_vifff
_ti:__ZL54Text_t1901882714_CustomAttributesCacheGenerator_m_TextP21CustomAttributesCache
DId:_MD5CryptoServiceProvider__ctor_m3271163125
G$b:__ZN19CustomRenderTexture12ClearGPUDataEv
y_a:__ZN13RenderTexture13ApplySettingsEv
zCd:_ObjectReader_RegisterObject_m1853376334
oHe:_ModuleBuilderTokenGenerator_GetToken_m2588853565
bZe:_Boolean_System_IConvertible_ToDecimal_m3176932461_AdjustorThunk
Ze:_JS_Sound_SetListenerPosition
un:FUNCTION_TABLE_fiffi
rTd:_ScrollRect_OnInitializePotentialDrag_m3139711961
SIh:_ReadOnlyCollection_1_System_Collections_Generic_IListU3CTU3E_set_Item_m711370667_gshared
xCe:_Default_check_arguments_with_score_m3467814020
X2j:_glGetActiveUniform__wrapper
gue:_StreamWriter_LowLevelWrite_m1081676583
eea:__ZZN15DirectorManager15InitializeClassEvEN45FixedUpdateDirectorFixedSampleTimeRegistrator7ForwardEv
Ykb:__ZNK8Material16MarkDependenciesER27GarbageCollectorThreadState
QUd:_Slider_set_handleRect_m1101657556
ZLf:_DateTimeOffset_ToString_m3985341516_AdjustorThunk
kvc:__ZL17Transfer_GUIStyleI9JSONWriteLb0EEvRK29SerializationCommandArgumentsR31RuntimeSerializationCommandInfo
CSb:__Z28GetHaloVertexPositionsStereoP8Vector3fRKS_S2_f
uBa:__ZN6prcoreL27StretchGenericFloatBilinearI15TexFormatRGHalfEEvPKNS_9InnerInfoE
f8:__GLOBAL__sub_I_runtime_misc_0_cpp
N9e:_SortKey_GetHashCode_m3547067087
mDb:__Z18Transfer_BlittableI18StreamedBinaryReadILb0EELb1E9BoundsIntEvRK29SerializationCommandArgumentsR31RuntimeSerializationCommandInfo
Wti:__ZL71SpriteState_t1362986479_CustomAttributesCacheGenerator_m_DisabledSpriteP21CustomAttributesCache
A$c:__ZN22BaseUnityConnectClient28UpdateConfigFromServerStaticEPv
CMe:_PublicKey_DecodeDSA_m3490622362
amc:__Z49Register_UnityEngine_Resources_GetBuiltinResourcev
AZf:_Type_GetMethod_m1479779718
PIc:_tt_cmap10_char_index
myi:_TlsException__ctor_m3242533711
mke:_BitConverterLE_GetUIntBytes_m795219058
TCf:_SortedList__ctor_m3676552745
L6i:__ZN15dense_hashtableINSt3__24pairIK10KeyWrapperIPK22Il2CppGenericParameterEP11Il2CppClassEES6_N6il2cpp5utils11PointerHashIS4_EEN14dense_hash_mapIS6_S9_SE_NS6_14EqualsComparerINS0_8equal_toIS5_EEEENS0_9allocatorISA_EEE9SelectKeyESJ_SL_E3endEv
eQ:__ZN11AudioSource24ClearExtensionPropertiesE12PropertyName
Yla:__ZN9ShaderLab22SerializedBindChannels8TransferI19StreamedBinaryWriteILb0EEEEvRT_
htb:__ZN15SerializeTraitsI5RectTIiEE8TransferI14SafeBinaryReadEEvRS1_RT_
Rqc:__ZN5IMGUI20MoveWindowFromLayoutER8GUIStateiRK5RectTIfE
gJj:__ZN6il2cpp6icalls8mscorlib6System9Threading11Interlocked21CompareExchangeSingleEPfff
tFc:_UNITY_FT_Stream_ReadUShort
Ikc:__Z51Register_UnityEngine_GUILayer_INTERNAL_CALL_HitTestv
bia:__ZNSt3__26__treeINS_12__value_typeIN4core12basic_stringIcNS2_20StringStorageDefaultIcEEEES6_EENS_19__map_value_compareIS6_S7_NS_4lessIS6_EELb1EEE13stl_allocatorIS7_L18MemLabelIdentifier1ELi16EEE7destroyEPNS_11__tree_nodeIS7_PvEE
BWf:_Thread_get_ManagedThreadId_m1068113671
twa:__Z13IsDepthFormat14GraphicsFormat
qgb:__ZN12AspectRatios8TransferI24GenerateTypeTreeTransferEEvRT_
Kxe:_MonoType_GetFields_m4176012508
qBc:__Z12FormatBufferPciPKcz
rBg:_EqualityComparer_1_System_Collections_IEqualityComparer_GetHashCode_m3423304513_gshared
Y6i:__ZN6il2cpp2vm5Class13GetArrayClassEP11Il2CppClassj
m9c:_StandaloneInputModule_set_inputActionsPerSecond_m4057208843
bKb:__ZN19RuntimeSceneManager18LoadSceneAsyncIntoER10UnitySceneRKN4core12basic_stringIcNS2_20StringStorageDefaultIcEEEENS_11LoadingModeEb
Fuc:__Z35Transfer_Blittable_FixedBufferFieldI9JSONWritetEvRK29SerializationCommandArgumentsR31RuntimeSerializationCommandInfo
Yqc:__ZN11IMGUIModule12AddGUIScriptER8ListNodeI13MonoBehaviourE
pb:invoke_difi
FQi:_GUILayoutUtility_BeginWindow_m2240221150
S1j:_glDeleteSamplers__wrapper
ida:__ZL50StaticRegisterSceneLoadedCallback_LightmapSettingsPv
QHe:_HybridDictionary_set_Item_m2997363718
OMa:__ZNSt3__26__treeIiNS_4lessIiEE13stl_allocatorIiL18MemLabelIdentifier1ELi16EEE7destroyEPNS_11__tree_nodeIiPvEE
I6d:_InternalEnumerator_1_get_Current_m1477715453_AdjustorThunk
A0f:_UInt64_System_IConvertible_ToUInt32_m2784653358
_va:__ZN21GLESGpuProgramApplier11ApplyVectorERKN20GpuProgramParameters14ValueParameterEPK8Vector4ft
nXb:__Z17PrepareSceneNodesP11CullResults
YEd:_SByte_System_IConvertible_ToDecimal_m2548745278
tCc:_cff_size_done
OXb:__ZN29ExtractProjectionPlanesHelperILb1EE5ApplyERK10Matrix4x4fP5Plane
_ac:__ZN13ProduceHelperI7CubemapLb0EE7ProduceE10MemLabelId18ObjectCreationMode
Y$b:__ZN6Camera34UpdatePreviousViewProjectionMatrixEv
Sma:__ZN9ShaderLab11ShaderState25RemoveUnsupportedProgramsEPK6Shader
$Qc:__Z28Font_Get_Custom_PropMaterialP12Il2CppObject
chg:_Mathf_Abs_m3281243566
Lue:_SynchronizedWriter_WriteLine_m1552352268
Hfc:__Z26scripting_class_has_parent17ScriptingClassPtrS_
gca:__ZN13RuntimeStaticI21AssetReferenceStorageLb0EE16StaticInitializeEPv
ecf:_Int32_System_IConvertible_ToByte_m3832391412_AdjustorThunk
MQ:__Z71Register_UnityEngine_AudioSource_INTERNAL_CALL_ClearExtensionPropertiesv
LC:__ZNK8Animator20IsInMatchTargetStateEv
S2d:_InternalEnumerator_1_System_Collections_IEnumerator_get_Current_m4088805473_gshared
Drc:__Z36Register_UnityEngine_GUI_set_changedv
gvd:_Context_GetServerContextSinkChain_m3154465897
xRi:_GUIStyle_get_fixedHeight_m2868324709
THf:_Convert_ToInt64_m2075293963
oQj:__GLOBAL__sub_I_Il2CppCodeRegistration_cpp
Qw:__ZN7mecanim28TransformValueArrayBlendNodeEiiiRKNS_10ValueArrayERKNS_14ValueArrayMaskERS0_RS3_RNS_16ValueArrayWeightEf
lJg:_List_1_GetIndex_m3112872964_gshared
Ued:_Dropdown_set_value_m1048320169
O5i:_CustomEventData_Finalize_m1724721833
YVa:__ZN20TierGraphicsSettings8TransferI18StreamedBinaryReadILb0EEEEvRT_
Dcf:_Int32_System_IConvertible_ToUInt64_m2502338186_AdjustorThunk
Nfa:__Z33CleanupCubemapGPUUtilityMaterialsPv
nmc:__Z43Register_UnityEngine_Material_EnableKeywordv
O4i:__ZL9rshift128PyS_
tHg:_Enumerator_VerifyState_m169680537_AdjustorThunk
Mpj:__ZN14dense_hash_mapI10KeyWrapperINSt3__24pairIPK12PropertyInfoP11Il2CppClassEEEj17ReflectionMapHashIS8_ENS9_14EqualsComparerINS1_8equal_toIS8_EEEENS1_9allocatorINS2_IKS9_jEEEEE13set_empty_keyERSH_
Sg:_glRenderbufferStorage
klc:__Z45Register_UnityEngine_Input_get_touchSupportedv
H_c:__ZN11UnityEngine15PlatformWrapper28GetTextureFormatSupportFlagsEv
uHc:_sfnt_is_postscript
Q0b:__ZNSt3__26vectorINS_4pairIN4core12basic_stringIcNS2_20StringStorageDefaultIcEEEES6_EE13stl_allocatorIS7_L18MemLabelIdentifier38ELi16EEE26__swap_out_circular_bufferERNS_14__split_bufferIS7_RSA_EEPS7_
vJi:_Uri_EscapeString_m3864445955
gDc:_cf2_setError
Rab:__ZN14SafeBinaryRead21TransferSTLStyleArrayI13dynamic_arrayI12BoneWeights4Lj16EEEEvRT_17TransferMetaFlags
aae:_Enumerator_MoveNext_m465222849_AdjustorThunk
$Mb:__ZZ23InitPlayerLoopCallbacksvEN35PreUpdateSendMouseEventsRegistrator7ForwardEv
XEa:__ZNK6Camera25GetNormalizedViewportRectEP13RenderTextureb
Ved:_Dropdown_Awake_m3140021404
dh:_glDisable
V_a:__ZN13RenderTexture8TransferI24GenerateTypeTreeTransferEEvRT_
_qg:_Vector2_get_sqrMagnitude_m837837635
fai:__ZL59WritableAttribute_t812406054_CustomAttributesCacheGeneratorP21CustomAttributesCache
SIj:__ZN6il2cpp5utils11StringUtils15StringDuplicateEPKDsj
kHi:_Regex_Match_m4145799399
Mv:__ZN17AnimationPlayable17ProcessRootMotionEP35AnimationPlayableEvaluationConstantP32AnimationPlayableEvaluationInputP33AnimationPlayableEvaluationOutput
Grf:_String_IsNullOrEmpty_m2969720369
m2i:_TextGenerator_GetPreferredHeight_m3514897836
r4f:_BigInteger_LowestSetBit_m3082714978
D6j:b118
E6j:b119
ZNb:__ZNK8Material12GetPassCountEv
Ujf:_RSAParameters_t1728406613_marshal_pinvoke
RRe:_Interval_IsDisjoint_m1532171337_AdjustorThunk
x6j:b112
uXj:_bitshift64Ashr
z6j:b114
A6j:b115
B6j:b116
C6j:b117
SYj:dynCall_diii
qOd:_LayoutUtility_GetFlexibleWidth_m22831835
iCd:_BinaryFormatter__ctor_m971003555
WXd:_ArrayReadOnlyList_1_ReadOnlyError_m865416608_gshared
X2e:_CollectionBase_System_Collections_IList_get_Item_m3743372945
Mnf:_Evidence_GetEnumerator_m302914965
T5i:_CustomEventData_Add_m3993893123
Txa:__ZN4crnd12crn_unpacker22decode_alpha_endpointsEv
lWg:_Queue_1__ctor_m2068090025_gshared
tYb:__Z23CullDynamicObjectsUmbraPK4AABBPKN5Umbra15OcclusionBufferER9IndexList
Nxi:_SslStreamBase_RaiseRemoteCertificateValidation2_m2908038766
bJc:_tt_cmap4_char_next
n_:__ZN4core8hash_mapIi17ThreadedAwakeDataNS_4hashIiEENSt3__28equal_toIiEEE4growEi
_Xg:__Z50RuntimeInvoker_Boolean_t97287965_Int16_t2552820387PFvvEPK10MethodInfoPvPS4_
BGf:_Convert_ToDecimal_m1233667008
RVb:__ZN23ForwardShaderRenderLoopD2Ev
L7:__GLOBAL__sub_I_runtime_assetbundles_1_cpp
YI:__ZN4FMOD7Channel11setPositionEjj
Xh:_glBindSampler
xMj:_GC_reclaim_block
$ne:_ClientContext_get_ClientHelloProtocol_m1654639078
$h:_glGetVertexAttribiv
Whe:_Enumerator_System_Collections_IEnumerator_get_Current_m1975949486_gshared
DFi:_PatternCompiler_EmitSub_m193323684
tSc:__ZN2UI11CanvasGroup23VirtualRedirectTransferER18StreamedBinaryReadILb0EE
bdf:_Int64_System_IConvertible_ToByte_m375085029
pyc:__ZN8JSONRead8TransferIbEEvRT_PKc17TransferMetaFlagsb
qYf:_TimeSpan_ToString_m1128692466
vTi:_AesManaged_CreateEncryptor_m2294080233
lQi:_Event_GetHashCode_m3559153592
Fma:__ZN9ShaderLab9SubShaderD2Ev
aLj:_GC_promote_black_lists
G7e:_CultureInfo_construct_datetime_format_m1928121315
dzc:__Z29Transfer_Blittable_ArrayFieldI8JSONRead8Vector4fEvRT_R9ArrayInfoRK23StaticTransferFieldInfo
ao:FUNCTION_TABLE_vf
Qxe:_Binder_GetDerivedLevel_m3216810447
Ao:FUNCTION_TABLE_vd
d9:__ZN13RuntimeStaticI37UnityShaderCompilerExtPluginConfigureLb0EE16StaticInitializeEPv
xTf:_StringBuilder_AppendFormat_m2403596038
pHd:_DSASignatureDeformatter_SetHashAlgorithm_m3186995552
BGh:_ReadOnlyCollection_1_System_Collections_Generic_ICollectionU3CTU3E_Clear_m2772202961_gshared
swc:__ZN9JSONWrite8TransferI13dynamic_arrayI4AABBLj4EEEEvRT_PKc17TransferMetaFlags
cF:__ZNK8Animator17HasBoundPlayablesEv
mrd:_ResourceSet_ReadResources_m3663669011
_Vf:_SynchronizationContext_SetSynchronizationContext_m1249070039
kcd:_CanvasUpdateRegistry_IsRebuildingGraphics_m1904586840
vTg:_List_1_AddEnumerable_m1267044261_gshared
BIc:_tt_cmap13_char_index
aij:__ZN6il2cpp2vm7Runtime9SetConfigEPKc
etc:__ZN5Unity9rapidjson12PrettyWriterI16TempBufferWriterNS0_4UTF8IcEES4_13JSONAllocatorE10StartArrayEv
ta:invoke_iiifiii
Qmg:_RectTransform_INTERNAL_get_pivot_m2970933031
oMi:_UnityAction_1_Invoke_m927447181_gshared
cxj:__ZN6il2cpp2vm9Exception11FromNameMsgEPK11Il2CppImagePKcS6_S6_
ln:FUNCTION_TABLE_fiiifii
hfa:__Z14GetTimeManagerv
bcg:_Color32_op_Implicit_m213813866
qmg:_RectOffset_set_top_m713260669
AMb:__ZN18AwakeFromLoadQueue15InitializeClassEv
t2c:__ZN19TransportJavaScript7CleanupEv
AQa:__Z12GUIDToStringRK9UnityGUIDPc
eca:__ZN15FileSystemEntry4LockE12FileLockModeP12FileAccessor
E4j:_emscripten_glDrawArrays__wrapper
lGi:_Parser__ctor_m3200411199
Mcf:_Int32_Equals_m2976157357
Z8g:__Z110RuntimeInvoker_Int32_t2950945753_Int32_t2950945753_Int32_t2950945753_Int32U26_t1369213839_Int32U26_t1369213839PFvvEPK10MethodInfoPvPS4_
vM:__ZN11AudioSource22UnmuteActiveVideoSinksEv
ezi:_TlsException__ctor_m3717683709
PIj:__ZN4utf88internal20is_overlong_sequenceIiEEbjT_
abj:__ZN6il2cpp2vm13MetadataCache8RegisterEPK22Il2CppCodeRegistrationPK26Il2CppMetadataRegistrationPK20Il2CppCodeGenOptions
Vq:__Z9SetLocalR15TransformAccessRKN4math7_float4Ey
pUb:__Z30SetupBakedOcclusionForGeometrybRK26SharedLightmapSettingsDataRK15LightmapIndicesR17ShaderPassContext
ujc:__Z41Register_UnityEngine_Cursor_get_lockStatev
MTb:__Z14SetupLightmapsRK8Vector4fS1_R17ShaderPassContext
koj:__ZN14dense_hash_mapI10KeyWrapperIPK14Il2CppAssemblyEPK22Il2CppMonoAssemblyNameN6il2cpp5utils11PointerHashIS2_EENS4_14EqualsComparerINSt3__28equal_toIS3_EEEENSD_9allocatorINSD_4pairIKS4_S7_EEEEE13set_empty_keyERSJ_
O$a:__ZL20InitializeGUIShadersv
uaf:_Guid_CompareTo_m243656946
N3b:__Z20DestroyObjectDelayedP6Objectf
QW:__ZN20DynamicHeapAllocatorI17LowLevelAllocatorED0Ev
G7b:__ZN11TimeManagerC2E10MemLabelId18ObjectCreationMode
iRb:__ZN9DepthPassD2Ev
PH:__ZN11AudioFilter6GetDSPEv
Tjf:_RSACryptoServiceProvider_OnKeyGenerated_m863837376
LRd:_Scrollbar_OnDrag_m4289602768
Taa:__ZN19RuntimeSceneManager14CanUnloadSceneEP10UnityScene
kRb:__Z22ExtractRenderNodeQueueRK11CullResults15ExtractionFlagsR15RenderNodeQueue
UG:__ZN24AudioScriptBufferManagerC2Ev
kAc:__ZN11UnityEngine9Analytics18SceneLoadTimeEvent12ToJsonStringER9JSONWrite
MOc:__ZNSt3__26vectorIh13stl_allocatorIhL18MemLabelIdentifier1ELi16EEE8__appendEj
M4d:_InternalEnumerator_1_System_Collections_IEnumerator_get_Current_m3854084659_AdjustorThunk
aJd:_OnValidateInput_Invoke_m1009124904
ZWd:_U3CGetEnumeratorU3Ec__Iterator0_System_Collections_IEnumerator_get_Current_m283764921_gshared
OOc:__ZN20TextRenderingPrivate8FontImpl16ResetPackingDataEv
m6e:_CultureInfo_get_IcuName_m2258611679
cuc:__Z18Transfer_BlittableI9JSONWriteLb0EfEvRK29SerializationCommandArgumentsR31RuntimeSerializationCommandInfo
exa:__Z21GetAsyncUploadManagerv
Oj:_emscripten_glDetachShader
r5i:_CustomEventData_Add_m2564314129
gng:_Vector2_op_Subtraction_m73004381
Uwa:__ZN17GenericDynamicVBO20ReleaseChunkInternalERK21DynamicVBOChunkHandlejj
_Qc:__ZL27CleanupModule_TextRenderingv
YTj:_fmodl
E8f:_SymmetricTransform_OFB_m3842617151
sAb:__Z18Transfer_BlittableI18StreamedBinaryReadILb1EELb1E4AABBEvRK29SerializationCommandArgumentsR31RuntimeSerializationCommandInfo
gKb:__ZN19RuntimeSceneManager11CreateSceneEv
Gbg:_Color__ctor_m286683560
kFi:_PatternCompiler_Emit_m1540115729
lHc:_ps_get_standard_strings
oUb:__Z27SetupBakedOcclusionForLightbRK15SharedLightDataR17ShaderPassContext
GQj:__ZN6il2cpp2os5Mutex6UnlockEv
jRf:_EncoderFallbackException__ctor_m1051987327
z4f:_BigInteger_ToString_m3278248272
HMf:_Decimal_System_IConvertible_ToBoolean_m1123794670
Zgh:__Z98RuntimeInvoker_Int32_t2950945753_RaycastResult_t3360306849_RaycastResult_t3360306849_RuntimeObjectPFvvEPK10MethodInfoPvPS4_
iba:__Z17CommitBatchDeleteR11BatchDelete
BOd:_Mask__ctor_m1269055150
a4h:__ZL99WaitHandle_t1743403487_CustomAttributesCacheGenerator_WaitHandle_t1743403487____Handle_PropertyInfoP21CustomAttributesCache
BLe:_WebRequest_AddPrefix_m3187775913
FOb:__Z18RenderImageFiltersR10RenderLoopb
KVc:__Z43CanvasRenderer_Get_Custom_PropMaterialCountP12Il2CppObject
zUb:__ZNSt3__227__insertion_sort_incompleteIR23CompareReflectionProbesP31RuntimeReflectionProbeBlendInfoEEbT0_S5_T_
XPg:_List_1_Remove_m1457733883_gshared
yzc:__ZN8JSONRead21TransferSTLStyleArrayI13dynamic_arrayI11QuaternionfLj4EEEEvRT_17TransferMetaFlags
tnd:_MonoEventInfo_GetEventInfo_m873645389
ile:_MD4Managed_Encode_m386285215
xca:__ZN10InputEventD2Ev
A9d:_Enumerator_MoveNext_m3398155861_AdjustorThunk
_Z:__ZL23OutOfBoundsReadingErrorPKN5Unity4TypeEiiR6Object
A3c:__ZN22UnityWebRequestManagerD2Ev
$Pi:_Event_get_character_m1666742088
DTj:_isalpha
$Ef:_Convert_ToChar_m1442101407
Nte:_SslClientStream_OnLocalPrivateKeySelection_m1934775249
$6b:__ZZL31RegisterRectTransformPropertiesR22GenericPropertyBindingEN28Wrapper_RectTransformPivoty113SetFloatValueEPvf
$Lf:_DateTimeOffset_get_Offset_m2040541042_AdjustorThunk
Bfj:__ZN6il2cpp2vmL17IsSocketAsyncCallEP14Il2CppDelegate
vCf:_Slot_t3975888750_marshal_pinvoke_back
_Ij:__ZN6il2cpp2vm6String6NewLenEPKcj
l5:__Z25GetBuiltinTexEnvParamNamei
WHb:__ZN17PersistentManager9AddStreamEv
gl:_time
Zcd:_ContentSizeFitter_set_verticalFit_m1831566876
pmf:_TripleDESCryptoServiceProvider_CreateDecryptor_m740960117
$ch:__Z122RuntimeInvoker_Void_t1185182177_Color_t2555686324_Single_t1397266774_SByte_t1669577662_SByte_t1669577662_SByte_t1669577662PFvvEPK10MethodInfoPvPS4_
Wgg:_Material_EnableKeyword_m329692301
VDc:_cf2_stack_free
llf:_SHA512Managed_HashCore_m2377807474
Ldf:_Int64_Parse_m3309897583
Z6e:_CompareInfo_IndexOf_m667936183
Av:__ZN7mecanim9animation19EvaluateFloatValuesEPKNS0_18ClipMuscleConstantEPKNS_18ValueArrayConstantEPKNS0_12ClipBindingsEPKNS0_10ClipOutputEPNS0_18AnimationNodeStateEfbb
pD:__ZN8Animator31ClearInternalControllerPlayableEv
fIa:__ZN26SinglePassStereoSupportExt18AfterSetViewMatrixEv
pag:_Bounds__ctor_m1937678907_AdjustorThunk
log:_SetupCoroutine_InvokeMember_m2661944898
KEg:_HashSet_1__ctor_m620629637_gshared
cMe:_X509EnhancedKeyUsageExtension_ToString_m350388564
Yjj:__ZN15dense_hashtableINSt3__24pairIK10KeyWrapperINS1_IPK9FieldInfoP11Il2CppClassEEEjEES9_17ReflectionMapHashIS8_EN14dense_hash_mapIS9_jSD_NS9_14EqualsComparerINS0_8equal_toIS8_EEEENS0_9allocatorISB_EEE9SelectKeyESI_SK_E4findERSA_
C1e:_SimpleEnumerator_MoveNext_m3113120129
fKb:__ZN13LoadOperationC2E10MemLabelId
cJd:_InputField_SendOnValueChanged_m2560301445
VZb:__ZN13RenderTexture19SetAutoGenerateMipsEb
Bya:__Z20GetTextureFormatInfo13TextureFormat
x5i:_CustomEventData_AddByte_m3440715081
hJe:_TypeConverterAttribute_Equals_m1580461255
sme:_RSAManaged_ToXmlString_m2369501989
ny:__ZN26AnimatorControllerPlayable8GetFloatEiRf
uKf:_DateTime_System_IConvertible_ToSingle_m2193708681_AdjustorThunk
PRe:_Interval_get_Size_m4163671410_AdjustorThunk
LSc:__ZN2UI14CanvasRenderer13AwakeFromLoadE17AwakeFromLoadMode
ARh:__ZL64String_t_CustomAttributesCacheGenerator_String_Split_m3580120853P21CustomAttributesCache
YOj:__ZN6il2cpp5utils10MemoryPool6MallocEj
mG:__ZN11SoundHandle8InstanceD2Ev
Yqd:_ResourceEnumerator_Reset_m3754276504
Kfa:__ZN31CanvasBatchIntermediateRenderer13StaticDestroyEPv
w$:__ZNSt3__23mapIiP15MonoScriptCacheNS_4lessIiEE13stl_allocatorINS_4pairIKiS2_EEL18MemLabelIdentifier78ELi16EEEixERS7_
p2j:_emscripten_glBindProgramARB__wrapper
rjc:__Z41Register_UnityEngine_CullingGroup_Disposev
HFi:_PatternCompiler_EmitRepeat_m697083858
G3a:__ZN7Cubemap23VirtualRedirectTransferER19StreamedBinaryWriteILb0EE
lij:__ZN6il2cpp2vm7Runtime47RaiseExecutionEngineExceptionIfMethodIsNotFoundEPK10MethodInfoPK19Il2CppGenericMethod
lPa:__ZN25MultiBlocksMemoryFileData5WriteEyyPKv
Aqd:_ResourceReader_Read7BitEncodedInt_m3568166465
s6f:_BlockProcessor_Core_m2138791525
W2i:_CanvasGroup_set_alpha_m4032573
FWe:_Array_get_LongLength_m978104875
jCa:__ZL17ProgramUniform2fvPK7ApiGLESjiihPKv
b3j:b83
IOc:__ZN20TextRenderingPrivate8FontImpl21HasCharacterInTextureEjijfPj
gqg:_Transform_SetAsFirstSibling_m253439912
DKf:_DateTime_System_IConvertible_ToUInt16_m4182197229_AdjustorThunk
IRe:_Interval_get_IsDiscontiguous_m3016063288
Pxi:_SslStreamBase_get_CheckCertRevocationStatus_m2739906607
YUj:_htonl
iua:__Z20GetBufferManagerGLESv
a3j:b82
vlf:_SHA512Managed_Sigma1_m922902398
iEb:__ZN18StreamedBinaryReadILb0EE21TransferSTLStyleArrayI31ArrayOfManagedObjectsTransfererEEvRT_17TransferMetaFlags
Mua:__ZNSt3__26__treeI22DeviceStencilStateGLES14MemoryCompLessI18DeviceStencilStateENS_9allocatorIS1_EEE12__find_equalIS1_EERPNS_16__tree_node_baseIPvEESD_RKT_
nxc:__Z18Transfer_BlittableI8JSONReadLb0EtEvRK29SerializationCommandArgumentsR31RuntimeSerializationCommandInfo
UZ:__Z16GenerateTypeTreeRK6ObjectR8TypeTree24TransferInstructionFlags
Q7e:_CultureInfo_CreateCulture_m1493441763
hmf:_TripleDES_IsWeakKey_m2147489852
az:__ZN34AnimationStateMachineMixerPlayable13EndTransitionEv
xI:__ZN12AudioManager21FixMasterGroupRoutingEv
pab:__ZNK19ShaderPropertySheet11HasPropertyERKN9ShaderLab16FastPropertyNameE
iZj:dynCall_viffffii
oC:__ZN15AllocatorTraitsIN8Animator11AnimatorJobELb0EE13CopyConstructEPS1_RKS1_10MemLabelId
Vfh:__Z81RuntimeInvoker_Boolean_t97287965_NavigationU26_t1807167253_Navigation_t3049316579PFvvEPK10MethodInfoPvPS4_
v4j:_emscripten_glUniform1fv__wrapper
vmb:__ZN2UI13RectTransform19SetAnchoredPositionERK8Vector2f
lid:_GridLayoutGroup_SetLayoutHorizontal_m2838109254
sed:_Dropdown_RefreshShownValue_m2806045241
zqb:__Z18Transfer_BlittableI14SafeBinaryReadLb1E4AABBEvRK29SerializationCommandArgumentsR31RuntimeSerializationCommandInfo
LEj:__ZN6il2cpp6icalls8mscorlib6System4Enum12get_hashcodeEP12Il2CppObject
_Nj:_GC_set_no_dls
scd:_ColorBlock_set_normalColor_m254595671_AdjustorThunk
xSj:__ZN6il2cpp8metadata26Il2CppGenericMethodCompare6EqualsEPK19Il2CppGenericMethodS4_
P3d:_InternalEnumerator_1_get_Current_m1007906068_gshared
X8i:__ZN15dense_hashtableINSt3__24pairIK10KeyWrapperIPK11Il2CppClassEPKcEES6_N6il2cpp5utils11PointerHashIS3_EEN14dense_hash_mapIS6_S9_SE_NS6_14EqualsComparerINS0_8equal_toIS5_EEEENS0_9allocatorISA_EEE9SelectKeyESJ_SL_E15set_deleted_keyERKSA_
E1e:_SimpleEnumerator_Reset_m1520014659
aH:__ZN9AudioClip7WWWOpenEPKciPjPPvS4_
qqb:__Z18Transfer_BlittableI14SafeBinaryReadLb0E8Vector2fEvRK29SerializationCommandArgumentsR31RuntimeSerializationCommandInfo
aqe:_Context_set_ProtocolNegotiated_m2904861662
pAj:__ZN15dense_hashtableINSt3__24pairIK10KeyWrapperINS1_IPKcS4_EEEiEES6_24NamespaceAndNamePairHashN14dense_hash_mapIS6_iS9_NS6_14EqualsComparerI26NamespaceAndNamePairEqualsEENS0_9allocatorIS8_EEE9SelectKeyESD_SF_E12resize_deltaEjj
Vzd:_RemotingServices_GetRemoteObject_m2117098022
l3i:_CanvasRenderer_SetTexture_m1600559835
rMa:__ZN13dynamic_arrayIiLj4EE6insertEPiPKiS3_
dCh:_Collection_1_System_Collections_IList_IndexOf_m4256072926_gshared
k$g:__Z132RuntimeInvoker_Boolean_t97287965_RuntimeObject_Int32_t2950945753_Int32_t2950945753_RuntimeObject_Int32_t2950945753_Int32_t2950945753PFvvEPK10MethodInfoPvPS4_
flc:__Z53Register_UnityEngine_Input_INTERNAL_get_mousePositionv
bua:__ZN7ApiGLES12DrawElementsE16GfxPrimitiveTypePKvjjjj
V7f:_EncryptedPrivateKeyInfo_get_Salt_m3453455261
uFf:_DateTime__ParseNumber_m1240316250
Fpf:_Single_System_IConvertible_ToSingle_m1939829239_AdjustorThunk
d0d:_InternalEnumerator_1_get_Current_m3839250771_gshared
Tnc:__Z66Register_UnityEngine_Transform_INTERNAL_CALL_InverseTransformPointv
s7e:_CultureInfo_get_TextInfo_m2342840448
kd:_SDL_GetTicks
Ulj:__ZN15dense_hashtableINSt3__24pairIK10KeyWrapperINS1_IPK11Il2CppImageP11Il2CppClassEEEjEES9_17ReflectionMapHashIS8_EN14dense_hash_mapIS9_jSD_NS9_14EqualsComparerINS0_8equal_toIS8_EEEENS0_9allocatorISB_EEE9SelectKeyESI_SK_E6insertERKSB_
_Xb:__Z21CreateShadowCullerJobP30CreateUmbraShadowCullerJobData
VJh:_ReadOnlyCollection_1_System_Collections_Generic_ICollectionU3CTU3E_Remove_m4072504734_gshared
bCa:__ZL18ProgramUniform2uivPK7ApiGLESjiihPKv
bbd:_U3COnFinishSubmitU3Ec__Iterator0_MoveNext_m2729496168
X3j:_glUniform4iv__wrapper
ZUb:__Z33GenerateShadowCasterPartsSortDataRK16ShadowCasterDatajRK15RenderNodeQueueRKNSt3__26vectorI20ShadowCasterPartData13stl_allocatorIS7_L18MemLabelIdentifier2ELi16EEEERK10Matrix4x4fRjP20ShadowCasterSortData
oNb:__ZZ23InitPlayerLoopCallbacksvEN51PostLateUpdateTriggerEndOfFrameCallbacksRegistrator7ForwardEv
VXf:_TimeSpan_Compare_m753151303
xtb:__Z29Transfer_Blittable_ArrayFieldI14SafeBinaryRead9BoundsIntEvRT_R9ArrayInfoRK23StaticTransferFieldInfo
aDc:_cf2_computeDarkening
Z3i:_AnimationLayerMixerPlayable__ctor_m860721801_AdjustorThunk
Mod:_MonoPropertyInfo_get_property_info_m1599555644
OGd:_DESTransform_CipherFunct_m3527261721
wLj:_GC_expand_hp_inner
gCj:__ZNK15dense_hashtableI10KeyWrapperIP18Il2CppGenericClassES3_N6il2cpp8metadata22Il2CppGenericClassHashEN14dense_hash_setIS3_S6_NS3_14EqualsComparerINS5_25Il2CppGenericClassCompareEEENSt3__29allocatorIS3_EEE8IdentityESA_SD_E12test_deletedEj
poc:__Z25Screen_Get_Custom_PropDpiv
Yeg:_UnityEventBase_RebuildPersistentCallsIfNeeded_m216788690
EIj:__ZN4utf812find_invalidIPKcEET_S3_S3_
dLd:_InputField_OnEndDrag_m4127187089
sMh:_ReadOnlyCollection_1_System_Collections_IList_RemoveAt_m2555465054_gshared
NUh:__ZL72RuntimeCompatibilityAttribute_t1169614002_CustomAttributesCacheGeneratorP21CustomAttributesCache
qOf:_StackFrame__ctor_m343464319
GT:__ZN11UnityEngine15CloudWebService20WebRequestRestClient7PrepareEv
Und:_MonoField_CheckGeneric_m453069507
vOc:__ZN20TextRenderingPrivate19NativeTextGenerator23FixLineHorizontalOffsetEiii
ZCe:_CustomAttributeNamedArgument_ToString_m1488801416_AdjustorThunk
K1e:_SynchronizedArrayListWrapper_get_IsFixedSize_m3396437476
NCd:_ObjectReader_ReadArrayOfString_m3550800559
Iwe:_MonoCustomAttrs_GetCustomAttributesInternal_m648304078
nA:__ZN7mecanim9animation19DestroyAnimationSetEPNS0_12AnimationSetERNS_6memory9AllocatorE
V_j:_emscripten_glDepthRange__wrapper
x0:__ZN14SerializedFile7ReleaseEv
Bob:__ZN16MemoryFileSystem4OpenER13FileEntryData14FilePermission16FileAutoBehavior
U6e:_CompareInfo_GetSortKey_m1915852346
MLc:_ft_var_load_avar
Afa:__ZN13RuntimeStaticI13RendererSceneLb0EE13StaticDestroyEPv
e7d:_DefaultComparer_Compare_m1297750557_gshared
SW:__ZN20DynamicHeapAllocatorI17LowLevelAllocatorE10ReallocateEPvji
Ewb:__Z18Transfer_BlittableI24GenerateTypeTreeTransferLb1E12PropertyNameEvRK29SerializationCommandArgumentsR31RuntimeSerializationCommandInfo
ZVi:_Toggle_OnEnable_m1421694809
lfb:__ZN14SafeBinaryRead21TransferSTLStyleArrayI10vector_mapIPKN5Unity4TypeE7Hash128NSt3__24lessIS5_EENS7_9allocatorINS7_4pairIS5_S6_EEEEEEEvRT_17TransferMetaFlags
$G:__ZN9AudioClip18GetQueuedAudioDataEPPvj
NQc:__ZN20TextRenderingPrivate21TextMeshGeneratorImpl14GarbageCollectEv
fec:__ZNK9Texture2D17CheckHasPixelDataEv
ryb:__Z18Transfer_BlittableI19StreamedBinaryWriteILb0EELb0E9BoundsIntEvRK29SerializationCommandArgumentsR31RuntimeSerializationCommandInfo
TQb:__Z18SetShadowsKeywordsR17ShaderPassContext9LightType10ShadowType16ShadowProjectionbb
phd:_Graphic_GetPixelAdjustedRect_m3729397999
Lpj:__ZN14dense_hash_mapI10KeyWrapperINSt3__24pairIPK12PropertyInfoP11Il2CppClassEEEj17ReflectionMapHashIS8_ENS9_14EqualsComparerINS1_8equal_toIS8_EEEENS1_9allocatorINS2_IKS9_jEEEEEC2EjRKSB_RKSF_
gac:__ZN17CollisionMeshDataC2Ev
Ytd:_ConfigHandler_CheckPath_m3079311646
nsd:_Marshal_Copy_m1222846562
h5a:__ZN16LightmapSettings23VirtualRedirectTransferER19StreamedBinaryWriteILb0EE
GDf:_Stack_Resize_m3124769495
rNb:__ZZ23InitPlayerLoopCallbacksvEN47PostLateUpdateMemoryFrameMaintenanceRegistrator7ForwardEv
dua:__ZN7ApiGLES20SetVertexArrayAttribEjj12VertexFormathjPKv
Fo:FUNCTION_TABLE_viiififii
hMj:_GC_push_next_marked
Vjb:__ZN18IDCollectorFunctor18GenerateInstanceIDEi17TransferMetaFlags
J1i:_TextGenerationSettings_Equals_m3618607189_AdjustorThunk
GIe:_NameObjectCollectionBase_BaseAdd_m3437748750
mZf:_Type_internal_from_handle_m3156085815
iIh:_ReadOnlyCollection_1_System_Collections_Generic_ICollectionU3CTU3E_Add_m69722965_gshared
KD:__ZN8Animator8TransferI19StreamedBinaryWriteILb0EEEEvRT_
T1:__ZNSt3__27__sort4IRNS_6__lessI14ObjectLoadDataS2_EEPS2_EEjT0_S6_S6_S6_T_
APb:__ZNK25CameraStackRenderingState16GetCurrentCameraEv
GSd:_ScrollRect_get_rectTransform_m2442061719
jcc:__Z22PlayableValidityChecksRK9HPlayableb
Rgb:__ZN15ResourceManagerD2Ev
gjc:__Z41Register_UnityEngine_Camera_GetAllCamerasv
meg:_InvokableCall__ctor_m2158562079
WGi:_Assertion__ctor_m2128950829
J0c:__ZN28PerformanceReportingSettings8TransferI14SafeBinaryReadEEvRT_
glb:__ZN15CacheWriterBase18GetAddressOfMemoryEv
uSe:_Buffer_BlockCopy_m2884209081
vxc:__Z18Transfer_BlittableI8JSONReadLb1E5RectTIiEEvRK29SerializationCommandArgumentsR31RuntimeSerializationCommandInfo
Awj:__ZN6il2cpp2vm22EmbeddedResourceRecordC2ERKS1_
MKb:__ZL20DrawVBOChunkWithPassP6ShaderPN9ShaderLab4PassER17ShaderPassContextR10DynamicVBORK21DynamicVBOChunkHandle
tyh:_Collection_1__ctor_m825528237_gshared
B3a:__ZN9Texture2D13AwakeFromLoadE17AwakeFromLoadMode
Svf:_SetPropertyUtility_SetStruct_TisColorBlock_t2139031574_m1748367426_gshared
Oig:_PlayerConnection_get_instance_m1750121257
dEj:__ZN6il2cpp2vm3RCW14QueryInterfaceILb0EEEP14Il2CppIUnknownP15Il2CppComObjectRK10Il2CppGuid
Vrh:_Dictionary_2_Do_CopyTo_TisRuntimeObject_TisRuntimeObject_m2341992100_gshared
mdb:__ZThn328_N14SpriteRendererD0Ev
hAa:__ZN6prcoreL17RemapGenericFloatI15TexFormatRFloat18TexFormatARGBFloatEEvPKNS_9InnerInfoE
O2g:__Z85RuntimeInvoker_Void_t1185182177_Int64_t3736567304_Int32_t2950945753_Int64_t3736567304PFvvEPK10MethodInfoPvPS4_
une:_CipherSuite__ctor_m2440635082
Yjf:_RSAPKCS1KeyExchangeFormatter_SetRSAKey_m1477802943
Rnf:_EvidenceEnumerator_get_Current_m1264365535
M1c:__ZN11UnityEngine15PlatformWrapper20GetPlayerPrefsUInt64ERKN4core12basic_stringIcNS1_20StringStorageDefaultIcEEEEy
msd:_Marshal_copy_from_unmanaged_m2834266824
vZj:dynCall_iiiifii
DUb:__ZN20ReflectionProbeCacheC2ER13BatchRendererR15RenderLoopStats
Olg:_Rect_set_xMax_m1720695099_AdjustorThunk
A5g:__Z59RuntimeInvoker_Int32_t2950945753_DateTimeOffset_t3229287507PFvvEPK10MethodInfoPvPS4_
znb:__ZNK12HandlerChain6ExistsERK13FileEntryData
R5e:_Calendar__ctor_m106290643
nVb:__Z30FindDirectAttenuationFromProbeP18ForwardLightsBlockbiRK10RenderNodeRK23FindForwardLightsParamsf
yec:__ZNSt3__26vectorIj13stl_allocatorIjL18MemLabelIdentifier1ELi16EEE6assignIPKjEENS_9enable_ifIXaasr21__is_forward_iteratorIT_EE5valuesr16is_constructibleIjNS_15iterator_traitsIS9_E9referenceEEE5valueEvE4typeES9_S9_
xeb:__ZN12InputManager23VirtualRedirectTransferER24GenerateTypeTreeTransfer
Emb:__ZN9Transform23VirtualRedirectTransferER24GenerateTypeTreeTransfer
Lpc:__ZN12GUIClipState10BeginOnGUIER10InputEvent
Nna:__ZNSt3__26vectorIN9ShaderLab20SerializedSubProgram12UAVParameterENS_9allocatorIS3_EEE21__push_back_slow_pathIKS3_EEvRT_
w8g:__Z87RuntimeInvoker_RuntimeObject_Byte_t1134296376_RuntimeObject_RuntimeObject_RuntimeObjectPFvvEPK10MethodInfoPvPS4_
dpe:_HandshakeMessage_Process_m810828609
fKc:_UNITY_tt_size_ready_bytecode
fNc:__ZN13TextRendering4FontD2Ev
Dkg:_Quaternion_Inverse_m1311579081
PPc:_UNITY_FT_Stream_Open
iQh:__ZN28GenericInterfaceFuncInvoker1Ib20UIVertex_t4057497605E6InvokeEPK10MethodInfoP12Il2CppObjectS0_
Gxb:__Z29Transfer_Blittable_ArrayFieldI24GenerateTypeTreeTransfer9BoundsIntEvRT_R9ArrayInfoRK23StaticTransferFieldInfo
Xhd:_GraphicRegistry__cctor_m1805310505
uag:_Bounds_Equals_m3920299735
DXa:__ZN8keywords18KeywordSetToStringERK16ShaderKeywordSetRN4core12basic_stringIcNS3_20StringStorageDefaultIcEEEE
jGe:_GenericTypeParameterBuilder_GetGenericArguments_m2988765390
dGc:_otv_MATH_validate
Y1g:__Z77RuntimeInvoker_Void_t1185182177_Int64_t3736567304_ResourceInfoU26_t1611441338PFvvEPK10MethodInfoPvPS4_
rJg:_List_1_CheckCollection_m1717250693_gshared
zF:__ZN4FMOD3DSP12setParameterEif
rIb:__ZN13MemoryManager16StaticInitializeEv
u7e:_CultureInfo_Equals_m1360976324
vyc:__ZN8JSONRead21TransferSTLStyleArrayI13dynamic_arrayIyLj8EEEEvRT_17TransferMetaFlags
qf:___cxa_free_exception
uhi:__ZL69PersistentCall_t3407714124_CustomAttributesCacheGenerator_m_CallStateP21CustomAttributesCache
Y$c:__ZNK20UnityConnectSettings29AnyServiceRequestingCoreStatsEv
GJ:__ZN4FMOD22FakeModChannelCallbackEPv
L4c:_BaseInput_get_compositionString_m1887614380
wf:_emscripten_glValidateProgram
nWa:__ZN4Mesh10CreateMeshEv
sG:__ZN4FMOD7SystemI11createSoundEPKcjP22FMOD_CREATESOUNDEXINFOPPNS_5SoundE
dLf:_DateTime_CompareTo_m3889078633
DDc:_cf2_stack_clear
FJe:_RemoteCertificateValidationCallback_Invoke_m727898444
Qye:_NumberFormatter_set_CurrentCulture_m1358228087
WZb:__ZN7Texture13SetAnisoLevelEi
UR:__ZNSt3__26__treeINS_12__value_typeIN4core12basic_stringIcNS2_20StringStorageDefaultIcEEEEjEENS_19__map_value_compareIS6_S7_NS_4lessIS6_EELb1EEE13stl_allocatorIS7_L18MemLabelIdentifier88ELi16EEE7destroyEPNS_11__tree_nodeIS7_PvEE
Z6:__ZN19EndOfFrameCallbacks7EnqueueEP18EndOfFrameCallbackb
mgg:_Input_set_compositionCursorPos_m1909373301
_zc:__ZN27PerformanceReportingManager23VirtualRedirectTransferER24GenerateTypeTreeTransfer
EPc:_raccess_guess_vfat
N3g:__Z78RuntimeInvoker_IntPtr_t_SByte_t1669577662_RuntimeObject_BooleanU26_t4125257963PFvvEPK10MethodInfoPvPS4_
SWc:__Z44Canvas_CUSTOM_GetETC1SupportedCanvasMaterialv
fWa:__ZN11HaloManager10UpdateHaloEiR9Transform11ColorRGBA32fjP6Object
GNf:_Decimal_decimalSetExponent_m3707787243
B9:__ZN33InstancedMeshIntermediateRenderer13StaticDestroyEPv
pzj:__ZN14dense_hash_mapI10KeyWrapperIP14Il2CppIUnknownEjN6il2cpp5utils11PointerHashIS1_EENS3_14EqualsComparerINSt3__28equal_toIS2_EEEENS9_9allocatorINS9_4pairIKS3_jEEEEE13set_empty_keyERSF_
Uva:__ZN15dense_hashtableINSt3__24pairIK9TextureIDiEES2_14GfxGenericHashIS2_EN14GfxDoubleCacheIS2_iS6_NS0_8equal_toIS2_EEN31GfxDoubleCacheConcurrencyPolicy11LocklessGetE42GfxDoubleCacheDefaultEmptyDeletedGeneratorIS2_EE9SelectKeyES9_13stl_allocatorIS4_L18MemLabelIdentifier24ELi16EEE12resize_deltaEjj
IUa:__Z21DestroyShadowMapCacheP14ShadowMapCache
Jx:__ZN7mecanim9animation25CreateControllerWorkspaceEPKNS0_18ControllerConstantERNS_6memory9AllocatorE
sth:_Array_InternalArray__get_Item_TisLabelFixup_t858502054_m3276643490_gshared
jpj:__ZN15dense_hashtableINSt3__24pairIK10KeyWrapperIPK10Il2CppTypeEjEES6_N6il2cpp8metadata14Il2CppTypeHashEN14dense_hash_mapIS6_jSB_NS6_14EqualsComparerINSA_26Il2CppTypeEqualityComparerEEENS0_9allocatorIS8_EEE9SelectKeyESF_SH_E14squash_deletedEv
iyj:__ZN6il2cpp2vm13LivenessState5ResetEv
Ftc:__ZN9JSONWrite8TransferI11KeyframeTplIfEEEvRT_PKc17TransferMetaFlags
cDf:_SortedList_GetImpl_m3689246167
MHh:_ReadOnlyCollection_1_System_Collections_Generic_IListU3CTU3E_set_Item_m3209059215_gshared
dxa:__ZN24BuiltinShaderParamValuesC2Ev
CAi:_PKCS12_Decode_m163534693
Utc:__ZL41CreateJSONTransferFunctionScriptingTraitsv
tha:__ZN6Shader23VirtualRedirectTransferER14SafeBinaryRead
wCc:_cff_glyph_load
csg:_WaitForSecondsRealtime_get_keepWaiting_m846832224
MPi:_ObjectPool_1_get_countActive_m807006650_gshared
tGb:__Z23GetLateBehaviourManagerv
L0g:__Z33RuntimeInvoker_Single_t1397266774PFvvEPK10MethodInfoPvPS4_
Fsb:__ZN14SafeBinaryRead21TransferSTLStyleArrayINSt3__26vectorI8Gradient13stl_allocatorIS3_L18MemLabelIdentifier1ELi16EEEEEEvRT_17TransferMetaFlags
jY:__ZN10MemoryPool10DeallocateEPv
Zpc:__ZN8GUIState8SetEventERK10InputEvent
mbh:__Z80RuntimeInvoker_Void_t1185182177_ScriptableRenderContext_t274343796_RuntimeObjectPFvvEPK10MethodInfoPvPS4_
se:_emscripten_glStencilOp
_Yj:dynCall_vif
$Yj:dynCall_vid
mIf:_Convert_ToSByte_m4075629912
bZj:dynCall_vii
r7f:_KeyPairPersistence_FromXml_m746585742
Usf:_Decoder__ctor_m4046021500
ZDb:__Z18Transfer_BlittableI18StreamedBinaryReadILb0EELb0EdEvRK29SerializationCommandArgumentsR31RuntimeSerializationCommandInfo
cbd:_ColorBlock_get_fadeDuration_m121071467
Cgj:__ZN6il2cpp6icalls8mscorlib6System8MonoType18GetFields_internalEP20Il2CppReflectionTypeiS5_
E2:__ZN5Unity9Component16CheckConsistencyEv
Dod:_MonoMethod_get_ContainsGenericParameters_m3860345224
c5:__ZN19ShaderPropertySheet37CreateTextureAuxPropertyUninitializedEN9ShaderLab16FastPropertyNameES1_PKc
Vyb:__ZL26Transfer_SimpleNativeClassI19StreamedBinaryWriteILb0EE10RectOffsetLb1EEvRK29SerializationCommandArgumentsR31RuntimeSerializationCommandInfo
N6j:b128
Ekj:__ZN15dense_hashtableINSt3__24pairIK10KeyWrapperIPK10Il2CppTypeEjEES6_N6il2cpp8metadata14Il2CppTypeHashEN14dense_hash_mapIS6_jSB_NS6_14EqualsComparerINSA_26Il2CppTypeEqualityComparerEEENS0_9allocatorIS8_EEE9SelectKeyESF_SH_E3endEv
ssa:__ZN13GfxDeviceGLES17SetGpuProgramNameEP10GpuProgramPKc
TT:__ZNK11UnityEngine15CloudWebService25WebRequestDownloadHandler11GetProgressEv
eXa:__Z43IsVertexFormatCompatibleWithDynamicBatchingRK14VertexDataInfo
eAf:_Array_InternalArray__ICollection_Add_TisMonoResource_t4103430009_m2699164149_gshared
jej:__ZN6il2cpp2vm13MetadataCache28GetMethodDefinitionFromIndexEi
rHj:__ZN6il2cpp2os20FileErrnoToErrorCodeEi
M0a:__ZN14SafeBinaryRead19TransferSTLStyleMapINSt3__23mapI39DeprecatedFastPropertyNameSerialization10ColorRGBAfNS1_4lessIS3_EENS1_9allocatorINS1_4pairIKS3_S4_EEEEEEEEvRT_17TransferMetaFlags
nGf:_Decimal_ThrowAtPos_m1170269346
tci:__ZL98GameObject_t1113636619_CustomAttributesCacheGenerator_GameObject_SendMessage_m3720186693____value1P21CustomAttributesCache
fh:_atexit
qUd:_Selectable_set_image_m3625164794
h4d:_InternalEnumerator_1_get_Current_m1232221964_gshared
CLh:_ReadOnlyCollection_1_System_Collections_Generic_IListU3CTU3E_Insert_m1818924748_gshared
Mnj:__ZN6il2cpp2vmL31GetObjectForMissingDefaultValueEj
_Qf:_DecoderReplacementFallbackBuffer_GetNextChar_m2858228391
xad:_AspectRatioFitter__ctor_m2468506840
PZc:__ZN11UnityEngine15PlatformWrapper30GetVRPlayAreaBoundaryDimensionEv
_ph:_Array_Sort_TisBoolean_t97287965_TisBoolean_t97287965_m2753381653_gshared
BBi:_X509Certificate_get_Hash_m410033711
jka:__ZN9ShaderLab14SerializedPassC2ERKS0_
buc:__Z35Transfer_Blittable_FixedBufferFieldI9JSONWritehEvRK29SerializationCommandArgumentsR31RuntimeSerializationCommandInfo
l:STACKTOP
JFc:_cff_get_name_index
y5a:__ZN21EnlightenSceneMapping16BuildRemapTablesEv
jdc:__ZN17TransformInternal27UpdateDeepChildCountUpwardsER18TransformHierarchyii
K6c:_ExecuteEvents_Execute_m3613826831
eed:_Image_set_type_m2038193736
r8i:__ZN6il2cpp2vm5Class19GetGenericContainerEP11Il2CppClass
A:tempBigIntD
sZb:__ZNK25CameraStackRenderingState25CalculateCameraTargetTypeEv
akd:_PropertyBuilder_GetSetMethod_m128670376
y:tempBigIntR
x:tempBigIntS
w:tempBigIntP
zn:FUNCTION_TABLE_viffi
Ihf:_MemoryStream_SetLength_m974389318
X1:__ZN6Object18RegisterInstanceIDEPS_
jwb:__Z18Transfer_BlittableI24GenerateTypeTreeTransferLb1EsEvRK29SerializationCommandArgumentsR31RuntimeSerializationCommandInfo
BDj:__ZN15dense_hashtableINSt3__24pairIK10KeyWrapperIP12Il2CppObjectEN6il2cpp2gc9CachedCCWEEES5_NS7_5utils11PointerHashIS3_EEN14dense_hash_mapIS5_S9_SD_NS5_14EqualsComparerINS0_8equal_toIS4_EEEENS0_9allocatorISA_EEE9SelectKeyESI_SK_E11set_deletedER30dense_hashtable_const_iteratorISA_S5_SD_SM_SI_SK_E
ypa:__ZNK9GfxDevice18GetWorldViewMatrixEv
ieh:__Z70RuntimeInvoker_Single_t1397266774_Single_t1397266774_Int32_t2950945753PFvvEPK10MethodInfoPvPS4_
RPb:__Z20LookRotationToMatrixRK8Vector3fS1_P10Matrix3x3f
SIf:_Convert_ToUInt16_m3902921832
uBe:_Assembly_GetTypes_m1724781913
ZXh:__ZL54TypeBuilder_t1073948154_CustomAttributesCacheGeneratorP21CustomAttributesCache
PJj:__ZN6il2cpp6icalls8mscorlib6System7Convert17Base64ToByteArrayEPDsib
Zwb:__ZL12InvokeMethodI24GenerateTypeTreeTransferEvRK29SerializationCommandArgumentsR31RuntimeSerializationCommandInfo
$Jg:_List_1_AddEnumerable_m376418521_gshared
B8g:__Z79RuntimeInvoker_Void_t1185182177_Byte_t1134296376_Byte_t1134296376_RuntimeObjectPFvvEPK10MethodInfoPvPS4_
pbj:__ZNSt3__218__insertion_sort_3IRN6il2cpp5utils11collections13ArrayValueMapIPK10Il2CppType17Il2CppInteropData26InteropDataToTypeConverterNS1_8metadata14Il2CppTypeLessENSA_26Il2CppTypeEqualityComparerEE12SortComparerEPS8_EEvT0_SH_T_
kJb:__Z31GenerateAndSendInputDownUpEventiN10InputEvent11MouseButtonEb
Cpa:__ZNK9GfxDevice25GetDeviceProjectionMatrixEv
ma:invoke_iidiii
pwb:__Z18Transfer_BlittableI24GenerateTypeTreeTransferLb1EtEvRK29SerializationCommandArgumentsR31RuntimeSerializationCommandInfo
ZP:__ZN12AudioManager33GetCurrentAmbisonicDefinitionNameE31UnityAudioEffectDefinitionFlags
xgc:__ZN11UTF16StringC2EPKc10MemLabelId
Kfc:__ZN10systeminfo24GetRuntimePlatformStringEv
Hff:_MonoIO_DeleteFile_m3839141322
WQ:__ZN5physx14PxLightCpuTask15removeReferenceEv
$Ej:__ZN6il2cpp6icalls8mscorlib6System6String22RedirectToCreateStringEv
MXh:__ZL99ILGenerator_t1388622344_CustomAttributesCacheGenerator_ILGenerator_Mono_GetCurrentOffset_m993338688P21CustomAttributesCache
QNd:_LayoutRebuilder_ReapplyDrivenProperties_m2581469389
ykg:_PropertyName_op_Implicit_m1633828199
s5:__ZN9ShaderLab6TexEnvC2ERKNS_25SerializedTexturePropertyE
ELd:_InputField_Append_m687033660
cSa:__ZN9Transform32SetLocalScaleWithoutNotificationERKN4math7_float3Ey
Y$a:__ZN19ShaderPropertySheet38CopyTextureWithAuxiliaryPropertiesFromERKN9ShaderLab16FastPropertyNameERKS_
tOc:__ZN20TextRenderingPrivate19NativeTextGeneratorD2Ev
lfj:__ZN6il2cpp2vm19SocketPollingThread14DequeueRequestEv
_Gj:__ZL10RevealLinkPv
XJf:_DateTime__ctor_m12900168_AdjustorThunk
Ope:_ClientSessionCache_FromContext_m343076119
Li:___cxa_end_catch
bmf:_ToBase64Transform_TransformBlock_m2497349397
XIe:_NameValueCollection_Add_m2418530856
Lyd:_ReturnMessage_get_MethodSignature_m399735125
_Wc:__Z43Register_UnityEngine_Canvas_set_scaleFactorv
f3f:_SortKeyBuffer_AppendLevel5_m3963841125
cJi:_PositionAssertion_Compile_m2500980346
h1e:_ArrayListWrapper_ToArray_m3192696690
FPc:_raccess_guess_linux_cap
pQ:__Z36AudioSource_Get_Custom_PropIsPlayingP12Il2CppObject
jEb:__Z19TransferField_ArrayI18StreamedBinaryReadILb0EE27Converter_UnityEngineObjectEvRK23StaticTransferFieldInfoR31RuntimeSerializationCommandInfoRT0_
vYe:_Attribute_GetCustomAttribute_m4034845276
oaa:__Z33InitializeBuiltinShaderParamNamesv
MZf:_Type_GetConstructor_m2219014380
$bd:_CanvasUpdateRegistry_SortLayoutList_m471948466
b3:__ZNK16TypeTreeIterator4TypeEv
rMb:__ZN10FileSystem25MountDataFolderFileSystemERKN4core12basic_stringIcNS0_20StringStorageDefaultIcEEEES6_
xSe:_ArgumentOutOfRangeException__ctor_m282481429
NQi:_GUILayoutUtility_Internal_MoveWindow_m3463958180
uj:_glGetUniformLocation
Vqa:__ZN13GfxDeviceGLES32CreateColorRenderSurfacePlatformEP17RenderSurfaceBase19RenderTextureFormat
IG:__ZN12AudioManager24CreateFMODSoundFromMovieEP9AudioClip
Oni:__ZL63AnalyticsSessionInfo_t2322308579_CustomAttributesCacheGeneratorP21CustomAttributesCache
hdj:__ZN6il2cpp2vm13MetadataCache24GetGenericInstanceMethodEPK10MethodInfoPK20Il2CppGenericContext
GLj:_GC_hblk_fl_from_blocks
Knd:_MonoField_GetParentType_m2478933781
k1:__Z24ConvertSeparatorsToUnityPc
cnj:__ZN6il2cpp2gc19AppendOnlyGCHashMapINSt3__24pairIPK9EventInfoP11Il2CppClassEEP21Il2CppReflectionEvent17ReflectionMapHashIS9_ENS2_8equal_toIS9_EEE3AddERKS9_SB_
rwh:_Collection_1_System_Collections_ICollection_CopyTo_m46221116_gshared
lvj:__ZN6il2cpp2vm6Thread20FreeThreadStaticDataEP12Il2CppThread
oyf:_Array_InternalArray__IndexOf_TisClientCertificateType_t1004704908_m3457772631_gshared
KWg:__Z28RuntimeInvoker_RuntimeObjectPFvvEPK10MethodInfoPvPS4_
TDc:_cf2_glyphpath_finalize
a2h:__ZL56SecurityAction_t569814076_CustomAttributesCacheGeneratorP21CustomAttributesCache
Hmf:_X509Certificate_GetPublicKey_m4184729161
L0e:_ArrayListWrapper_set_Capacity_m2373297383
YKd:_Text_get_cachedTextGenerator_m2506989875
yZj:dynCall_viififi
bGg:_Enumerator_System_Collections_IEnumerator_Reset_m502339360_AdjustorThunk
IVh:__ZL58DictionaryEntry_t3123975638_CustomAttributesCacheGeneratorP21CustomAttributesCache
W1i:_TextGenerator_GetVerticesInternal_m3222977969
TRg:_List_1_RemoveAt_m4279084788_gshared
tJc:_UNITY_FT_Stream_Free
_uj:__ZN15dense_hashtableINSt3__24pairIK10KeyWrapperINS1_IP11Il2CppClassjEEES4_EES6_N6il2cpp8metadata14ArrayClassHashEN14dense_hash_mapIS6_S4_SB_NS6_14EqualsComparerINSA_17ArrayClassCompareEEENS0_9allocatorIS8_EEE9SelectKeyESF_SH_E12maybe_shrinkEv
Ysc:__ZNK5Unity9rapidjson12GenericValueINS0_4UTF8IcEE13JSONAllocatorE6AcceptINS0_12PrettyWriterI16TempBufferWriterS3_S3_S4_EEEEbRT_
jGd:_CryptoConfig_EncodeLongNumber_m4127306320
bdh:__Z87RuntimeInvoker_Void_t1185182177_Single_t1397266774_Single_t1397266774_SByte_t1669577662PFvvEPK10MethodInfoPvPS4_
Tne:_CipherSuite_createEncryptionCipher_m2533565116
aS:__ZN11UnityEngine15CloudWebService14DataDispatcher25OnDataBlockConsumedStaticEPv
RQg:_List_1_CheckIndex_m3044940639_gshared
gsg:_GenericStack__ctor_m933681517
vCb:__Z29Transfer_Blittable_ArrayFieldI18StreamedBinaryReadILb1EE11QuaternionfEvRT_R9ArrayInfoRK23StaticTransferFieldInfo
awe:_Math_Max_m482125436
RCf:_SortedList_InitTable_m875730861
Msd:_ActivatedServiceTypeEntry_ToString_m1591455874
Znf:_SecurityElement_ToXml_m3664345083
pnh:_Array_InternalArray__Insert_TisParameterModifier_t1461694466_m3664994573_gshared
H:Math_pow
dzg:_DefaultComparer_Equals_m1870794912_gshared
Mia:__Z14resize_trimmedINSt3__26vectorIN9ShaderLab20SerializedSubProgram16SamplerParameterENS0_9allocatorIS4_EEEEEvRT_j
akg:_PlayableHandle_GetPlayableType_Injected_m686992718
CUd:_Shadow_set_effectColor_m3910676693
oWj:__ZNSt3__212basic_stringIcNS_11char_traitsIcEENS_9allocatorIcEEE6insertEjPKcj
Wtc:__Z44InitializeTransferFunctionScriptingTraitsForI8JSONReadEvR31TransferFunctionScriptingTraits
fLb:__ZNSt3__27__sort4IRNS_4lessIN22BuiltinResourceManager8ResourceEEEPS3_EEjT0_S7_S7_S7_T_
mIe:_ListDictionary_Add_m3918308031
qDj:__ZNK15dense_hashtableINSt3__24pairIK10KeyWrapperIP12Il2CppObjectEN6il2cpp2gc9CachedCCWEEES5_NS7_5utils11PointerHashIS3_EEN14dense_hash_mapIS5_S9_SD_NS5_14EqualsComparerINS0_8equal_toIS4_EEEENS0_9allocatorISA_EEE9SelectKeyESI_SK_E23find_position_with_hashERS6_j
FKd:_Selectable_OnDisable_m3225138518
aLc:_UNITY_tt_face_get_location
DTi:_AesManaged_CreateEncryptor_m1611897367
toa:__ZN6Shader16GetDefaultOrNullEv
Uuc:__ZL26Transfer_SimpleNativeClassI9JSONWrite17AnimationCurveTplIfELb0EEvRK29SerializationCommandArgumentsR31RuntimeSerializationCommandInfo
M_b:__ZN10GameObject34AddFirstTransformComponentInternalEP9Transform
tjc:__Z31Cursor_Get_Custom_PropLockStatev
J8:__ZNSt3__26__treeINS_12__value_typeINS_4pairIPcS3_EENS_3setIS3_15compare_tstringIPKcENS_9allocatorIS3_EEEEEENS_19__map_value_compareIS4_SD_20smaller_tstring_pairIS8_ELb1EEENSA_ISD_EEE7destroyEPNS_11__tree_nodeISD_PvEE
jN:__ZN12AudioManager29GetCurrentAmbisonicDefinitionE31UnityAudioEffectDefinitionFlags
Ujc:__Z52Register_UnityEngine_GameObject_GetComponentInParentv
wfb:__ZN15SerializeTraitsINSt3__24pairIPKN5Unity4TypeE7Hash128EEE8TransferI14SafeBinaryReadEEvRS7_RT_
bLj:_GC_number_stack_black_listed
KNf:_Decimal_ToString_m4018746482_AdjustorThunk
ZXb:__Z37GenerateCombinedDynamicVisibleListJobP11CullResults
wvg:_Dictionary_2_ToTKey_m2055624458_gshared
l7a:__ZNK13ScreenManager21GetCursorInsideWindowEv
JCe:_CustomAttributeData_GetCustomAttributes_m1033457578
vsd:_SafeHandle_DangerousAddRef_m614714386
YUb:__Z20IntersectAABBFrustumRK4AABBPK5Planej
uTd:_ScrollRect_OnDrag_m688583138
Oac:__ZN13RenderManager15InitializeClassEv
Ysb:__ZN15SerializeTraitsI12PropertyNameE8TransferI14SafeBinaryReadEEvRS0_RT_
HFh:_ReadOnlyCollection_1_System_Collections_IList_IndexOf_m3120991897_gshared
fxd:_Header__ctor_m1921907550
wVd:_Slider_FindSelectableOnUp_m4062600878
Zve:_Math_Ceiling_m625148210
Tgg:_Material_SetIntImpl_m724477324
M7:__GLOBAL__sub_I_runtime_baseclasses_2_cpp
bwc:__ZN9JSONWrite8TransferI11ColorRGBA32EEvRT_PKc17TransferMetaFlags
Jyc:__Z22TransferField_NonArrayI8JSONRead27Converter_SimpleNativeClassI8GradientEEvRK23StaticTransferFieldInfoR31RuntimeSerializationCommandInfoRT0_
vHb:__ZN10MonoScript13AwakeFromLoadE17AwakeFromLoadMode
FRe:_Interval__ctor_m4022869013
oZe:_Boolean_System_IConvertible_ToUInt16_m3465173538
KQa:__ZN10MemoryFile21CreateFileSystemEntryE10MemLabelId14FilePermissionPvjb
RFa:__ZNK18GfxFramebufferGLES15DiscardContentsER12ObjectHandleI17RenderSurface_TagP17RenderSurfaceBaseE
xke:_ARC4Managed_KeySetup_m2449315676
dej:__ZN6il2cpp2vm13MetadataCache27GetEventDefinitionFromIndexEi
rJf:_Convert_ToUInt64_m92315402
ivc:__Z18Transfer_BlittableI9JSONWriteLb1EdEvRK29SerializationCommandArgumentsR31RuntimeSerializationCommandInfo
E1j:_glGetIntegerv__wrapper
aRf:_EncoderExceptionFallback__ctor_m3745979420
G0d:_InternalEnumerator_1_System_Collections_IEnumerator_get_Current_m435848551_gshared
B3:__ZN10GameObject28FinalizeAddComponentInternalEPN5Unity9ComponentE
Eri:__ZL57Image_t2670269651_CustomAttributesCacheGenerator_m_SpriteP21CustomAttributesCache
B4a:__ZN9Texture2DD2Ev
_0i:_AudioExtensionManager_GetReadyToPlay_m1557263244
XSg:_List_1_set_Capacity_m2777925136_gshared
AIf:_Convert_ToSingle_m164367433
tth:_Array_InternalArray__get_Item_TisILTokenInfo_t2325775114_m3110830457_gshared
zGf:_Convert_ToDecimal_m1284410333
zbg:_Camera_INTERNAL_CALL_RaycastTry2D_m3172975827
rLf:_DateTime_CheckStyle_m1392838900
vUe:_SmallXmlParser_ReadUntil_m2715581630
uIe:_NameObjectCollectionBase__ctor_m2090733912
wQe:_Group__cctor_m2230627219
Uo:FUNCTION_TABLE_viiiffi
ome:_RSAManaged_EncryptValue_m4149543654
Zq:__ZN13dynamic_arrayIhLj1EE18resize_initializedEjRKh12ResizePolicy
Lda:__ZN27IntermediateRendererManagerD2Ev
dkb:__ZN17PersistentManager27GetLoadErrorMessageFromPathERKN4core12basic_stringIcNS0_20StringStorageDefaultIcEEEE
sAi:_NetscapeCertTypeExtension_ToString_m1800688476
km:_glGenRenderbuffers
Oxj:__ZN6il2cpp6icalls8mscorlib6System2IO6MonoIO19GetCurrentDirectoryEPi
vng:_Renderer_get_sortingOrder_m344607889
MVb:__Z21IntersectSegmentPlaneRK8Vector3fS1_RK5PlanePS_
a3g:__Z81RuntimeInvoker_Void_t1185182177_Int64_t3736567304_RuntimeObject_Int32_t2950945753PFvvEPK10MethodInfoPvPS4_
Tvi:__ZL50Outline_t2536100125_CustomAttributesCacheGeneratorP21CustomAttributesCache
nEf:_Convert_ToBoolean_m4098720762
gKi:_Uri_get_IsFile_m2450018824
$ba:__ZN14CachingManager7DisposeEv
WAi:_X509CertificateEnumerator_MoveNext_m3925432749
$M:__ZN12AudioManager31GetCurrentSpatializerDefinitionEv
THe:_HybridDictionary_Add_m912320053
ocb:__ZN12MeshRenderer16UpdateCachedMeshEv
NSi:_KeyBuilder_IV_m3340234014
Esb:__Z19TransferField_ArrayI14SafeBinaryRead27Converter_SimpleNativeClassI8GradientEEvRK23StaticTransferFieldInfoR31RuntimeSerializationCommandInfoRT0_
pyg:_DefaultComparer_Equals_m1163494476_gshared
yuf:_Array_InternalArray__ICollection_Remove_TisDictionaryEntry_t3123975638_m3699186409_gshared
HAe:_Object_Equals_m1397037629
hz:__ZNK27StateMachineBehaviourPlayer25FireStateMachineBehaviourEiiN7mecanim12statemachine19StateMachineMessageE
V9f:_AsyncOperation_t1445031843_marshal_pinvoke_back
l8:__GLOBAL__sub_I_runtime_utilities_4_cpp
plg:_Rect_get_center_m138276653
o_b:__ZN6Camera15SetOrthographicEb
AFc:_UNITY_FT_Stream_GetUShort
Jpa:__ZN13GfxDeviceGLES14DisableScissorEv
n8g:__Z240RuntimeInvoker_RuntimeObject_Int16_t2552820387_RuntimeObject_Int32_t2950945753_Int32_t2950945753_Int32_t2950945753_SByte_t1669577662_SByte_t1669577662_SByte_t1669577662_SByte_t1669577662_Int16_t2552820387_SByte_t1669577662_SByte_t1669577662PFvvEPK10MethodInfoPvPS4_
Bag:_Bounds_get_size_m1178783246_AdjustorThunk
ZLc:_tt_get_var_blend
h0g:__Z64RuntimeInvoker_Double_t594665363_RuntimeObject_Int32_t2950945753PFvvEPK10MethodInfoPvPS4_
c_d:_InternalEnumerator_1_System_Collections_IEnumerator_get_Current_m2141782011_AdjustorThunk
uNf:_Decimal_decimalMult_m3812462972
pse:_RecordProtocol_BeginSendRecord_m615249746
Gc:_glVertexAttrib4f
DIg:_Enumerator_System_Collections_IEnumerator_get_Current_m209407522_AdjustorThunk
Fdg:_Display_get_systemHeight_m730809466
KKg:_List_1_System_Collections_IList_Insert_m4074493513_gshared
GNc:__ZNSt3__26vectorINS_4pairINS1_IttEEfEENS_9allocatorIS3_EEE8__appendEj
zqg:_SpriteAtlasManager_PostRegisteredAtlas_m3806600148
cKi:_Uri_GetOpaqueWiseSchemeDelimiter_m1909471550
FMj:_GC_set_hdr_marks
GWa:__Z17SetupObjectMatrixRK10Matrix4x4fi
lwg:_Dictionary_2_OnDeserialization_m1254782141_gshared
M8:__ZN13RuntimeStaticINSt3__23mapINS0_4pairIPcS3_EEPFbPvR14SafeBinaryReadE20smaller_tstring_pairIPKcENS0_9allocatorINS2_IKS4_S9_EEEEEELb0EE13StaticDestroyES5_
egf:_FileStream_FlushBufferIfDirty_m4249802951
Q9d:_Enumerator_System_Collections_IEnumerator_Reset_m2020903703_gshared
E7d:_DefaultComparer_Compare_m1916473435_gshared
pu:__ZN7mecanim9animation16CreateClipMemoryEPKNS0_4ClipEiRNS_6memory9AllocatorE
lPc:_open_face
Oze:_NumberFormatter_FormatNumber_m1763569482
rVc:__Z17RegisterModule_UIv
GA:__ZN8Animator24SortJobsBasedOnHierarchyERK13dynamic_arrayINS_11AnimatorJobELj8EERS0_IS2_Lj4EE
Mwe:_MonoCustomAttrs_GetCustomAttributes_m1347331976
xig:_Mesh_Clear_m2630385472
B0g:__Z46RuntimeInvoker_RuntimeObject_Int16_t2552820387PFvvEPK10MethodInfoPvPS4_
Aqa:__ZN9GfxDevice24CreateRenderDepthSurfaceE9TextureIDiiii16TextureDimension17DepthBufferFormat18SurfaceCreateFlags
Rvd:_SynchronizationAttribute_set_Locked_m2760363037
zbf:_Int16_Equals_m82811458
Sle:_PrivateKeyInfo_Decode_m986145117
pmg:_RectOffset_get_top_m2855347295
AG:__ZN4FMOD5Sound11setUserDataEPv
Pha:__ZN14SafeBinaryRead21TransferSTLStyleArrayINSt3__26vectorIN9ShaderLab19SerializedSubShaderENS1_9allocatorIS4_EEEEEEvRT_17TransferMetaFlags
Y6c:_ExecuteEvents_Execute_m533210008
A$g:__Z137RuntimeInvoker_Void_t1185182177_Int32_t2950945753_RuntimeObject_RuntimeObject_RuntimeObject_RuntimeObject_RuntimeObject_SByte_t1669577662PFvvEPK10MethodInfoPvPS4_
Qaf:_Guid_op_Equality_m4289903222
ax:__ZN27AnimationLayerMixerPlayable13SetInputCountEi
fQa:__ZNK25SingleBlockMemoryFileData4SizeEv
qB:__ZN9BlobWrite8TransferIN7mecanim12statemachine18StateMachineMemoryEEEvRT_PKc17TransferMetaFlags
ZCj:__ZNK15dense_hashtableINSt3__24pairIK10KeyWrapperIP12Il2CppObjectEN6il2cpp2gc9CachedCCWEEES5_NS7_5utils11PointerHashIS3_EEN14dense_hash_mapIS5_S9_SD_NS5_14EqualsComparerINS0_8equal_toIS4_EEEENS0_9allocatorISA_EEE9SelectKeyESI_SK_E3endEv
EKf:_DateTime_System_IConvertible_ToUInt32_m3781235049
zYg:__Z92RuntimeInvoker_Int32_t2950945753_RuntimeObject_RuntimeObject_SByte_t1669577662_RuntimeObjectPFvvEPK10MethodInfoPvPS4_
vdf:_Int64_System_IConvertible_ToType_m3223988955
TWb:__ZN14qsort_internal5QSortIP16RenderObjectDatai25RenderPrePassObjectSorterEEvT_S4_T0_T1_
Flf:_SymmetricAlgorithm_Dispose_m1120980942
Sba:__ZL19StaticCleanupPlayerPv
Nwe:_MonoCustomAttrs_RetrieveAttributeUsage_m2717094301
rff:_DirectoryInfo_Initialize_m1389772934
rcc:__ZN13PlayableGraph4StopEv
l9f:_AnimationCurve_Init_m425927913
wL:__ZN12AudioManager37RebindAudioSourcesAndSubMixersToMixerEP10AudioMixer
dKa:__ZN9Behaviour10DeactivateE19DeactivateOperation
vNd:_LayoutGroup_DelayedSetDirty_m2562435574
wif:_Stream_WriteByte_m1519852120
qia:__ZN15dense_hashtableINSt3__24pairIKiN4core17string_with_labelILi1EEEEEi18SInt32HashFunctionN14dense_hash_mapIiS5_S7_NS0_8equal_toIiEE13stl_allocatorIS6_L18MemLabelIdentifier1ELi16EEE9SelectKeyESA_SD_E15insert_noresizeERKS6_
HGj:__ZN6il2cpp2vmL22RaiseOverflowExceptionEv
_p:__Z23CalculateGlobalRotation23TransformAccessReadOnly
Wma:__ZNK9ShaderLab7Program11IsSupportedEPK6Shader
Z$:__ZNK4core8hash_mapIPKcPK4RTTIN11TypeManager23ConstCharPtrHashFunctorENS6_19ConstCharPtrEqualToEE6lookupERKS2_
cld:_TypeBuilder_GetMethodImpl_m3583143647
Vui:__ZL54LayoutGroup_t2436138090_CustomAttributesCacheGeneratorP21CustomAttributesCache
yVj:_strcat
r9b:__Z43InitializeRendererAnimationBindingInterfacev
hba:__ZL26DestroyGameObjectRecursiveR10GameObjectR11BatchDelete
WMj:_GC_allochblk_nth
W4c:_BaseInput_get_touchSupported_m2634027966
ATd:_ScrollRect_get_vScrollingNeeded_m1717136831
cTi:_SymmetricTransform_FinalEncrypt_m748885414
F8b:__Z7HaloTexP9Texture2DPhiiii
ssb:__Z29Transfer_Blittable_ArrayFieldI14SafeBinaryReadjEvRT_R9ArrayInfoRK23StaticTransferFieldInfo
j_j:dynCall_i
qSj:__ZNK6il2cpp8metadata23Il2CppGenericMethodHashclEPK19Il2CppGenericMethod
ptb:__ZN14SafeBinaryRead21TransferSTLStyleArrayI13dynamic_arrayIxLj8EEEEvRT_17TransferMetaFlags
wZj:dynCall_f
jIe:_ListDictionary_GetEnumerator_m3395631195
Qwb:__Z35Transfer_Blittable_FixedBufferFieldI24GenerateTypeTreeTransferjEvRK29SerializationCommandArgumentsR31RuntimeSerializationCommandInfo
FZa:__ZN8Playable13SetInputCountEi
OYj:dynCall_v
bEa:__ZN7ApiGLES14TextureSamplerEjjRK24GfxTextureSamplingParams17TextureColorSpace
VCf:_SortedList_System_Collections_IEnumerable_GetEnumerator_m2738760439
Dvj:__ZN6il2cpp2vm6Thread8SetStateEP12Il2CppThreadNS0_11ThreadStateE
iTa:__ZN6Camera23VirtualRedirectTransferER14SafeBinaryRead
t9f:_Application_get_isEditor_m857789090
r$c:__ZN11UnityEngine7Connect13ConnectConfig11ConfigValueD2Ev
$Ea:__ZNSt3__26__treeINS_12__value_typeIjP14DataBufferGLESEENS_19__map_value_compareIjS4_NS_4lessIjEELb1EEENS_9allocatorIS4_EEE7destroyEPNS_11__tree_nodeIS4_PvEE
S9f:_AssetBundleRequest_t699759206_marshal_pinvoke_back
Ecc:__ZN13PlayableGraph15SetPrepareStageE13DirectorStage
zb:invoke_viiiiiiii
abf:_Int16_System_IConvertible_ToDateTime_m3080274979_AdjustorThunk
Dvh:_Collection_1_ConvertItem_m1760499239_gshared
g6g:__Z74RuntimeInvoker_RuntimeObject_RuntimeObject_Double_t594665363_RuntimeObjectPFvvEPK10MethodInfoPvPS4_
lxi:_SslHandshakeHash__ctor_m4169387017
y4i:_Animator_ResetTrigger_m2321267720
ygb:__ZN18StreamedBinaryReadILb0EE21TransferSTLStyleArrayI13dynamic_arrayIiLj4EEEEvRT_17TransferMetaFlags
f5a:__ZN16LightmapSettings5ResetEv
FNa:__ZN12FileAccessor4ReadEyPvPy
pYg:__Z67RuntimeInvoker_Void_t1185182177_Int16_t2552820387_Int32_t2950945753PFvvEPK10MethodInfoPvPS4_
HEe:_EnumBuilder_get_BaseType_m1707640163
TBh:_Collection_1_IsValidItem_m714924194_gshared
Zsc:__ZN5Unity9rapidjson12PrettyWriterI16TempBufferWriterNS0_4UTF8IcEES4_13JSONAllocatorE12PrettyPrefixENS0_4TypeE
NTf:_UnicodeEncoding_GetString_m332467280
Rhc:__ZN8TypeTreeC2E10MemLabelId
S1:__ZNK15FileSystemEntry6ExistsEv
Ocb:__ZNK9Transform21GetLocalToWorldMatrixER10Matrix4x4f
Opg:_Transform_INTERNAL_get_rotation_m2413441996
V9c:_TouchInputModule_IsModuleSupported_m384818291
uLf:_DateTime_ToString_m884486936
ele:_MD4Managed_HashCore_m3384203071
DH:__ZN13AudioListener23VirtualRedirectTransferER19StreamedBinaryWriteILb0EE
Xoe:_ClientRecordProtocol_createClientHandshakeMessage_m3325677558
rra:__ZN13GfxDeviceGLES11CopyTextureE9TextureIDS0_
hDf:_SortedList_get_Capacity_m919184864
Uxg:_Dictionary_2_ContainsKey_m2278349286_gshared
O0j:_emscripten_glViewport__wrapper
cU:__ZN11UnityEngine15CloudWebService23WebRequestUploadHandler13GetUploadDataERj
dcg:_Color32_ToString_m403383053_AdjustorThunk
rrf:_String_IndexOfOrdinalUnchecked_m460601827
E2i:_Canvas_get_sortingOrder_m1860900812
Yjd:__Z30il2cpp_codegen_raise_exceptionP11Exception_tP10MethodInfo
fud:_ConfigHandler_ReadChannel_m781299361
vlg:_Rect_get_max_m350137314
i7g:__Z99RuntimeInvoker_Void_t1185182177_Int32_t2950945753_Int32_t2950945753_SByte_t1669577662_RuntimeObjectPFvvEPK10MethodInfoPvPS4_
_Jc:_tt_size_select
hwd:_InternalRemotingServices_GetCachedSoapAttribute_m1042302982
sS:__ZN11UnityEngine15CloudWebService17SessionEventQueue15RestoreFromFileER12FileAccessorPvy
ODe:_ConstructorBuilder_GetILGenerator_m1421260830
Xwj:__ZN6il2cpp2vm9Exception25RaiseOutOfMemoryExceptionEv
Pfb:__ZN14PlayerSettingsD2Ev
gPd:_RectMask2D_RemoveClippable_m773604960
NQh:__ZL51Attribute_t861562559_CustomAttributesCacheGeneratorP21CustomAttributesCache
eIf:_Convert_ToSByte_m1350241137
KLj:_GC_reclaim_all
Fea:__ZN13PlayableGraph14DestroyOutputsEv
Guh:_Enumerator_System_Collections_IEnumerator_get_Current_m3895111131_gshared
pf:___syscall122
HGf:_Convert_ToDecimal_m2858622624
RAe:_OperatingSystem__ctor_m1545635730
YPg:_List_1_RemoveAll_m2406195485_gshared
upb:__ZNK17InstancingBatcher25FillInstanceBufferWithJobIN10Instancing11DrawAPIArgsEEEvR8JobFenceR13dynamic_arrayIPvLj4EEjjRKT_
XO:__ZN9AudioClip16EnableLegacyModeEv
pvd:_Context_DoCallBack_m749197451
i3i:_CanvasRenderer_set_materialCount_m4286588063
hjc:__Z52Register_UnityEngine_Camera_INTERNAL_CALL_RaycastTryv
fVj:_mkdir
LWi:_VerticalLayoutGroup_SetLayoutHorizontal_m84550911
yPj:__GLOBAL__sub_I_MemoryMappedFile_cpp
aIg:_Enumerator_MoveNext_m29052175_AdjustorThunk
Xng:_SendMouseEvents_SetMouseMoved_m2822596724
shc:__ZN18ScriptingArguments13CopyFromOtherERKS_
kSe:_PKCS12_ReadSafeBag_m1585166574
hMc:_ps_hints_close
dbc:__Z16CreateRenderLoopR6Camera
FGb:__ZN32SerializationCommandQueueBuilder3AddERK20SerializationCommand
kX:_tlsf_create
$Jh:_ReadOnlyCollection_1_System_Collections_IEnumerable_GetEnumerator_m2505713430_gshared
ahb:__ZN14SafeBinaryRead21TransferSTLStyleArrayINSt3__26vectorIN15ResourceManager10DependencyE13stl_allocatorIS4_L18MemLabelIdentifier52ELi16EEEEEEvRT_17TransferMetaFlags
YFb:__ZN13MonoBehaviour23VirtualRedirectTransferER18StreamedBinaryReadILb0EE
Pja:__ZN9ShaderLab20SerializedSubProgramC2ERKS0_
Kff:_FileLoadException__ctor_m3879680456
$sh:_Array_InternalArray__get_Item_TisKeyValuePair_2_t71524366_m252172060_gshared
gXj:__ZNK10__cxxabiv121__vmi_class_type_info27has_unambiguous_public_baseEPNS_19__dynamic_cast_infoEPvi
zye:_MulticastDelegate_CombineImpl_m2857239134
R1f:_Version_op_Inequality_m1696193441
psd:_Marshal_ReadByte_m1960935664
m6a:__ZN15QualitySettings23VirtualRedirectTransferER19StreamedBinaryWriteILb0EE
ZSb:__Z20RenderFullScreenQuadR9GfxDeviceRK6Camera17ShaderChannelMaskRK5RectTIfEf21MonoOrStereoscopicEye
$0e:_ArrayListWrapper_CopyTo_m3756520478
Zqd:_ResourceInfo_t2872965302_marshal_pinvoke
E9b:__ZN8Material8GetFloatEN9ShaderLab16FastPropertyNameE
gGd:_CryptoConfig_MapNameToOID_m2044758263
Hpc:__Z11GetGUIStatev
pg:_glGetActiveUniform
Ayf:_Array_InternalArray__IndexOf_TisSlot_t3975888750_m4250446283_gshared
eef:_IntPtr__ctor_m620280096_AdjustorThunk
wg:_emscripten_glGetObjectParameterivARB
sIi:_CharacterClass_AddCharacter_m2370152363
o7:__ZN15SerializeTraitsI10ColorRGBAfE8TransferI14SafeBinaryReadEEvRS0_RT_
MEh:_Collection_1_IsValidItem_m2333176545_gshared
Pba:__ZN22BuiltinResourceManager13StaticDestroyEPv
$aa:__ZN10GameObject17GetComponentIndexEPN5Unity9ComponentE
S7a:__ZN14SafeBinaryRead21TransferSTLStyleArrayI13dynamic_arrayI7SubMeshLj4EEEEvRT_17TransferMetaFlags
roh:_Array_InternalArray__set_Item_TisILTokenInfo_t2325775114_m309595583_gshared
nQc:__ZNK13TextRendering4Font11GetMaterialEv
lK:__ZN29AudioEffectInternalDefinition9CreateDSPEPN4FMOD6SystemEPvPfP23UnityAudioAmbisonicDataPP25UnityAudioSpatializerData
PLc:_UNITY_tt_face_vary_cvt
l3f:_SimpleCollator_ClearBuffer_m2975394169
ZPi:_Event_Internal_GetMousePosition_m1101229675
o0b:__ZN35RegisterRuntimeInitializeAndCleanup22ExecuteInitializationsEv
rmf:_TripleDESCryptoServiceProvider_CreateEncryptor_m450924958
NJi:_UriParser_GetParser_m544052729
ALd:_Text_get_font_m2857203289
fMa:__ZN23PreloadManagerOperation14SetFinalTimingEffff
i:DYNAMICTOP_PTR
UGe:_MethodBuilder_fixup_m1765890582
OCd:_ObjectReader_ReadSimpleArray_m428957657
zfb:__ZN13BuildSettings8TransferI18StreamedBinaryReadILb0EEEEvRT_
swe:_MissingFieldException__ctor_m4282575076
oNf:_Decimal_Equals_m2592017260
Cud:_ConfigHandler_OnEndParsing_m3764034673
SAd:_RemotingConfiguration_RegisterTypes_m2378540395
toc:__Z38Renderer_Get_Custom_PropSortingLayerIDP12Il2CppObject
$$e:_ArrayList_get_Capacity_m431818936
o2d:_InternalEnumerator_1_System_Collections_IEnumerator_get_Current_m767948013_gshared
wcg:_DelegatePInvokeWrapper_CSSMeasureFunc_t1554030124
F9f:_UnityAction_Invoke_m893829196
SMa:__ZN14AsyncOperationD0Ev
Ava:__Z29TextureIdMapGLES_QueryOrAlloc9TextureID
Bmj:__ZN15dense_hashtableINSt3__24pairIK10KeyWrapperINS1_IPK12PropertyInfoP11Il2CppClassEEEjEES9_17ReflectionMapHashIS8_EN14dense_hash_mapIS9_jSD_NS9_14EqualsComparerINS0_8equal_toIS8_EEEENS0_9allocatorISB_EEE9SelectKeyESI_SK_E12resize_deltaEjj
Kbg:_Color_GetHashCode_m1829208463
Ngc:__Z25scripting_raise_exception21ScriptingExceptionPtr
gMd:_Text_get_cachedTextGeneratorForLayout_m116487342
W4i:__ZL11decimalLog2P19il2cpp_decimal_repr
jhb:__ZN15ResourceManager10Dependency8TransferI14SafeBinaryReadEEvRT_
Qca:__ZN23TransformChangeDispatch14RegisterSystemEPKcNS_12InterestTypeE
_zh:_Collection_1_System_Collections_IList_Remove_m3800279569_gshared
mLj:_GC_extend_size_map
aGe:_GenericTypeParameterBuilder_GetCustomAttributes_m386082976
RVd:_Text_FontTextureChanged_m495427969
Dze:_NumberFormatter_RoundDecimal_m2957290908
PK:__ZN4FMOD6System9setDriverEi
PY:__ZNK9Transform11GetRotationEv
mAf:_Array_InternalArray__ICollection_Add_TisSingle_t1397266774_m1873979703_gshared
EMc:_pshinter_get_globals_funcs
Rwb:__Z18Transfer_BlittableI24GenerateTypeTreeTransferLb0EyEvRK29SerializationCommandArgumentsR31RuntimeSerializationCommandInfo
r0a:__ZN8Material14CreateMaterialER6ShaderN6Object9HideFlagsEb
IXf:_TimeSpan_get_Minutes_m4278980001_AdjustorThunk
I2i:_Canvas_set_sortingLayerID_m861680532
oQi:_GUI__cctor_m3051457990
_5c:_EventSystem_IsPointerOverGameObject_m1911785875
w5:__Z25GetBuiltinResourceManagerv
wCj:__ZN6il2cpp2gc8GCHandle15GetTargetHandleEP12Il2CppObjectii
dcf:_Int32_System_IConvertible_ToByte_m3832391412
Oh:_llvm_trap
uaa:__ZNSt3__27__sort5IRNS_6__lessIN12_GLOBAL__N_114ParamNameIndexES3_EEPS3_EEjT0_S7_S7_S7_S7_T_
TBi:_X509Certificate_VerifySignature_m3988463526
Hmg:_RectTransform_get_anchoredPosition_m1813443094
JLj:_get_index
Raf:_GuidParser_AtEnd_m3409982497
Y6f:_KeyBuilder_Key_m876696100
VTa:__Z26scripting_method_get_class18ScriptingMethodPtr
Djj:__ZN15dense_hashtableINSt3__24pairIK10KeyWrapperINS1_IPK14Il2CppAssemblyP11Il2CppClassEEEjEES9_17ReflectionMapHashIS8_EN14dense_hash_mapIS9_jSD_NS9_14EqualsComparerINS0_8equal_toIS8_EEEENS0_9allocatorISB_EEE9SelectKeyESI_SK_EC2ERKSN_j
xfj:__ZN6il2cpp2vm21ThreadPoolCompartment12DetachThreadEP12Il2CppThread
bFd:_SByte_System_IConvertible_ToInt16_m885121451_AdjustorThunk
mGf:_Decimal_stripStyles_m1823381019
Qqa:__ZN13GfxDeviceGLES30SetBackBufferColorDepthSurfaceEP17RenderSurfaceBaseS1_
gii:__ZL63TexturePlayableOutput_t648497447_CustomAttributesCacheGeneratorP21CustomAttributesCache
lsc:__Z52Register_UnityEngine_GUIUtility_get_systemCopyBufferv
Ish:_LayoutGroup_SetProperty_TisBoolean_t97287965_m3903959758_gshared
Qcc:__ZN16StreamedResource8TransferI18StreamedBinaryReadILb0EEEEvRT_
llc:__Z49Register_UnityEngine_Input_get_imeCompositionModev
qog:_Sprite_INTERNAL_get_rect_m1600380876
pia:__ZN15dense_hashtableINSt3__24pairIKiN4core17string_with_labelILi1EEEEEi18SInt32HashFunctionN14dense_hash_mapIiS5_S7_NS0_8equal_toIiEE13stl_allocatorIS6_L18MemLabelIdentifier1ELi16EEE9SelectKeyESA_SD_E12resize_deltaEjj
lZb:__ZNK20OcclusionCullingData22GetStaticRendererCountEv
Tzc:__GLOBAL__sub_I_runtime_particlesystem_modules_5_cpp
C5j:_emscripten_glDisableVertexAttribArray__wrapper
zxe:_MonoType_GetAttributeFlagsImpl_m167182975
Jme:_EncryptedData_get_EncryptedContent_m3205649670
qcb:__ZN12MeshRenderer18CalculateLocalAABBER4AABBRKS_RK4Mesh
dW:__ZN21UnityDefaultAllocatorI17LowLevelAllocatorE8AllocateEji
yx:__ZN7mecanim5human14HumanPoseClearERNS0_9HumanPoseERKNS_6bitsetILj83EEE
aTc:__ZL28InitializeUIScriptingClassesv
Qah:__Z54RuntimeInvoker_Vector2_t2156229523_Vector3_t3722313464PFvvEPK10MethodInfoPvPS4_
TJb:__ZN10UnityScene10ClearRootsEv
KJh:_ReadOnlyCollection_1_System_Collections_IList_set_Item_m2162444692_gshared
unb:__ZN12HandlerChain10AtomicMoveER13FileEntryDataS1_
gHa:__ZN9GfxDevice17HasGPUFencePassedEPv
iea:__ZZN15DirectorManager15InitializeClassEvEN48PreLateUpdateDirectorDeferredEvaluateRegistrator7ForwardEv
_Bc:__ZN20SpeedTreeWindManager6UpdateEf
e1g:__Z68RuntimeInvoker_Int64_t3736567304_IntPtr_t_MonoIOErrorU26_t1548853198PFvvEPK10MethodInfoPvPS4_
cD:__ZN7mecanim9animation20CreateAvatarConstantEPNS_8skeleton8SkeletonEPNS1_13SkeletonPoseTIN4math4trsXEEES8_PNS_5human5HumanES3_iRKS6_RNS_6memory9AllocatorE
MKa:__ZN4core8hash_mapINSt3__24pairI9UnityGUIDxEE15SpriteAtlasData23SpriteRenderDataKeyHashNS1_8equal_toIS4_EEE4growEi
Nbb:__ZN14CompressedMesh8TransferI19StreamedBinaryWriteILb0EEEEvRT_
dCf:_Array_InternalArray__Insert_TisDouble_t594665363_m675699942_gshared
iSg:_List_1_System_Collections_IList_Add_m3014885234_gshared
TLi:_UnityAction_1_Invoke_m3535252839_gshared
IJj:__ZNK6il2cpp5utils13VmStringUtils21CaseSensitiveComparerclERKNSt3__212basic_stringIcNS3_11char_traitsIcEENS3_9allocatorIcEEEEPKc
lUd:_Selectable_set_isPointerInside_m701571657
SVa:__ZN24GenerateTypeTreeTransfer8TransferI21PlatformShaderDefinesEEvRT_PKc17TransferMetaFlags
Tgb:__ZNK15ResourceManager22GetTypeVirtualInternalEv
mAj:__ZN6il2cpp2vmL36AddNestedTypesToNametoClassHashTableEPK11Il2CppImagePK20Il2CppTypeDefinition
UTg:_List_1_set_Capacity_m2707586410_gshared
Sig:_PlayerConnection_MessageCallbackInternal_m1914517467
dag:_AttributeHelperEngine__cctor_m1900959362
nNc:__ZN13TextRendering4Font23VirtualRedirectTransferER24GenerateTypeTreeTransfer
Nri:__ZL102Image_t2670269651_CustomAttributesCacheGenerator_Image_t2670269651____eventAlphaThreshold_PropertyInfoP21CustomAttributesCache
XLe:_X509SubjectKeyIdentifierExtension_ToString_m12089275
Adh:__Z106RuntimeInvoker_RuntimeObject_RuntimeObject_Int32_t2950945753_Int16_t2552820387_RuntimeObject_RuntimeObjectPFvvEPK10MethodInfoPvPS4_
e1f:_UnhandledExceptionEventArgs__ctor_m224348470
n3i:_CanvasRenderer_SetPopMaterial_m2720611463
qyf:_Array_InternalArray__IndexOf_TisByte_t1134296376_m929524687_gshared
CP:__ZN11AudioSource15InitializeClassEv
c7c:_ExecuteEvents_get_dragHandler_m3849431675
ASb:__ZN11HaloManager17RenderGeometryJobEP25DynamicVBOGeometryJobDataj
gjg:_Object_DestroyImmediate_m2288369078
OPf:_Enum_System_IConvertible_ToDateTime_m3823814707
tE:__ZNSt3__227__insertion_sort_incompleteIRPFbN7mecanim9animation13MuscleIndexIdES3_EPS3_EEbT0_S8_T_
O5j:_emscripten_glBlendEquation__wrapper
ruj:__ZN15dense_hashtableINSt3__24pairIK10KeyWrapperIP11Il2CppClassES4_EES5_N6il2cpp8metadata16SZArrayClassHashEN14dense_hash_mapIS5_S4_SA_NS5_14EqualsComparerINS9_19SZArrayClassCompareEEENS0_9allocatorIS7_EEE9SelectKeyESE_SG_E13set_empty_keyERKS7_
$Vj:__ZNSt3__212basic_stringIcNS_11char_traitsIcEENS_9allocatorIcEEE6__initEPKcj
Vj:_emscripten_set_fullscreenchange_callback
dkd:_PropertyBuilder_IsDefined_m406627924
qMh:_ReadOnlyCollection_1_System_Collections_IList_Insert_m4085855595_gshared
OFi:_PatternCompiler_NewLink_m3699449496
oV:__ZN11UnityEngine15CloudWebService14DataDispatcher22ResetNetworkRetryIndexEv
_j:_emscripten_glDrawArrays
Ugg:_Material_HasProperty_m2704238996
PMb:__ZZ23InitPlayerLoopCallbacksvEN43EarlyUpdateExecuteMainThreadJobsRegistrator7ForwardEv
RU:__ZN11UnityEngine15CloudWebService19SessionEventManagerC2Ev
b$e:_Char_System_IConvertible_ToSingle_m2690985411_AdjustorThunk
dk:_clock_getres
JNh:_Comparison_1_Invoke_m668117148_gshared
$He:_DictionaryNodeEnumerator_FailFast_m2494733641
V6:__ZN14GfxDoubleCacheIyP17VertexDeclaration14GfxGenericHashIyENSt3__28equal_toIyEEN31GfxDoubleCacheConcurrencyPolicy11LocklessGetE42GfxDoubleCacheDefaultEmptyDeletedGeneratorIyEE3GetI15VertDeclCreatorEERKS1_RKyT_
b4c:__ZN13RuntimeStaticI14dynamic_bitsetLb0EE16StaticInitializeEPv
Oga:__ZNSt3__222__merge_move_constructIRNS_4lessIN4core12basic_stringIcNS2_20StringStorageDefaultIcEEEEEENS_11__wrap_iterIPS6_EESB_EEvT0_SC_T1_SD_PNS_15iterator_traitsISC_E10value_typeET_
Yic:__Z41Register_UnityEngine_Camera_get_eventMaskv
SP:__ZL19CleanupModule_Audiov
kEi:_IntervalCollection_CopyTo_m2976848759
Obd:_CanvasUpdateRegistry_ObjectValidForUpdate_m2723813849
sDa:__ZN18GlslGpuProgramGLES25LoadFromBinaryShaderCacheERjRKN4core12basic_stringIcNS1_20StringStorageDefaultIcEEEER17ShaderChannelMaskPKc
ZPg:_List_1_RemoveAt_m1433290785_gshared
Vtb:__Z29Transfer_Blittable_ArrayFieldI14SafeBinaryReadiEvRT_R9ArrayInfoRK23StaticTransferFieldInfo
vgj:__ZN6il2cpp6icalls8mscorlib6System8MonoType8GetFieldEP20Il2CppReflectionTypeP12Il2CppStringi
Ubj:__ZN15dense_hashtableINSt3__24pairIK10KeyWrapperIN6il2cpp5utils13dynamic_arrayIPK10Il2CppTypeLj4EEEEPFvvEEESA_NS3_8metadata19Il2CppSignatureHashEN14dense_hash_mapISA_SD_SG_NSA_14EqualsComparerINSF_22Il2CppSignatureCompareEEENS0_9allocatorISE_EEE9SelectKeyESK_SM_E5clearEv
Okf:_SHA256Managed_ProcessBlock_m2297835517
i2j:_emscripten_glVertexAttrib3fv__wrapper
ycg:_CSSMeasureFunc_Invoke_m3910201085
Yri:__ZL75InputField_t3762917431_CustomAttributesCacheGenerator_m_CharacterValidationP21CustomAttributesCache
kMh:_ReadOnlyCollection_1_System_Collections_ICollection_CopyTo_m511916545_gshared
ivf:_Array_InternalArray__ICollection_Remove_TisOrderBlock_t1585977831_m1449044465_gshared
V1j:_emscripten_glGetIntegerv__wrapper
SBe:_AssemblyName__ctor_m1753467291
UUd:_Slider_set_minValue_m3431883418
Zfc:__ZN8Material10GetTextureEN9ShaderLab16FastPropertyNameE
zhe:_Enumerator_System_Collections_IEnumerator_get_Current_m1657817602_gshared
Abb:__ZN18StreamedBinaryReadILb0EE21TransferSTLStyleArrayI13dynamic_arrayI10Matrix4x4fLj16EEEEvRT_17TransferMetaFlags
f6b:__ZNK28MonoBehaviourPropertyBinding13GetFloatValueERKN11UnityEngine9Animation10BoundCurveE
Tce:_KeyCollection_System_Collections_ICollection_get_SyncRoot_m2999306921_gshared
zNj:_GC_generic_malloc
oLe:_WebHeaderCollection_get_Keys_m910440889
TGa:__Z19GetVertexFormatSize12VertexFormat
Fp:__ZN14SafeBinaryRead21TransferSTLStyleArrayI13dynamic_arrayIiLj4EEEEvRT_17TransferMetaFlags
Xrg:_Vector4__cctor_m2519631228
g0b:__ZNK18ScreenManagerWebGL13GetShowCursorEv
R0e:_ArrayListWrapper_Clear_m2625302714
e6j:_emscripten_glIsTexture__wrapper
poe:_CipherSuiteCollection_System_Collections_IEnumerable_GetEnumerator_m3240848888
wXj:_llvm_bswap_i32
eOh:_Comparison_1_BeginInvoke_m3417636795_gshared
sqa:__ZN9GfxDevice25ReleaseAsyncCommandHeaderEPN21GfxDeviceAsyncCommand3ArgE
ace:_Enumerator_get_Current_m1327963819_AdjustorThunk
FCi:_X509Crl_Parse_m3164013387
bxb:__ZL22Transfer_ManagedObjectI24GenerateTypeTreeTransferLb0EEvRK29SerializationCommandArgumentsR31RuntimeSerializationCommandInfo
ZFb:__ZN13MonoBehaviour23VirtualRedirectTransferER17RemapPPtrTransfer
GGa:__ZN21UniformBufferTFMethod20IsBoneCountSupportedEi
Xbg:_Color_get_black_m719512684
qid:_HorizontalLayoutGroup_CalculateLayoutInputHorizontal_m750541069
iHj:__ZN6il2cpp6icalls8mscorlib6System11Environment11get_NewLineEv
PPf:_Enum_System_IConvertible_ToDecimal_m3435237785
zqd:_ResourceReader_CreateResourceInfo_m1818330740
Ipe:_ClientSessionInfo_Dispose_m3253728296
n0a:__ZN6Shader27MarkShaderStateNotSupportedEPKS_
djg:_Object_Internal_CloneSingle_m1021157572
hGa:__ZN25TransformFeedbackSkinning8SkinMeshERK18VertexStreamSourceP9GfxBufferP17GPUSkinPoseBufferS4_ii17ShaderChannelMaskb
Nzj:__ZN15dense_hashtableINSt3__24pairIK10KeyWrapperIP14Il2CppIUnknownEjEES5_N6il2cpp5utils11PointerHashIS3_EEN14dense_hash_mapIS5_jSB_NS5_14EqualsComparerINS0_8equal_toIS4_EEEENS0_9allocatorIS7_EEE9SelectKeyESG_SI_E12resize_deltaEjj
jqd:_ResolveEventArgs__ctor_m1455935166
jZf:_Type_Equals_m1673304139
Due:_SynchronizedReader_Read_m1388613247
uzb:__Z22TransferField_NonArrayI19StreamedBinaryWriteILb0EE27Converter_SimpleNativeClassI8GUIStyleEEvRK23StaticTransferFieldInfoR31RuntimeSerializationCommandInfoRT0_
MRd:_Scrollbar_OnPointerDown_m3213715319
pzc:__ZN8JSONRead8TransferIN4math12int3_storageEEEvRT_PKc17TransferMetaFlagsb
KNb:__ZN27IntermediateRendererManager29ClearAllIntermediateRenderersEv
f9c:_StandaloneInputModule__ctor_m2419721820
C8d:_Comparer_1_System_Collections_IComparer_Compare_m2018996185_gshared
$p:__Z17CalculateGlobalSM23TransformAccessReadOnlyRKN4math7_float4E
R2e:_CollectionBase_System_Collections_IList_Contains_m2994901969
bm:_emscripten_glLoadIdentity
C0b:__ZNSt3__26vectorINS_4pairIN4core12basic_stringIcNS2_20StringStorageDefaultIcEEEEPK17MessageIdentifierEENS_9allocatorISA_EEE26__swap_out_circular_bufferERNS_14__split_bufferISA_RSC_EEPSA_
sHf:_Convert_ToInt16_m2896657713
Hej:_NativeMethodAttribute_set_HasExplicitThis_m2961870915
tjg:_Vector3_get_zero_m1409827619
IXb:__Z29CullShadowCastersWithoutUmbraR9IndexListRK17CullingParametersPK4AABBjj
Iw:__ZN22AnimationMixerPlayable27ProcessRootMotionEmptyMixerEP35AnimationPlayableEvaluationConstantP32AnimationPlayableEvaluationInputP33AnimationPlayableEvaluationOutput
Bp:__ZN4AABB8TransferI14SafeBinaryReadEEvRT_
Xtf:_Array_InternalArray__ICollection_Contains_TisX509ChainStatus_t133602714_m795171973_gshared
yyj:__ZN6il2cpp2vm8Liveness8FromRootEP12Il2CppObjectPv
zcb:__ZN12MeshRenderer23VirtualRedirectTransferER19StreamedBinaryWriteILb0EE
T5a:__ZN18StreamedBinaryReadILb0EE21TransferSTLStyleArrayI13dynamic_arrayI12LightmapDataLj4EEEEvRT_17TransferMetaFlags
COa:__ZNK17ArchiveFileSystem9EnumerateEPKcP19dynamic_block_arrayI13FileEntryInfoLj32EEbPPv19FileEnumerationFlag
y2b:__Z11MD5ToStringPh
Hhj:__ZN23InterfaceActionInvoker4IixxbE6InvokeEjP11Il2CppClassP12Il2CppObjectixxb
Zkc:__Z38Input_Get_Custom_PropCompositionStringv
bWd:_Text_get_alignment_m1496827807
T8f:_ContentInfo_get_ASN1_m1776225219
PS:__ZN9JSONWrite8TransferIN4core12basic_stringIcNS1_20StringStorageDefaultIcEEEEEEvRT_PKc17TransferMetaFlags
CIf:_Convert_ToSingle_m2533452644
iWj:__ZNSt3__212basic_stringIcNS_11char_traitsIcEENS_9allocatorIcEEE6resizeEjc
Sfb:__ZN14PlayerSettings16CheckConsistencyEv
BO:__ZN11AudioModule30GetOrCreateDSPFromCustomFilterEP17AudioCustomFilter
yUa:__ZN19AtomicPageAllocatorD2Ev
m6c:_EventTrigger_OnPointerEnter_m986348926
_yj:__ZN6il2cpp6icalls8mscorlib6System13GlobalizationL20culture_lcid_locatorEPKvS5_
umf:_X509Certificate__ctor_m1413707489
R2a:__ZNK12CubemapArray16ExtractImageImplEP14ImageReferenceNS0_8BlitModeEbi
Clc:__Z63Register_UnityEngine_MonoBehaviour_StartCoroutine_Auto_Internalv
u$j:_glTexStorage3D__wrapper
cgb:__ZN10VRSettings8TransferI14SafeBinaryReadEEvRT_
LZf:_Type_IsMarshalByRefImpl_m914778231
iCc:_UNITY_FT_Outline_Get_CBox
G3e:_Hashtable__ctor_m2302711321
ja:invoke_viifiiii
x_e:_Byte_TryParse_m1467448483
sZj:dynCall_viiiiiif
m3c:__ZN20UnityWebRequestProtoI24UnityWebRequestTransport16AtomicRefCounter14RedirectHelper14ResponseHelper15DownloadHandler13UploadHandler12HeaderHelper14AsyncOperationE8FinalizeEv
Xog:_Texture2D_get_whiteTexture_m2176011403
W3:__ZN22PerThreadPageAllocator14AcquireNewPageEj
vOh:_Func_2_Invoke_m3516477887_gshared
Tgi:__ZL65SelectionBaseAttribute_t3493465804_CustomAttributesCacheGeneratorP21CustomAttributesCache
Trf:_String_ToString_m3872792296
hwb:__Z18Transfer_BlittableI24GenerateTypeTreeTransferLb1E9BoundsIntEvRK29SerializationCommandArgumentsR31RuntimeSerializationCommandInfo
U4e:_FileStream_GetSecureFileName_m449783930
NTb:__ZN6Camera13ClearNoSkyboxEb
vve:_UnexceptionalStreamWriter_Flush_m82278468
f2d:_InternalEnumerator_1_get_Current_m3911557813_gshared
hbj:__ZNK15dense_hashtableI10KeyWrapperIPK17Il2CppGenericInstES4_N6il2cpp8metadata21Il2CppGenericInstHashEN14dense_hash_setIS4_S7_NS4_14EqualsComparerINS6_24Il2CppGenericInstCompareEEENSt3__29allocatorIS4_EEE8IdentityESB_SE_E12test_deletedEj
RSa:__ZN19StreamedBinaryWriteILb0EE21TransferSTLStyleArrayI13dynamic_arrayI17SortingLayerEntryLj4EEEEvRT_17TransferMetaFlags
X4c:_BaseInput_get_touchCount_m1263753282
Bda:__ZNSt3__27__sort5IR17CompareInstanceIDPP6ObjectEEjT0_S6_S6_S6_S6_T_
xyd:_RemotingSurrogate_SetObjectData_m2713731796
$Qf:_DecoderReplacementFallbackBuffer_Reset_m3943028589
IEa:__ZN18GfxFramebufferGLES10InvalidateEv
vEg:_Enumerator_System_Collections_IEnumerator_get_Current_m282279808_AdjustorThunk
HMd:_LayoutRebuilder_MarkLayoutRootForRebuild_m1241498911
jVf:_CompressedStack_CreateCopy_m2591279216
Zjf:_RSAPKCS1KeyExchangeFormatter_CreateKeyExchange_m1611814432
H9:__ZN10MemoryPoolD2Ev
Fqc:__ZNSt3__26__treeINS_12__value_typeIN4core12basic_stringIcNS2_20StringStorageDefaultIcEEEEN5IMGUI12NamedControlEEENS_19__map_value_compareIS6_S9_NS_4lessIS6_EELb1EEENS_9allocatorIS9_EEE7destroyEPNS_11__tree_nodeIS9_PvEE
RLe:_AsnEncodedData_KeyUsageExtension_m1792651780
CEj:__ZN6il2cpp2os5posix15PosixWaitObjectD2Ev
vPb:__ZNK25CameraStackRenderingState28GetDstTextureForImageFiltersEv
TUj:___mmap
lcc:__ZN9Scripting26RaiseArgumentNullExceptionEPKc
F6j:b120
wX:__ZL18InternalLogConsolePKcz
OTj:_lseek
L$d:_InternalEnumerator_1_get_Current_m685192625_gshared
pve:_UnexceptionalStreamReader_Read_m16956299
Iqd:_ResourceReader_ReadValueVer1_m183253382
Q$:__Z37scripting_method_get_nth_argumenttype18ScriptingMethodPtri
cN:__ZN11AudioSource16UpdatePauseStateEv
jda:__ZL52StaticUnregisterSceneLoadedCallback_LightmapSettingsPv
mbg:_Camera_get_main_m3643453163
zRj:__ZN6il2cpp5utils25NativeDelegateMethodCache17AddNativeDelegateEPFvvEPK10MethodInfo
gOd:_LayoutRebuilder_U3CRebuildU3Em__5_m1288787547
YSb:__ZN27DeviceViewProjMatricesStateD2Ev
dog:_SendMouseEvents__cctor_m2378365934
WGh:_ReadOnlyCollection_1_System_Collections_IList_set_Item_m3582274843_gshared
hhg:_Mathf_Pow_m856735666
Sfa:__ZL39CreateRegisteredMessageIdentifiersArrayPv
Uvb:__Z18Transfer_BlittableI24GenerateTypeTreeTransferLb0E8Vector3fEvRK29SerializationCommandArgumentsR31RuntimeSerializationCommandInfo
W2f:_SimpleCollator_FilterExtender_m72900315
jNc:__ZNK13TextRendering4Font22GetTypeVirtualInternalEv
G8f:_SymmetricTransform_CheckInput_m1829858759
Chb:__ZN19StreamedBinaryWriteILb0EE21TransferSTLStyleArrayINSt3__26vectorIN15ResourceManager10DependencyE13stl_allocatorIS5_L18MemLabelIdentifier52ELi16EEEEEEvRT_17TransferMetaFlags
mTd:_ScrollRect_EnsureLayoutHasRebuilt_m3415112783
Pxe:_Binder_FindMostDerivedMatch_m239579024
OZd:_InternalEnumerator_1_get_Current_m476140818_AdjustorThunk
UKa:__ZN11SpriteAtlas8TransferI24GenerateTypeTreeTransferEEvRT_
ESi:_GUIUtility_EndContainerGUIFromException_m530164245
SXc:__ZN21UnityAnalyticsManagerD0Ev
C3i:_RectTransformUtility_INTERNAL_CALL_RectangleContainsScreenPoint_m1214874141
Cya:__ZN6prcoreL10inner_flipILj2EEEvPhS1_j
s9a:__ZNK14Texture2DArray16ExtractImageImplEP14ImageReferenceNS0_8BlitModeEbi
xPd:_MultipleDisplayUtilities_GetMousePositionRelativeToMainDisplayResolution_m2523088370
Evc:__ZN9JSONWrite8TransferIbEEvRT_PKc17TransferMetaFlags
ELa:__ZN12TLSAllocatorI14StackAllocatorED0Ev
Qeb:__ZN11TimeManager16CheckConsistencyEv
tQb:__ZN21GfxDeviceAsyncCommand10ArgScratch15ThreadedCleanupEv
Zbc:__Z14DoubleToStringd
Bsf:_StringComparer_GetHashCode_m2080455020
tvb:__ZN12NativeBufferI27Converter_UnityEngineObjectE15SetupForWritingER9ArrayInfo
dNg:_List_1_CheckCollection_m2118769249_gshared
ue:_glTexImage3D
bed:_DefaultControls_SetDefaultColorTransitionValues_m2033775311
_4e:_Path_IsPathRooted_m3515805419
Wnh:_Array_InternalArray__set_Item_TisChar_t3634460470_m741842250_gshared
mzi:_TlsServerSettings_set_RsaParameters_m853026166
I0a:__ZNSt3__26vectorINS_4pairI11ShaderTagIDS2_EENS_9allocatorIS3_EEE6insertENS_11__wrap_iterIPKS3_EERS8_
ZKf:_DateTime_AddMilliseconds_m3713972790_AdjustorThunk
oDi:_RC2_Create_m2052783340
caf:_Guid__ctor_m3421080095_AdjustorThunk
De:_JS_SystemInfo_GetCurrentCanvasWidth
rIj:__ZN6il2cpp8metadataL22FormatGenericArgumentsEPK17Il2CppGenericInst
$gc:__ZL34GetComponentsImplementationRecurseILb1ELi0ELi1EEbR10GameObjectbRK17CompareParametersRK39GetComponentsImplementation_ReturnValue
qPf:_Double_Equals_m1674752021
DKd:_InputField_OnDisable_m1824300767
a2f:_CodePointIndexer_ToIndex_m1008730487
Cdf:_Int64_System_IConvertible_ToUInt64_m2815650160_AdjustorThunk
Agb:__ZN10VRSettings8TransferI18StreamedBinaryReadILb0EEEEvRT_
u9d:_Enumerator_get_CurrentKey_m2230405065_gshared
Uve:_Math_Abs_m3912393749
ire:_TlsClientFinished_ProcessAsSsl3_m3094597606
syc:__ZN8JSONRead21TransferSTLStyleArrayI13dynamic_arrayIdLj8EEEEvRT_17TransferMetaFlags
nbg:_Camera_get_allCamerasCount_m528453758
Ufj:__ZN6il2cpp2vm10ThreadPool5QueueEP14Il2CppDelegatePPvS3_P12Il2CppObject
Azb:__Z19TransferField_ArrayI19StreamedBinaryWriteILb0EE27Converter_SimpleNativeClassI8GradientEEvRK23StaticTransferFieldInfoR31RuntimeSerializationCommandInfoRT0_
lKe:_IPv6Address__ctor_m2700673633
Cxc:__Z18Transfer_BlittableI8JSONReadLb0E12PropertyNameEvRK29SerializationCommandArgumentsR31RuntimeSerializationCommandInfo
n3j:_glGetUniformBlockIndex__wrapper
fXe:_Array_CreateInstance_m2696293787
BTf:_UnicodeEncoding__ctor_m1074918879
p8a:__ZN7SubMesh8TransferI18StreamedBinaryReadILb0EEEEvRT_
yHe:_OpCode_Equals_m1376200488_AdjustorThunk
Qcd:_ColorBlock_op_Inequality_m2718216889
gHf:_Convert_ToInt16_m2763665794
hf:_emscripten_glIsEnabled
CBb:__ZN18StreamedBinaryReadILb1EE21TransferSTLStyleArrayI13dynamic_arrayIdLj8EEEEvRT_17TransferMetaFlags
Wjc:__Z45Register_UnityEngine_GameObject_get_transformv
mEe:_DerivedType_GetConstructors_m483065502
i_:__Z29scripting_class_instance_size17ScriptingClassPtr
Zyc:__Z29Transfer_Blittable_ArrayFieldI8JSONRead5RectTIiEEvRT_R9ArrayInfoRK23StaticTransferFieldInfo
Vlh:__Z68RuntimeInvoker_Boolean_t97287965_SByte_t1669577662_SByte_t1669577662PFvvEPK10MethodInfoPvPS4_
Qbh:__Z165RuntimeInvoker_Void_t1185182177_RuntimeObject_Int32_t2950945753_Int32_t2950945753_RuntimeObject_Int32_t2950945753_Single_t1397266774_Single_t1397266774_RuntimeObjectPFvvEPK10MethodInfoPvPS4_
xc:invoke_iiiiiiiii
rV:__ZN11UnityEngine15CloudWebService19SessionEventManager26ProcessEventQueueJobStaticEPv
dhg:_Mathf_Min_m1073399594
Lde:_KeyCollection__ctor_m4231035512_gshared
Rdb:__ZL19SpriteMeshExtractorPv17ShaderChannelMaskiR11MeshBuffersR16DrawBuffersRangeRiS5_
bHc:_otv_Coverage_get_last
LV:__ZN11UnityEngine15CloudWebService19SessionEventManager37OnTimerExpiredPerformArchiveJobStaticEPv
wuc:__Z18Transfer_BlittableI9JSONWriteLb1E9BoundsIntEvRK29SerializationCommandArgumentsR31RuntimeSerializationCommandInfo
F2f:_MSCompatUnicodeTable_FillCJKCore_m2347268515
LIi:_Group_GetWidth_m3299755715
yGf:_Decimal_op_Implicit_m1920400487
lZa:__ZN10builtintex15GetWhiteTextureEv
nyd:_MonoMethodMessage_get_TypeName_m3758247133
o4e:_Enumerator_get_Entry_m2184304359
kIf:_Convert_ToSByte_m2653811524
ESj:__ZN6il2cpp6icalls8mscorlib6System10Reflection4Emit11DerivedType21create_unmanaged_typeEP20Il2CppReflectionType
Oid:_Image_set_fillCenter_m3776786491
Cfa:__Z29GetOcclusionPortalManagerListv
Hmc:__Z39Register_UnityEngine_Sprite_get_texturev
L4i:__ZL10rescale128PyS_Piiiii
dH:__ZN9AudioClip7WWWSeekEPvjS0_
KUh:__ZL63FixedBufferAttribute_t3759792648_CustomAttributesCacheGeneratorP21CustomAttributesCache
Y8:__ZL32StaticInitializeIUnityInterfacesPv
YPb:__Z13CameraProjectRK8Vector3fRK10Matrix4x4fS4_RK5RectTIiERS_b
vib:__ZN30RuntimeInitializeOnLoadManager15ClassMethodInfo8TransferI19StreamedBinaryWriteILb0EEEEvRT_
rca:__Z22CreateMutexLockedStackv
gLb:__ZNSt3__27__sort5IRNS_4lessIN22BuiltinResourceManager8ResourceEEEPS3_EEjT0_S7_S7_S7_S7_T_
u9b:__ZZL31RegisterOtherRendererPropertiesR22GenericPropertyBindingEN30Wrapper_RendererReceiveShadows13SetFloatValueEPvf
$qi:__ZL57FontData_t746620069_CustomAttributesCacheGenerator_m_FontP21CustomAttributesCache
Hma:__ZN9ShaderLab11ShaderStateD2Ev
OKc:_Ins_DELTAP
jHb:__Z23TransferScriptingObjectI24GenerateTypeTreeTransferEvRT_18ScriptingObjectPtr17ScriptingClassPtrPK15MonoScriptCache
SFi:_PatternLinkStack_GetOffset_m3697714525
C8i:_AnalyticsEvent__cctor_m3994162614
Fpc:__ZN12GUIClipState5ApplyER10InputEvent
$Se:_X509Certificate_GetUnsignedBigInteger_m1025066663
gzb:__ZL17Transfer_GUIStyleI19StreamedBinaryWriteILb0EELb0EEvRK29SerializationCommandArgumentsR31RuntimeSerializationCommandInfo
RTb:__ZN10TextureRef4InitEP7Textureb
Wff:_MonoIO_GetFileType_m101289143
cya:__Z19ScheduleJobInternalR8JobFencePFvPvES1_11JobPriority
TIe:_KeysCollection_get_Count_m3943311735
F_d:_InternalEnumerator_1_get_Current_m2832154098_gshared
wej:__ZNSt3__211__tree_nextIPNS_16__tree_node_baseIPvEEEET_S5_
HBj:__ZN15dense_hashtableI10KeyWrapperIP18Il2CppGenericClassES3_N6il2cpp8metadata22Il2CppGenericClassHashEN14dense_hash_setIS3_S6_NS3_14EqualsComparerINS5_25Il2CppGenericClassCompareEEENSt3__29allocatorIS3_EEE8IdentityESA_SD_E14squash_deletedEv
sEj:__ZN6il2cpp2vm11MethodStack17GetStackFramesRawEv
bBa:__ZN6prcoreL17RemapGenericFloatI17TexFormatRGBAHalf17TexFormatRGBFloatEEvPKNS_9InnerInfoE
PZg:__Z52RuntimeInvoker_Double_t594665363_Decimal_t2948259380PFvvEPK10MethodInfoPvPS4_
l3d:_InternalEnumerator_1_get_Current_m784835552_gshared
Zoc:__Z35Sprite_Get_Custom_PropPixelsPerUnitP12Il2CppObject
kbj:__ZNSt3__26__sortIRN6il2cpp5utils11collections13ArrayValueMapIPK10Il2CppType17Il2CppInteropData26InteropDataToTypeConverterNS1_8metadata14Il2CppTypeLessENSA_26Il2CppTypeEqualityComparerEE12SortComparerEPS8_EEvT0_SH_T_
nkb:__ZN11PreloadDataD2Ev
E2c:__ZN15DownloadHandler14ProcessHeadersERK9HeaderMap
BNc:__ZNSt3__26vectorINS_4pairIifEE13stl_allocatorIS2_L18MemLabelIdentifier35ELi16EEE6assignINS_11__wrap_iterIPS2_EEEENS_9enable_ifIXaasr21__is_forward_iteratorIT_EE5valuesr16is_constructibleIS2_NS_15iterator_traitsISC_E9referenceEEE5valueEvE4typeESC_SC_
$b:invoke_iifi
V_e:_Char_System_IConvertible_ToInt16_m975497224_AdjustorThunk
_Nf:_Delegate_CreateDelegate_m995503480
C4j:_emscripten_glGetObjectParameterivARB__wrapper
_hj:__ZNK6il2cpp5utils10StringViewIcE5RFindEc
yEe:_DerivedType_get_Module_m3032466746
NXa:__ZN15SharedLightData15UpdateTransformERK9Transform
asi:__ZL71InputField_t3762917431_CustomAttributesCacheGenerator_m_OnValidateInputP21CustomAttributesCache
kga:__ZN18AssetBundleManagerD2Ev
JZi:__ZL25UnresolvedVirtualCall_158P12Il2CppObjectffPK10MethodInfo
Hkc:__Z44Register_UnityEngine_RectOffset_get_verticalv
cRj:__ZN6il2cpp2vm9LastError31InitializeLastErrorThreadStaticEv
ZOd:_MaskableGraphic_set_maskable_m243551751
$te:_StreamWriter_Dispose_m2818839127
TIg:_List_1_System_Collections_IList_Remove_m2702745770_gshared
kh:_JS_SystemInfo_GetCurrentCanvasHeight
CXd:_ArrayReadOnlyList_1_IndexOf_m1911574180_gshared
IOd:_Mask_OnEnable_m2186824439
hJd:_InputField_SetCaretVisible_m2216480850
wPe:_X509EnhancedKeyUsageExtension_CopyFrom_m3750050754
y0a:__ZNK8Material22GetTypeVirtualInternalEv
Orc:__Z34GUIStyle_Get_Custom_PropFixedWidthP12Il2CppObject
XIh:_ReadOnlyCollection_1_System_Collections_IList_Clear_m1076810235_gshared
rHg:_Enumerator_System_Collections_IEnumerator_get_Current_m3405349194_AdjustorThunk
ZGj:__ZN6il2cpp2gc16GarbageCollector11GetWeakLinkEPPv
dFj:__GLOBAL__sub_I_Console_cpp
TAa:__ZN6prcoreL17RemapGenericFloatI14TexFormatRHalf17TexFormatRGBAHalfEEvPKNS_9InnerInfoE
Fie:_BigInteger_GetBytes_m1259701831
oij:__ZN6il2cpp2vm7Runtime11InvokeArrayEPK10MethodInfoPvP11Il2CppArrayPP15Il2CppException
ksf:_String_memcpy_m2826223007
HDi:_RijndaelManaged_CreateDecryptor_m1421727258
_F:__ZN9AudioClip23VirtualRedirectTransferER14SafeBinaryRead
jHg:_Enumerator_MoveNext_m2407049913_gshared
jTf:_StringBuilder_Replace_m1682610486
YDa:__ZN4gles20EnsureTextureCreatedEP7ApiGLESP17RenderSurfaceGLES
IQb:__ZN15ReplacementPass13PrepareSubsetEjRK10RenderNodeifRK17ShaderReplaceData
HL:__Z32AudioMeasurement_GetTimeConstantff
hYh:__ZL58UnmanagedMarshal_t984015687_CustomAttributesCacheGeneratorP21CustomAttributesCache
mob:__ZNK20LocalFileSystemPosix9EnumerateEPKcP19dynamic_block_arrayI13FileEntryInfoLj32EEbPPv19FileEnumerationFlag
Fmd:_MethodInfo_MakeGenericMethod_m1996785325
j5c:_BaseInputModule_DetermineMoveDirection_m770437496
Yud:_Context_get_HasGlobalDynamicSinks_m3672814609
FEi:_Match__ctor_m2464595873
kYb:__ZL27PrepareSceneNodesJobCombineP25ScheduleSceneNodesJobData
iCi:_X509CertificateEnumerator_Reset_m1825523691
jsb:__Z22TransferField_NonArrayI14SafeBinaryRead27Converter_SimpleNativeClassI8GUIStyleEEvRK23StaticTransferFieldInfoR31RuntimeSerializationCommandInfoRT0_
fpj:__ZN14dense_hash_mapI10KeyWrapperIPK10Il2CppTypeEjN6il2cpp8metadata14Il2CppTypeHashENS4_14EqualsComparerINS6_26Il2CppTypeEqualityComparerEEENSt3__29allocatorINSB_4pairIKS4_jEEEEEC2EjRKS7_RKSA_
Koa:__ZN13GfxDeviceGLESD2Ev
Vha:__ZNSt3__26vectorIN9ShaderLab26SerializedShaderDependencyENS_9allocatorIS2_EEE6resizeEj
Rsh:_Activator_CreateInstance_TisRuntimeObject_m729575857_gshared
Sda:__ZN18AsyncUploadManager13StaticDestroyEPv
oha:__ZN6Shader7SetNameEPKc
I$b:__ZN19CustomRenderTexture22HandleBoundaryWrappingERKNS_14UpdateZoneInfoEj
zK:__ZL50UnityAudioEffect_InternalSetFloatParameterCallbackP14FMOD_DSP_STATEif
E1i:_TextGenerationSettings_CompareColors_m3051734236
sej:__ZN6il2cpp2vm13MetadataCache32GenerateCustomAttributeTypeCacheEi
Tpf:_Single_Equals_m438106747
xYj:dynCall_viiffii
VSf:_StringBuilder__ctor_m2989139009
prd:_RuntimeResourceSet__ctor_m2765575100
_qe:_TlsClientCertificate_ProcessAsSsl3_m3265529850
xr:__ZNK11UnityEngine9Animation30GenericBindingValueArrayUniqueclERKNS0_14GenericBindingES4_
Msf:_ASCIIEncoding_GetChars_m2543669481
_4f:_BigInteger_IsProbablePrime_m567194283
vxg:_Dictionary_2_System_Collections_IDictionary_Remove_m3518952519_gshared
Zof:_SecurityFrame_InitFromRuntimeFrame_m1714852458_AdjustorThunk
SGe:_MethodBuilder_GetCustomAttributes_m731278908
YKc:_Direct_Move_Y
WKc:_Direct_Move_X
H4g:__Z51RuntimeInvoker_Single_t1397266774_Double_t594665363PFvvEPK10MethodInfoPvPS4_
Hi:_glClearDepthf
Y7b:__ZN19SkinnedMeshRenderer7GetMeshEv
O6:__ZN19RuntimeSceneManager14GetActiveSceneEv
xXj:_memcpy
hLb:__ZNSt3__218__insertion_sort_3IRNS_4lessIN22BuiltinResourceManager8ResourceEEEPS3_EEvT0_S7_T_
qDd:_MultiArrayFixupRecord_FixupImpl_m1721674130
whj:__ZN6il2cpp6icalls8mscorlib6SystemL8IsStaticEPK9EventInfo
OGc:_otv_LookupList_validate
qkc:__Z29RectOffset_Set_Custom_PropTopP12Il2CppObjecti
oEg:_GenericEqualityComparer_1_Equals_m687841776_gshared
Gnc:__Z57Register_UnityEngine_Transform_INTERNAL_get_localPositionv
yWb:__ZNSt3__27__sort4IR15ReflProbeSorterPP15ReflectionProbeEEjT0_S6_S6_S6_T_
bVa:__ZN16GraphicsSettings10SmartResetEv
UYc:__Z55Register_UnityEngine_Analytics_CustomEventData_AddInt16v
Qgf:_FileStream_Flush_m948103572
s6i:__ZN15dense_hashtableINSt3__24pairIK10KeyWrapperIPK22Il2CppGenericParameterEP11Il2CppClassEES6_N6il2cpp5utils11PointerHashIS4_EEN14dense_hash_mapIS6_S9_SE_NS6_14EqualsComparerINS0_8equal_toIS5_EEEENS0_9allocatorISA_EEE9SelectKeyESJ_SL_E9copy_fromERKSO_j
e6f:_ASN1Convert_ToInt32_m254930636
Lgb:__ZN26PlayerSettingsSplashScreen16CheckConsistencyEv
uYa:__ZN20SphericalHarmonicsL28TransferI19StreamedBinaryWriteILb0EEEEvRT_
O0f:_UInt64_ToString_m1529093114
w6b:__ZNK28RectTransformPropertyBinding9BindValueER6ObjectRKN11UnityEngine9Animation14GenericBindingERNS3_10BoundCurveE
Ygg:_Material_SetInt_m1783799378
EWe:_Array_GetLength_m2178203778
Yfg:_Input_GetMouseButtonDown_m2081676745
ebf:_Int16_System_IConvertible_ToDouble_m1661805412_AdjustorThunk
Zbb:__ZN4Mesh14UploadMeshDataEb
h8b:__ZN14RenderSettings12CleanupClassEv
Emc:__Z43DataUtility_CUSTOM_INTERNAL_CALL_GetPaddingP12Il2CppObjectR8Vector4f
jO:__ZN21AudioScriptingClasses26InvokeOnAudioManagerUpdateEP21ScriptingExceptionPtr
eya:__ZN18AsyncUploadManager15DoDeCruncherJobEP26FileAssetUploadInstruction
Nra:__ZN9GfxDevice15ImmediateNormalEfff
jqg:_Enumerator__ctor_m1351041375
jxb:__ZN13GUIStyleState8TransferI24GenerateTypeTreeTransferEEvRT_
V0:__ZN20dynamic_block_vectorI14FileIdentifierE22push_back_no_constructEv
$2j:_emscripten_glGetActiveAttrib__wrapper
K9a:__ZN9Texture3D23VirtualRedirectTransferER14SafeBinaryRead
Uoh:_Array_InternalArray__set_Item_TisVector2_t2156229523_m2671087464_gshared
Yth:_Array_InternalArray__get_Item_TisVector4_t3319028937_m1117939728_gshared
xja:__ZNSt3__26vectorIN9ShaderLab20SerializedSubProgram16TextureParameterENS_9allocatorIS3_EEE8__appendEj
aCi:_X509CertificateCollection_Contains_m743657353
Szf:_Array_InternalArray__ICollection_Add_TisSlot_t384495010_m3656484468_gshared
M4a:__ZN9Texture2D13UploadTextureEi
GFc:_cff_get_cid_from_glyph_index
JK:__ZN4FMOD6System19setSoftwareChannelsEi
fta:__ZN9GfxDevice19SetSinglePassStereoE16SinglePassStereo
$1j:_emscripten_glGenBuffers__wrapper
vXj:_bitshift64Lshr
XRj:__ZN6il2cpp8metadata19Il2CppSignatureHash4HashERKNS_5utils13dynamic_arrayIPK10Il2CppTypeLj4EEE
L3e:_Hashtable_System_Collections_IEnumerable_GetEnumerator_m2751657639
jxd:_HeaderHandler_Invoke_m3513051789
pui:__ZL77CanvasScaler_t2767979955_CustomAttributesCacheGenerator_m_ReferenceResolutionP21CustomAttributesCache
O_g:__Z144RuntimeInvoker_RuntimeObject_RuntimeObject_Int32_t2950945753_RuntimeObject_RuntimeObject_RuntimeObject_RuntimeObject_RuntimeObject_RuntimeObjectPFvvEPK10MethodInfoPvPS4_
aZf:_Type_get_IsPointer_m4067542339
VVd:_Text_get_supportRichText_m1837499160
plc:__Z60Register_UnityEngine_Input_INTERNAL_set_compositionCursorPosv
sjg:_Vector3_Magnitude_m3447562852
jag:_Component__ctor_m1928064382
YYj:dynCall_viiiii
cZj:dynCall_viiiif
fDf:_SortedList_PutImpl_m3408406199
XMc:_Cubic_To
spe:_Context_get_Protocol_m1078422015
Vic:__Z44Register_UnityEngine_Camera_get_farClipPlanev
Xq:__Z25InverseTransformDirection23TransformAccessReadOnlyRKN4math7_float3Eb
hP:__ZNK12AudioManager15GetDSPBlockSizeEv
_ga:__ZN13RuntimeStaticINSt3__28multimapIj25DeferredSkinningOperationNS0_4lessIjEENS0_9allocatorINS0_4pairIKjS2_EEEEEELb0EE13StaticDestroyEPv
mWi:_ToggleGroup_SetAllTogglesOff_m4184050071
a3a:__ZN13StreamingInfo8TransferI14SafeBinaryReadEEvRT_
tDj:__ZN6il2cpp2gc16GarbageCollector14GetOrCreateCCWEP12Il2CppObjectRK10Il2CppGuid
iBj:__ZN6il2cpp2vm5Image21FromTypeNameParseInfoEPK11Il2CppImageRKNS0_17TypeNameParseInfoEb
Xwe:_MonoCustomAttrs_IsDefined_m2996012389
jua:__ZN17BufferManagerGLES13AcquireBufferEjN14DataBufferGLES11BufferUsageEb
k2i:_TextGenerator_PopulateAlways_m1922695746
PHf:_Decimal__ctor_m3650533794
ePd:_MaskableGraphic_UpdateClipParent_m2605828397
omf:_TripleDESTransform_GetStrongKey_m292426577
hDe:_AssemblyBuilder_get_Location_m384539722
e1c:__ZN16UnityAdsSettingsD0Ev
Gwa:__ZNK7ApiGLES10DebugLabelEN2gl10ObjectTypeEjPKc
Cff:_DirectoryNotFoundException__ctor_m4004339866
fXj:__ZNK10__cxxabiv121__vmi_class_type_info16search_below_dstEPNS_19__dynamic_cast_infoEPKvib
O1i:_TextGenerator__ctor_m1349784994
awa:__ZN19ConstantBuffersGLES13SetCBConstantEiiPKvi
fAh:_Collection_1_System_Collections_IList_set_Item_m876512695_gshared
Fmc:__Z38DataUtility_CUSTOM_Internal_GetMinSizeP12Il2CppObjectP13Vector2fIcall
U5i:_CustomEventData_Add_m2213655663
Bcc:__ZN8PlayableC2E17ScriptingClassPtr18DirectorPlayerType
vrg:_Vector3_Distance_m886789632
vCd:_ObjectReader_ReadObjectGraph_m1689734232
Eig:_MonoBehaviour_StopCoroutine_m907039165
Fhg:_Matrix4x4_MultiplyPoint_m1575665487
qsj:_il2cpp_class_has_attribute
M6f:_DSAManaged_get_KeySize_m2738463749
Aza:__ZN6prcoreL12RemapGenericI15TexFormatRGB88817TexFormatARGB8888EEvPKNS_9InnerInfoE
Trg:_Vector4_op_Subtraction_m1632208160
cv:__ZN7mecanim9animation30ValueFromSkeletonPoseRecursiveERKNS_8skeleton8SkeletonERKNS1_13SkeletonPoseTIN4math4trsXEEEPKNS0_14SkeletonTQSMapEPKiRNS_10ValueArrayEii
s$:__Z27FindOrCreateMonoScriptCache17ScriptingClassPtr22InitScriptingCacheTypeP6Objecti
_Cb:__Z18Transfer_BlittableI18StreamedBinaryReadILb0EELb1E8Vector3fEvRK29SerializationCommandArgumentsR31RuntimeSerializationCommandInfo
hUc:__ZN2UI14CanvasRenderer13SyncVertexPtrER8JobFenceNS0_8SyncFlagE
J7e:_CultureInfo_GetFormat_m732021304
K$:__Z35scripting_method_get_argument_count18ScriptingMethodPtr
CMa:__ZN18AssetBundleManager18SortPreloadObjectsER13dynamic_arrayIiLj4EEb
U3g:__Z46RuntimeInvoker_RuntimeObject_Double_t594665363PFvvEPK10MethodInfoPvPS4_
lI:__ZN12AudioManager29ShutdownReinitializeAndReloadENS_14FMODOutputTypeE
oRf:_EncoderReplacementFallback__ctor_m2980727890
C0e:_ArrayList_Synchronized_m1327684267
dkc:__Z20Gradient_CUSTOM_InitP12Il2CppObject
vmd:_MethodBase_get_IsPublic_m2180846589
osc:__Z48Register_UnityEngine_GUIUtility_Internal_ExitGUIv
Wzg:_DefaultComparer_Equals_m2574572657_gshared
bgf:_FileStream_get_CanWrite_m1199612770
oYb:__ZL21CullDynamicObjectsJobP14CullingJobDataj
Epc:__ZNSt3__26vectorI7GUIClipNS_9allocatorIS1_EEE21__push_back_slow_pathIKS1_EEvRT_
wld:_TypeBuilder_get_IsGenericParameter_m1751799710
t0b:__ZN14ManagerContext17InitializeClassesEv
$La:__ZN19StreamedBinaryWriteILb0EE21TransferSTLStyleArrayINSt3__26vectorI14ConstantStringNS2_9allocatorIS4_EEEEEEvRT_17TransferMetaFlags
qBb:__ZN18StreamedBinaryReadILb1EE21TransferSTLStyleArrayI31ArrayOfManagedObjectsTransfererEEvRT_17TransferMetaFlags
cUd:_Selectable_get_spriteState_m1246443483
_Bh:_Collection_1_System_Collections_ICollection_CopyTo_m787979241_gshared
BLh:_ReadOnlyCollection_1_System_Collections_Generic_ICollectionU3CTU3E_Clear_m1551418550_gshared
Qz:__ZN8Animator24SetupAnimationClipsCacheEv
QYj:dynCall_viiiiiiiiii
xMc:_t1_hints_open
YZc:__ZN11UnityEngine15PlatformWrapper24GetVRTrackedAreaGeometryER13dynamic_arrayI8Vector3fLj4EE
dye:_MonoType_get_AssemblyQualifiedName_m2662925380
bjc:__Z60Register_UnityEngine_Camera_INTERNAL_CALL_WorldToScreenPointv
Gjf:_RSACryptoServiceProvider__ctor_m2288290917
xie:_BigInteger_GenerateRandom_m3872771375
dnh:__Z75RuntimeInvoker_RuntimeObject_Single_t1397266774_RuntimeObject_RuntimeObjectPFvvEPK10MethodInfoPvPS4_
DJ:__ZN4FMOD7Channel11getUserDataEPPv
Xqh:_Array_swap_TisBoolean_t97287965_TisBoolean_t97287965_m1115288271_gshared
MHc:_UNITY_tt_face_load_gasp
k7f:_KeyPairPersistence_ProtectMachine_m1313131097
gWd:_Text_set_fontSize_m3617617524
RPc:_ft_ansi_stream_close
pm:_JS_Sound_SetPitch
gWf:_Thread_FreeLocalSlotValues_m1195763560
Pof:_String_IndexOf_m1977622757
etj:_il2cpp_runtime_invoke_convert_args
Y9c:_TouchInputModule_Process_m3715678669
V$g:__Z114RuntimeInvoker_Int32_t2950945753_RuntimeObject_Int32_t2950945753_Int32_t2950945753_RuntimeObject_Int32_t2950945753PFvvEPK10MethodInfoPvPS4_
X$e:_ArrayList__cctor_m3052737821
Qxj:__ZN6il2cpp6icalls8mscorlib6System2IO6MonoIO11GetFileStatEP12Il2CppStringPNS3_8FileStatEPi
Asa:__ZN9GfxDevice33InsertCustomMarkerCallbackAndDataEPFviPvEiS0_j
J1c:__ZN11UnityEngine15PlatformWrapper16GenerateRandomIdEv
KQb:__ZNK9ShaderLab9IntShader6GetTagE11ShaderTagIDb
o2e:_BitArray_Set_m2486900776
aVc:__ZN2UI14CanvasRenderer11SetMaterialEP8Materiali
oqf:_String__ctor_m229724522
uYh:__ZL54AssemblyName_t270931938_CustomAttributesCacheGeneratorP21CustomAttributesCache
N_a:__ZNK13RenderTexture37IsBoundMultisampledOnSecondaryTextureEv
ALj:_GC_freehblk
_yi:_X509ExtensionCollection__ctor_m551870633
M6b:__ZZL31RegisterRectTransformPropertiesR22GenericPropertyBindingEN32Wrapper_RectTransformAnchorMinx013GetFloatValueEPv
ZGe:_MethodBuilder_MakeGenericMethod_m2175748754
bGi:_QuickSearch_Search_m3063517397
Pae:_Enumerator_Reset_m2443320674_gshared
ILc:_ft_var_get_value_pointer
hhc:__ZN9Scripting35DestroyObjectFromScriptingImmediateEP6Objectb
qYe:_AsyncCallback_Invoke_m3156993048
dZb:__ZNK6Camera48AreVRStereoViewMatricesWithinSingleCullToleranceEv
wx:__ZN7mecanim5human25HumanPoseAddAdditiveLayerERNS0_9HumanPoseERKS1_fRKNS_6bitsetILj83EEE
F3j:_glGetRenderbufferParameteriv__wrapper
N8f:_SymmetricTransform_FinalDecrypt_m1677319445
Hcf:_Int32_Equals_m3996243976_AdjustorThunk
cla:__ZN24GenerateTypeTreeTransfer8TransferINSt3__26vectorIN9ShaderLab20SerializedSubProgram12UAVParameterENS1_9allocatorIS5_EEEEEEvRT_PKc17TransferMetaFlags
tc:invoke_iiiiiiiiiiiiiii
BFj:__ZN6il2cpp2os6Thread33UnregisterCurrentThreadForCleanupEv
g6j:_emscripten_glIsRenderbuffer__wrapper
aHc:_otv_Coverage_get_first
CSc:__ZN2UI11CanvasGroup8TransferI19StreamedBinaryWriteILb0EEEEvRT_
yff:_DirectoryInfo__ctor_m1000259829
iWa:__ZNK20IntermediateRenderer8GetLayerEv
Z6j:b132
t6e:_CultureInfo_ConstructInvariant_m3774343375
r6a:__ZN15QualitySettings8TransferI14SafeBinaryReadEEvRT_
qXe:_Array_ClearInternal_m532048538
SFf:_DateTime__ctor_m12900168
HOi:_IndexedSet_1_Insert_m1432638049_gshared
pTd:_ScrollRect_CalculateOffset_m927043599
Tsh:_Array_FindLast_TisRuntimeObject_m1088586648_gshared
OOd:_Mask_GetModifiedMaterial_m2692272647
Icg:_CullingGroup_t2096318768_marshal_pinvoke_back
tBj:__ZNSt3__26vectorIN6il2cpp2vm5Image20EmbeddedResourceDataENS_9allocatorIS4_EEE21__push_back_slow_pathIS4_EEvOT_
k8:__GLOBAL__sub_I_runtime_utilities_0_cpp
F4b:__ZN18BackgroundJobQueue29ScheduleMainThreadJobInternalEPFvPvES0_
BSi:_GUIUtility_EndGUIFromException_m3524906492
RZ:__ZN14SerializedFile10ReadObjectEx18ObjectCreationModebPPK8TypeTreePbR6Object
hIi:_Expression_GetFixedWidth_m945658
PSg:_List_1_RemoveAll_m818254423_gshared
OIi:_Literal_Compile_m2228022079
kLb:__ZN14dynamic_bitset6resizeEjb
SLc:_tt_property_get
Btf:_Array_InternalArray__ICollection_Contains_TisSlot_t3975888750_m58971838_gshared
kT:__ZN11UnityEngine15CloudWebService10RestClientINS0_23WebRequestRestHeaderMapEE7SetDataEPKhj
AB:__ZN7mecanim8skeleton16SkeletonPoseCopyIN4math4trsXES3_EEvPKNS0_13SkeletonPoseTIT_EEPNS4_IT0_EE
W8i:__ZN14dense_hash_mapI10KeyWrapperIPK11Il2CppClassEPKcN6il2cpp5utils11PointerHashIS1_EENS4_14EqualsComparerINSt3__28equal_toIS3_EEEENSC_9allocatorINSC_4pairIKS4_S6_EEEEE15set_deleted_keyERSI_
dpa:__ZN9GfxDevice34SetStencilRefWhenStencilWasSkippedEi
mNe:_X509Certificate2_Reset_m3988214799
g$c:__ZN11UnityEngine7Connect13ConnectConfig20RestoreTimeoutConfigERK13dynamic_arrayIiLj4EEjRS3_
sc:invoke_fi
NPj:__ZN6il2cpp6icalls8mscorlib6System10Reflection4Emit11TypeBuilder20create_runtime_classEP27Il2CppReflectionTypeBuilderS7_
Vpg:_Transform_set_localScale_m3053443106
s7f:_KeyPairPersistence_Save_m3111435398
vX:__ZL21InternalAssertConsolePKcz
qc:invoke_ff
e8f:_RSAManaged_add_KeyGenerated_m3688329863
sbe:_Enumerator_get_CurrentKey_m3735262888_gshared
HHd:_HashAlgorithm_TransformFinalBlock_m3005451348
Faf:_Guid_NewGuid_m923091018
Dd:_emscripten_glVertexAttrib3f
mmj:__ZN30dense_hashtable_const_iteratorINSt3__24pairIK10KeyWrapperINS1_IPK11Il2CppImageP11Il2CppClassEEEjEES9_17ReflectionMapHashIS8_EN14dense_hash_mapIS9_jSD_NS9_14EqualsComparerINS0_8equal_toIS8_EEEENS0_9allocatorISB_EEE9SelectKeyESI_SK_EppEv
nKj:__ZThn8_N6il2cpp2vm13CachedCCWBaseINS0_13ManagedObjectEE7DestroyEv
hkf:_RSAPKCS1SignatureDeformatter_SetKey_m614724234
ETf:_UnicodeEncoding_GetByteCount_m3498858619
pQf:_Enum_ToObject_m26687919
NNi:_UnityEvent_1_FindMethod_Impl_m555893253_gshared
jOc:__ZN20TextRenderingPrivate8TextMesh11ApplyToMeshEv
v$j:_emscripten_glDrawRangeElements__wrapper
WTa:__Z28scripting_class_is_valuetype17ScriptingClassPtr
jJb:__ZNSt3__25dequeI10InputEventNS_9allocatorIS1_EEE19__add_back_capacityEv
YFa:__ZN13ComputeShader13SetValueParamERKN9ShaderLab16FastPropertyNameEiPKv
ccb:__ZN14BlendShapeDataD2Ev
cCa:__ZL18ProgramUniform3uivPK7ApiGLESjiihPKv
TDi:_RijndaelTransform_Encrypt128_m1940909042
kxe:_MonoEnumInfo_get_Cache_m752167006
JVc:__Z47CanvasRenderer_Set_Custom_PropHasPopInstructionP12Il2CppObjecth
eig:_Mesh_get_uv3_m3614955461
OBa:__ZN5Image8SetImageEii13TextureFormatb
$$:__ZN17MessageIdentifier21GetRegisteredMessagesEv
VV:__Z13RegisterClassI23CloudWebServicesManagerEvv
V$d:_InternalEnumerator_1_get_Current_m3900374024_gshared
nEi:_DelegatePInvokeWrapper_CostDelegate_t1722821004
Y1e:_SynchronizedArrayListWrapper_CopyTo_m2886332653
VHe:_HybridDictionary_Remove_m2295600623
gAj:__GLOBAL__sub_I_Image_cpp
W0d:_InternalEnumerator_1_get_Current_m2680116177_AdjustorThunk
K1a:__ZNSt3__27__sort5IRPFbRKNS_4pairIN9ShaderLab16FastPropertyNameEfEES6_EPS4_EEjT0_SB_SB_SB_SB_T_
gKg:_List_1_CheckMatch_m1934407508_gshared
oRj:__ZNSt3__26vectorINS_12basic_stringIDsNS_11char_traitsIDsEENS_9allocatorIDsEEEENS4_IS6_EEE8__appendEj
N4f:_Kernel_LeftShift_m3302851050
KHj:__ZN14dense_hash_mapI10KeyWrapperIPK19Il2CppGenericMethodEP10MethodInfoN6il2cpp8metadata23Il2CppGenericMethodHashENS4_14EqualsComparerINS8_26Il2CppGenericMethodCompareEEENSt3__29allocatorINSD_4pairIKS4_S6_EEEEE15set_deleted_keyERSG_
Btb:__Z29Transfer_Blittable_ArrayFieldI14SafeBinaryRead4AABBEvRT_R9ArrayInfoRK23StaticTransferFieldInfo
ose:_RecordProtocol_SendRecord_m515492272
gud:_ConfigHandler_ReadProvider_m3620509535
Vni:__ZL56g_UnityEngine_UI_Assembly_CustomAttributesCacheGeneratorP21CustomAttributesCache
Gkc:__Z46Register_UnityEngine_RectOffset_get_horizontalv
t2a:__ZN18DelayedCallManager8ClearAllEv
sZg:__Z180RuntimeInvoker_RuntimeObject_RuntimeObject_Int32_t2950945753_RuntimeObject_Int32U26_t1369213839_BooleanU26_t4125257963_BooleanU26_t4125257963_Int32U26_t1369213839_SByte_t1669577662PFvvEPK10MethodInfoPvPS4_
Boc:__Z22Mesh_CUSTOM_HasChannelP12Il2CppObject30InternalScriptingShaderChannel
Bwj:__ZN6il2cpp2os8AutoLockD2Ev
X2i:_CanvasGroup_get_interactable_m1362547832
cXb:__ZNK25RenderPrePassObjectSorterclERK16RenderObjectDataS2_
hrd:_ResourceSet_Dispose_m1823973062
E6d:_InternalEnumerator_1_System_Collections_IEnumerator_get_Current_m3537550566_AdjustorThunk
BBb:__Z22TransferField_NonArrayI18StreamedBinaryReadILb1EE27Converter_SimpleNativeClassI8GUIStyleEEvRK23StaticTransferFieldInfoR31RuntimeSerializationCommandInfoRT0_
re:_Mix_LoadWAV_RW
Kle:_EncryptedPrivateKeyInfo__ctor_m25839594
Agi:__ZL81Mesh_t3648964284_CustomAttributesCacheGenerator_Mesh_get_subMeshCount_m3992802841P21CustomAttributesCache
qQ:__Z45AudioSource_Get_Custom_PropSpatializeInternalP12Il2CppObject
cjf:_RIPEMD160Managed_HH_m90236373
xri:__ZL84GraphicRaycaster_t2999697109_CustomAttributesCacheGenerator_m_IgnoreReversedGraphicsP21CustomAttributesCache
PGe:_MethodBuilder_Invoke_m3837446660
gs:__ZNSt3__27__sort4IRNS_6__lessIN11UnityEngine9Animation13CachedBindingES4_EEPS4_EEjT0_S8_S8_S8_T_
FKh:_ReadOnlyCollection_1_System_Collections_IList_Clear_m12445504_gshared
rCj:__ZN6il2cpp2gcL12alloc_handleEPNS0_10HandleDataEP12Il2CppObjectb
s3j:_emscripten_glGetAttribLocation__wrapper
Vfg:_Input_GetAxisRaw_m2316819917
tEi:_Enumerator_MoveNext_m55255603
Lgi:__ZL57SpaceAttribute_t3956583069_CustomAttributesCacheGeneratorP21CustomAttributesCache
ALe:_WebRequest_AddDynamicPrefix_m4246631209
rXb:__Z13InitIndexListR9IndexListj
Y0:__ZL16ReadTypeTreeImplILb1EEbR8TypeTreeRK16TypeTreeIteratorRPKhS6_i
qQj:__ZN6il2cpp6icalls8mscorlib6System11Diagnostics10StackTrace9get_traceEP15Il2CppExceptionib
kug:_Dictionary_2_set_Item_m3327106492_gshared
Je:_glBlendEquationSeparate
zm:_emscripten_glDeleteVertexArrays
Usa:__ZN13GfxDeviceGLES17SetComputeUniformE12ObjectHandleI18ComputeProgram_TagPvER18ComputeShaderParamjPKv
N4j:b95
YGi:_Parser_IsNameChar_m698176442
gNg:_List_1_RemoveAt_m3459335427_gshared
u5j:_emscripten_glValidateProgram__wrapper
Mec:__ZN13MeshScripting27PrintErrorCantAccessChannelEPK4Mesh30InternalScriptingShaderChannel
yrg:_Vector3_get_sqrMagnitude_m1474274574_AdjustorThunk
jAi:_GeneralNames_ToString_m489778282
Qe:_emscripten_glUniform3fv
juf:_Array_InternalArray__ICollection_Contains_TisRaycastHit2D_t2279581989_m2733133723_gshared
boa:__ZN9ShaderLab7Program14RemoveVariantsERK13dynamic_arrayI16ShaderKeywordSetLj4EE
Ijf:_RSACryptoServiceProvider_get_KeySize_m2654153358
nxj:__ZN6il2cpp2vm9Exception20GetArgumentExceptionEPKcS3_
Rzc:__Z29Transfer_Blittable_ArrayFieldI8JSONReadiEvRT_R9ArrayInfoRK23StaticTransferFieldInfo
HIg:_Enumerator_MoveNext_m625797905_AdjustorThunk
Hph:_Array_Resize_TisCustomAttributeTypedArgument_t2723150157_m3021884250_gshared
E3j:_glDrawArrays__wrapper
UO:__ZN9AudioClip27IsFormatSupportedByPlatformERKN4core12basic_stringIcNS0_20StringStorageDefaultIcEEEE
g3a:__ZN29SerializeTraitsForStringTypesIN4core12basic_stringIcNS0_20StringStorageDefaultIcEEEEE8TransferI24GenerateTypeTreeTransferEEvRS4_RT_
Pka:__ZN9ShaderLab26SerializedShaderDependency8TransferI24GenerateTypeTreeTransferEEvRT_
NLi:_InvokableCall_3_Invoke_m3141788616_gshared
IFi:_PatternCompiler_EmitUntil_m3644194775
aIc:_UNITY_FT_Match_Size
cw:__ZN7mecanim20CreateValueArrayMaskEPKNS_18ValueArrayConstantERNS_6memory9AllocatorE
t7f:_KeyPairPersistence_ToXml_m812591779
Jxe:_MonoType_GetFields_internal_m776921855
ZZc:__ZN11UnityEngine7Connect14AppUpdateEventC2Ev
Eqd:_ResourceReader_Dispose_m3597121875
GTa:__ZN12ImageFilters17RemoveImageFilterERK11ImageFilter
GVe:_Hashtable_CalcPrime_m550773117
Ang:_RenderTexture_get_width_m2160921386
IYd:_InternalEnumerator_1_get_Current_m3073360606_AdjustorThunk
Bsa:__ZN9GfxDevice31InsertCustomBlitCallbackAndDataEPFviPvER33UnityRenderingExtCustomBlitParams
pMb:__Z32AddPathRemapsForBuiltinResourcesRKN4core12basic_stringIcNS_20StringStorageDefaultIcEEEE
TYa:__ZN14RenderSettings23VirtualRedirectTransferER24GenerateTypeTreeTransfer
Tub:__ZL26Transfer_SimpleNativeClassI17RemapPPtrTransfer17AnimationCurveTplIfELb0EEvRK29SerializationCommandArgumentsR31RuntimeSerializationCommandInfo
FJd:_InputField_set_caretWidth_m707310868
Bm:_glDeleteTransformFeedbacks
ROh:_U3CCreateWhereIteratorU3Ec__Iterator1D_1_MoveNext_m612748497_gshared
vf:_JS_WebRequest_Send
BKj:__ZN6il2cpp2os4Time31GetTicks100NanosecondsMonotonicEv
AGj:__ZNSt3__26__treeINS_12basic_stringIcNS_11char_traitsIcEENS_9allocatorIcEEEENS_4lessIS6_EENS4_IS6_EEE16__construct_nodeIJRKS6_EEENS_10unique_ptrINS_11__tree_nodeIS6_PvEENS_22__tree_node_destructorINS4_ISH_EEEEEEDpOT_
xff:_MonoIO_GetFileSystemEntries_m37351365
pIf:_Convert_ToSByte_m516918950
b2j:_emscripten_glGenRenderbuffers__wrapper
IWj:__ZNK10__cxxabiv117__class_type_info24process_found_base_classEPNS_19__dynamic_cast_infoEPvi
Wmg:_ReapplyDrivenProperties_Invoke_m1151937880
SDi:_RijndaelTransform_ECB_m670662322
wNd:_LayoutGroup_OnDisable_m3483954898
uej:__ZN6il2cpp2vm13MetadataCache21GetFieldInfoFromIndexEj
sli:__ZL62EventType_t3528516131_CustomAttributesCacheGenerator_mouseDragP21CustomAttributesCache
TQ:__ZN5physx14PxLightCpuTaskD2Ev
yq:__ZNSt3__26vectorIN4core12basic_stringIcNS1_20StringStorageDefaultIcEEEENS_9allocatorIS5_EEE6assignINS_11__wrap_iterIPS5_EEEENS_9enable_ifIXaasr21__is_forward_iteratorIT_EE5valuesr16is_constructibleIS5_NS_15iterator_traitsISE_E9referenceEEE5valueEvE4typeESE_SE_
png:_Vector2_get_zero_m540426400
Hrj:_il2cpp_init
n2g:__Z105RuntimeInvoker_RuntimeObject_RuntimeObject_StreamingContext_t3711869237_ISurrogateSelectorU26_t3801502798PFvvEPK10MethodInfoPvPS4_
URc:__ZNSt3__26__treeIPN2UI14CanvasRendererENS_4lessIS3_EENS_9allocatorIS3_EEE7destroyEPNS_11__tree_nodeIS3_PvEE
kra:__ZN13GfxDeviceGLES22UploadTextureSubData2DE9TextureIDPKhiiiiii14GraphicsFormat
K7d:_DefaultComparer_Compare_m3648806637_gshared
soc:__Z35Register_UnityEngine_Screen_get_dpiv
hyc:__ZN8JSONRead8TransferIxEEvRT_PKc17TransferMetaFlagsb
LBc:__ZN13SpeedTreeWind7AdvanceEbd
g_d:_InternalEnumerator_1_get_Current_m923139215_AdjustorThunk
Vbj:__ZN15dense_hashtableINSt3__24pairIK10KeyWrapperIN6il2cpp5utils13dynamic_arrayIPK10Il2CppTypeLj4EEEEPFvvEEESA_NS3_8metadata19Il2CppSignatureHashEN14dense_hash_mapISA_SD_SG_NSA_14EqualsComparerINSF_22Il2CppSignatureCompareEEENS0_9allocatorISE_EEE9SelectKeyESK_SM_E12expand_arrayEjN21dense_hash_map_traits17integral_constantIbLb0EEE
Uxf:_Array_FindLastIndex_TisRuntimeObject_m2929523835_gshared
fgc:__ZN9Transform16SetLocalPositionERK8Vector3f
j3b:__ZN10BootConfig4Data12InitFromFileEPPKcjS2_
XCb:__Z15Transfer_StringI18StreamedBinaryReadILb0EELb0EEvRK29SerializationCommandArgumentsR31RuntimeSerializationCommandInfo
jPc:_ft_open_face_internal
KHc:_UNITY_tt_face_free_name
e6i:_UnityAnalyticsHandler_Finalize_m1527596444
wKd:_InputField_set_selectionAnchorPosition_m68980541
NCa:__ZN14DataBufferGLES3MapEjjj
dbf:_Int16_System_IConvertible_ToDouble_m1661805412
Zcb:__ZN14SpriteRenderer23VirtualRedirectTransferER19StreamedBinaryWriteILb0EE
z4j:_emscripten_glGetShaderiv__wrapper
B5b:__Z13RegisterClassI9TransformEvv
oJi:_Repetition_Compile_m988726715
iYc:__ZN14UnityAnalytics22HandleCustomEventCountEj
RY:__ZNK6Camera33CalculateFarPlaneWorldSpaceLengthEv
_4c:_BaseInput_GetButtonDown_m3789908809
lSg:_List_1_System_Collections_IList_Insert_m2401407093_gshared
xrc:__Z42Register_UnityEngine_Event_get_commandNamev
kmj:__ZNK15dense_hashtableINSt3__24pairIK10KeyWrapperINS1_IPK11Il2CppImageP11Il2CppClassEEEjEES9_17ReflectionMapHashIS8_EN14dense_hash_mapIS9_jSD_NS9_14EqualsComparerINS0_8equal_toIS8_EEEENS0_9allocatorISB_EEE9SelectKeyESI_SK_E5beginEv
xDc:_cf2_stack_setReal
EI:__ZN4FMOD3DSP8getInputEiPPS0_PPNS_13DSPConnectionE
wN:__ZN11SoundHandle8Instance13CreateChannelERS_b
jAe:_NumberFormatter_NumberToString_m2529982306
yH:__ZN13AudioListenerD2Ev
uQc:_UNITY_FT_Done_Library
CQj:__ZN6il2cpp2os5MutexC2Eb
aBi:_PKCS12__cctor_m3271060407
f9d:_Comparer_1__cctor_m2282308543_gshared
xUc:__ZN2UI13CanvasManager17EmitDataForCameraEP6Camera
Fke:_ARC4Managed_CheckInput_m1562172012
FHg:_Enumerator_MoveNext_m4018122760_gshared
P5i:_CustomEventData_Dispose_m4023815755
Myi:_TlsStream_ReadBytes_m2334803179
kmc:__Z44Register_UnityEngine_Material_GetTextureImplv
mMh:_ReadOnlyCollection_1_System_Collections_IList_Add_m2445024939_gshared
d6a:__ZN19StreamedBinaryWriteILb0EE21TransferSTLStyleArrayI13dynamic_arrayI31EnlightenSystemAtlasInformationLj8EEEEvRT_17TransferMetaFlags
wgf:_FileStream_EndRead_m3904255625
EIb:__ZL8MainLoopv
gdc:__ZN17TransformInternal25CopyTransformSubhierarchyER18TransformHierarchyjS1_yyjb
Fwd:_CallContextRemotingData_Clone_m14303327
gWc:__Z47Register_UnityEngine_CanvasRenderer_SetMaterialv
i6j:_emscripten_glIsShader__wrapper
HAc:__ZN11UnityEngine9Analytics16StartupTimeEvent23SetAssembliesTimingInfoEyy
N6f:_DSAManaged_get_PublicOnly_m3575594967
cYc:__ZN11UnityEngine9Analytics23CustomLimitReachedEvent12ToJsonStringER9JSONWrite
WQc:__Z26CleanupTextRenderingModulev
t$a:__ZN7TextureD0Ev
GH:__ZN13AudioListener23VirtualRedirectTransferER24GenerateTypeTreeTransfer
xnb:__ZNK12HandlerChain9EnumerateEPKcP19dynamic_block_arrayI13FileEntryInfoLj32EEbPPv19FileEnumerationFlag
Hcb:__ZThn32_N12MeshRendererD1Ev
t_a:__ZN13RenderTexture23VirtualRedirectTransferER19StreamedBinaryWriteILb0EE
qJj:__ZN6il2cpp2vm13ComObjectBase17GetMarshalSizeMaxERK10Il2CppGuidPvjS5_jPj
EVj:_truncate
Hla:__ZN9ShaderLab27SerializedShaderVectorValue8TransferI18StreamedBinaryReadILb0EEEEvRT_
JX:__ZN8Renderer21RendererBecameVisibleEv
$Uj:___stpncpy
R9:__ZN10MemoryPool16StaticInitializeEPv
$fa:__ZN11TypeManager21CleanupGlobalInstanceEv
yQf:_Enum_ToString_m2240012010
DXc:__ZN11UnityEngine9Analytics15UserCustomEvent3AddEPKcRKN4core12basic_stringIcNS4_20StringStorageDefaultIcEEEE
N:Math_atan
xa:invoke_iifii
fH:__ZNK10SampleClip11GetResourceEv
xnd:_MonoEvent_get_Name_m3774595291
rpa:__ZN9GfxDevice15GetStereoMatrixE21MonoOrStereoscopicEye24BuiltinShaderMatrixParamR10Matrix4x4f
vPa:__ZN4core12basic_stringIcNS_20StringStorageDefaultIcEEE6resizeEj
Arc:__Z43Register_UnityEngine_Event_set_displayIndexv
bBc:__GLOBAL__sub_I_CmEventProfiler_cpp
_8g:__Z128RuntimeInvoker_RuntimeObject_RuntimeObject_SByte_t1669577662_SByte_t1669577662_SByte_t1669577662_SByte_t1669577662_RuntimeObjectPFvvEPK10MethodInfoPvPS4_
OTf:_UnicodeEncoding_GetMaxByteCount_m3053620432
lwd:_ArgInfo__ctor_m1950205784
cPh:_Nullable_1_Equals_m4046255732_AdjustorThunk
lRa:__ZN17GlobalGameManager23VirtualRedirectTransferER24GenerateTypeTreeTransfer
t0c:__ZN19UnityConnectServiceD0Ev
TVi:_ToggleGroup_ValidateToggleIsInGroup_m3201190739
fij:__ZN6il2cpp2vm7Runtime17GetDelegateInvokeEP11Il2CppClass
Big:_MonoBehaviour_StartCoroutine_Auto_Internal_m2421197418
NBc:___cxx_global_var_init_128
Qod:_MonoProperty_get_PropertyType_m4138957578
ZUa:__ZNSt3__26vectorIfNS_9allocatorIfEEE8__appendEjRKf
L_c:__ZN11UnityEngine15PlatformWrapper21GetCopyTextureSupportEv
JKf:_DateTime_get_Month_m1566006993_AdjustorThunk
gtf:_Array_get_swapper_TisRaycastResult_t3360306849_m1267000905_gshared
nte:_SslClientStream__ctor_m3478574780
AO:__ZN11AudioModule27IsFormatSupportedByPlatformEPKc
VOc:_UNITY_FT_Render_Glyph
bEe:_DerivedType_GetFields_m3190137327
b6c:_EventSystem_OnDisable_m3820258344
Jzc:__Z19TransferField_ArrayI8JSONRead16Converter_StringEvRK23StaticTransferFieldInfoR31RuntimeSerializationCommandInfoRT0_
uId:_MACTripleDES_Setup_m560957914
dac:__ZZN10MeshFilter15InitializeClassEvEN31FunctorImpl_108kDidAddComponent4CallEPviR11MessageData
scj:__ZN15dense_hashtableINSt3__24pairIK10KeyWrapperIPK19Il2CppGenericMethodEPK26Il2CppGenericMethodIndicesEES6_N6il2cpp8metadata23Il2CppGenericMethodHashEN14dense_hash_mapIS6_SA_SE_NS6_14EqualsComparerINSD_26Il2CppGenericMethodCompareEEENS0_9allocatorISB_EEE9SelectKeyESI_SK_E6insertERKSB_
kXb:__Z19SetupShadowCullDataRK27ScriptableCullingParametersRK17ShaderReplaceDataPK22SceneCullingParametersf16ShadowProjectionR14ShadowCullData
zLa:__ZNK25ThreadsafeLinearAllocator22GetAllocatedMemorySizeEv
zCc:_cff_size_request
L$a:__ZN15DirectorManager14ConnectionPool12SwitchBucketEP14ConnectionList
hSc:__ZN2UI11CompareFuncEPNS_6CanvasES1_
vJ:__ZN4FMOD7Channel11set3DSpreadEf
YQj:__ZN6il2cpp2os6Memory14AlignedReAllocEPvjj
W:Math_fround
d3a:__ZN24GenerateTypeTreeTransfer16TransferTypelessEPjPKc17TransferMetaFlags
gzf:_Array_InternalArray__IndexOf_TisPlayableBinding_t354260709_m3544096311_gshared
dCa:__ZL18ProgramUniform4uivPK7ApiGLESjiihPKv
Vkg:_Vector3_get_normalized_m2454957984
QVf:_Mutex_CreateMutex_internal_m3763633491
E0b:__ZN21ExecutionOrderManager27SetDefaultExecutionOrderForEPKN5Unity4TypeEii
Uti:__ZL74SpriteState_t1362986479_CustomAttributesCacheGenerator_m_HighlightedSpriteP21CustomAttributesCache
Ym:FUNCTION_TABLE_viiiiiiiiiiiiiii
oec:__ZNK4Mesh19CanAccessFromScriptEv
p2:__Z15GetGraphicsCapsv
JEa:__ZN7ApiGLES15BindVertexArrayEN2gl6HandleILNS0_10ObjectTypeE3EEE
Ivg:_Dictionary_2_System_Collections_IDictionary_Remove_m316877720_gshared
Ov:__ZN17AnimationPlayable17GetAnimationClipsER13dynamic_arrayIP13AnimationClipLj4EE
AUb:__Z20IntersectionAABBAABBRK10MinMaxAABBS1_PS_
V6b:__ZZL31RegisterRectTransformPropertiesR22GenericPropertyBindingEN32Wrapper_RectTransformSizeDeltax013SetFloatValueEPvf
Zxi:_SslStreamBase_get_SecurityProtocol_m596101988
nrj:__ZNSt3__212basic_stringIcNS_11char_traitsIcEENS_9allocatorIcEEE6__initIPKcEENS_9enable_ifIXsr21__is_forward_iteratorIT_EE5valueEvE4typeESA_SA_
Fna:__ZN9ShaderLab20SerializedSubProgram14AddMatrixParamEPKcii15ShaderParamTypei
n6g:__Z121RuntimeInvoker_Void_t1185182177_Int32_t2950945753_Int32_t2950945753_Int32_t2950945753_Int32_t2950945753_Int32_t2950945753PFvvEPK10MethodInfoPvPS4_
QLc:_ft_var_load_item_variation_store
qSe:_DeriveBytes_set_Salt_m441577179
hOi:_UnityEvent_3_FindMethod_Impl_m1640458315_gshared
vXh:__ZL61ConstructorBuilder_t2813524108_CustomAttributesCacheGeneratorP21CustomAttributesCache
fqb:__Z18Transfer_BlittableI14SafeBinaryReadLb1EhEvRK29SerializationCommandArgumentsR31RuntimeSerializationCommandInfo
$Yi:__ZL25UnresolvedVirtualCall_122P12Il2CppObjectififiPK10MethodInfo
iWd:_Text_get_verticalOverflow_m2420459396
Jga:__ZNSt3__224__buffered_inplace_mergeIRNS_4lessIN4core12basic_stringIcNS2_20StringStorageDefaultIcEEEEEENS_11__wrap_iterIPS6_EEEEvT0_SC_SC_T_NS_15iterator_traitsISC_E15difference_typeESG_PNSF_10value_typeE
ec:invoke_viifff
Xaa:__Z22DestroyObjectHighLevelP6Objectb
xGd:_KeySizes__ctor_m3113946058
MRb:__Z26BeginRenderQueueExtractionR15RenderNodeQueuePK16RendererCullDataRK13CullingOutputPK12LODDataArray15ExtractionFlagsP18JobBatchDispatcher
COc:__ZNK13TextRendering4Font10GetTextureEv
tj:_emscripten_glVertexAttrib3fv
kwd:_LifetimeServices__cctor_m2128864873
Z_f:_UInt16_TryParse_m3193697465
Gwj:__ZN6il2cpp6icalls8mscorlib6System9Threading6Thread16SetName_internalEP12Il2CppThreadP12Il2CppString
bjf:_RIPEMD160Managed_GG_m3020389474
RNf:_Decimal_op_Division_m2407964042
mKd:_InputField_get_asteriskChar_m965956856
gYa:__ZN18JobBatchDispatcherC2E11JobPriorityi
hdb:__ZThn32_N14SpriteRendererD0Ev
CHd:_HashAlgorithm_Create_m644612360
Djg:_Playable_get_Null_m3556999077
o4f:_BigInteger_TestBit_m1507066813
xpc:__ZN8GUIStyle14GetBuiltinFontEv
bsa:__ZN9GfxDevice13EndFrameStatsEv
M8b:__Z7Empty2DP9Texture2DPhiiii
toh:_Array_InternalArray__set_Item_TisRefEmitPermissionSet_t484390987_m3786305619_gshared
Ivj:__ZN6il2cpp6icalls8mscorlib6System7Runtime15InteropServices7Marshal19copy_from_unmanagedEiiP11Il2CppArrayi
xH:__ZL34StaticDestroyAudioCustomFilterRootPv
BXd:_ArrayReadOnlyList_1_GetEnumerator_m3931906247_gshared
dGa:__ZN19ComputeShaderKernelD2Ev
c7i:__ZN6il2cpp2vmL17SetupEventsLockedEP11Il2CppClassRKNS_2os12FastAutoLockE
X3b:__ZN10systeminfo21GetTemporaryCachePathEv
p9b:__ZZN8Renderer15InitializeClassEvEN28FunctorImpl_138kLayerChanged4CallEPviR11MessageData
kUi:_AnalyticsEventTracker_Start_m1087627554
kid:_GridLayoutGroup_CalculateLayoutInputVertical_m357562599
kVf:_CompressedStack_Capture_m3327262890
iTf:_StringBuilder_Replace_m1968561789
s$c:__ZN11UnityEngine7Connect18ConnectSessionInfoD2Ev
ywb:__Z18Transfer_BlittableI24GenerateTypeTreeTransferLb1E10Matrix4x4fEvRK29SerializationCommandArgumentsR31RuntimeSerializationCommandInfo
n9c:_StandaloneInputModule_get_repeatDelay_m1143359059
ZUf:_UTF8Encoding_GetMaxByteCount_m420651053
Fji:__ZL73AnimationMotionXToDeltaPlayable_t272231551_CustomAttributesCacheGeneratorP21CustomAttributesCache
ewc:__ZN9JSONWrite8TransferI10Matrix4x4fEEvRT_PKc17TransferMetaFlags
hEc:_cf2_hintmap_map
aLf:_DateTime_Compare_m2855073242
pNg:_List_1_get_Item_m1651423686_gshared
cVa:__ZNK16GraphicsSettings22GetTypeVirtualInternalEv
_Yf:_Type_get_IsExplicitLayout_m1182254884
ltb:__ZN15SerializeTraitsI5RectTIfEE8TransferI14SafeBinaryReadEEvRS1_RT_
SLa:__ZNK14SerializedFile15GetTypeIfExistsEx
_mc:__Z41Register_UnityEngine_Texture_get_wrapModev
LPc:_UNITY_FT_Raccess_Get_DataOffsets
ucc:__ZN14PlayableOutputC2EjP13PlayableGraph
YX:__ZThn32_NK8Renderer11GetMaterialEi
Sdd:_FloatTween_AddOnChangedCallback_m2814315272
qYc:__Z13RegisterClassI21UnityAnalyticsManagerEvv
KKj:__ZN6il2cpp6icalls8mscorlib6System7Runtime15InteropServices8GCHandle15GetTargetHandleEP12Il2CppObjectii
qbg:_CameraCallback_Invoke_m3308824940
Keb:__ZN9InputAxis8TransferI18StreamedBinaryReadILb0EEEEvRT_
NW:__ZN13MemoryManager12GetAllocatorE10MemLabelId
Gie:_BigInteger_ToString_m3260066955
Woa:__ZN9GfxDevice29GetMinimumNodesPerGraphicsJobEv
_fi:__ZL63RuntimePlatform_t4159857903_CustomAttributesCacheGenerator_NaClP21CustomAttributesCache
vbb:__ZN17BlendShapeChannel8TransferI24GenerateTypeTreeTransferEEvRT_
IUd:_Slider__ctor_m873361617
Zrd:_GCHandle__ctor_m2690474163_AdjustorThunk
gfa:__ZN15DirectorManager17OnSampleFixedTimeEv
EYb:__ZNK13RendererScene21GetDynamicObjectCountEv
WGf:_Double_Parse_m1135962389
$yi:_X509Extension__ctor_m710637961
j7e:_CultureInfo_get_CurrentCulture_m1632690660
H7f:_PKCS1_OS2IP_m65970018
Kk:_Mix_HaltMusic
EIh:_ReadOnlyCollection_1_System_Collections_IList_set_Item_m70952451_gshared
dib:__ZNSt3__26vectorIN30RuntimeInitializeOnLoadManager9ClassInfoE13stl_allocatorIS2_L18MemLabelIdentifier13ELi16EEE8__appendEj
exb:__ZN24GenerateTypeTreeTransfer32TransferSTLStyleArrayWithElementI23ManagedObjectTransfererEEvRT_17TransferMetaFlags
qHj:__ZN6il2cpp6icalls8mscorlib6System11Environment12get_PlatformEv
SJe:_HttpWebRequest__cctor_m1467954389
ujd:_Image_OnDisable_m3639311615
toe:_CipherSuiteCollection_System_Collections_IList_Remove_m2463347416
mGh:_ReadOnlyCollection_1_System_Collections_IList_RemoveAt_m1980090087_gshared
sgg:_DefaultValueAttribute_GetHashCode_m3368187153
iRj:__ZN6il2cpp6icalls8mscorlib6System7Runtime8Remoting16RemotingServices16GetVirtualMethodEP20Il2CppReflectionTypeP22Il2CppReflectionMethod
Idg:_Display_get_main_m599626808
Aic:__Z42Register_UnityEngine_Behaviour_get_enabledv
Hxi:_SslStreamBase_EndNegotiateHandshake_m1124299797
rxi:_SslStreamBase__ctor_m3009266308
pqj:__ZN6il2cpp2vm14TypeNameParser23ParseNestedTypeOptionalERi
KXf:_TimeSpan_get_Seconds_m1883479191_AdjustorThunk
IQj:__ZN6il2cpp2os13FastMutexImplC2Ev
Erd:_RuntimeHelpers_InitializeArray_m4077124945
aib:__ZN30RuntimeInitializeOnLoadManager9ClassInfo8TransferI14SafeBinaryReadEEvRT_
Oie:_BigInteger_op_Equality_m1194739960
uUf:_UTF7Encoding_GetCharCount_m2792854727
XUb:__ZL13RenderCastersiRK8Vector3fS1_RK13ShadowJobDataR17ShaderPassContextRKNSt3__26vectorI16ShadowCasterData13stl_allocatorIS9_L18MemLabelIdentifier2ELi16EEEERKNS8_I20ShadowCasterPartDataSA_ISG_LSB_2ELi16EEEERK15RenderNodeQueuebPKj
ul:_emscripten_glGetShaderInfoLog
hWd:_Text_get_horizontalOverflow_m4155575610
SCd:_ObjectReader_RecordFixup_m4125245357
eIc:_UNITY_ft_glyphslot_set_bitmap
fsh:_Dictionary_2_Do_ICollectionCopyTo_TisRuntimeObject_m1362949338_gshared
Jl:_glUniform1i
UKd:_InputField_Validate_m4147207871
p6c:_EventTrigger_OnDrop_m2546134332
a4b:__ZN6prcoreL11inner_clearILj3EEEvPhjjj
d6e:_CCGregorianCalendar_dmy_from_fixed_m494173177
qQg:_List_1_System_Collections_IList_IndexOf_m3211997095_gshared
F5:__Z29FindReflectionProbeFromAnchorP9TransformRK4AABBRS1_RsS5_
l_e:_Byte_System_IConvertible_ToUInt64_m371883985_AdjustorThunk
wKc:_Read_CVT_Stretched
Wgj:__ZN6il2cpp6icalls8mscorlib6System18CollectTypeMethodsINS_5utils10functional10TrueFilterEEEvP11Il2CppClassPKS7_jRKT_RNSt3__26vectorIPK10MethodInfoNSE_9allocatorISI_EEEERA65535_b
NIb:__Z14SetPlayerPause11PlayerPauseb
N2e:_CollectionBase_System_Collections_ICollection_CopyTo_m2850099809
PHh:_ReadOnlyCollection_1_System_Collections_IEnumerable_GetEnumerator_m3042843502_gshared
B9c:_StandaloneInputModule_ActivateModule_m2232892298
fsd:_GCHandle_Free_m1457699368_AdjustorThunk
qWf:_Thread_get_CurrentUICulture_m1397429997
ZEc:_cff_done_blend
Njf:_RSACryptoServiceProvider_Dispose_m1199148535
zhd:_Graphic_RegisterDirtyLayoutCallback_m1235519898
E_:__Z30scripting_stack_trace_info_for21ScriptingExceptionPtrR14StackTraceInfo
drg:_Vector2_op_Inequality_m3858779880
s_j:_glCompressedTexSubImage3D__wrapper
EZa:__ZN18ShadowMapJobHeaderD0Ev
AUd:_Selectable_Select_m1465131241
Lmj:__ZN15dense_hashtableINSt3__24pairIK10KeyWrapperINS1_IPK12PropertyInfoP11Il2CppClassEEEjEES9_17ReflectionMapHashIS8_EN14dense_hash_mapIS9_jSD_NS9_14EqualsComparerINS0_8equal_toIS8_EEEENS0_9allocatorISB_EEE9SelectKeyESI_SK_EC2ERKSN_j
OI:__ZN15AudioReverbZone7CleanupEv
Goa:__ZN10BufferGLESD0Ev
tIb:__Z20scripting_gc_disablev
AYe:_Attribute_IsDefined_m1430686743
cEi:_IntervalCollection_Optimize_m161975983
Lcd:__Z9NullCheckPv
G1f:_Version__ctor_m417728625
Ofa:__ZN16memory_pool_implILi68EE15AutoPoolWrapper10InitializeEPv
REf:_Convert_ToByte_m3567528984
ZKi:_InvokableCall_1_Invoke_m3497872319_gshared
WGb:__ZN9Scripting35ErrorMessageForUnsupportedEnumFieldE17ScriptingFieldPtr
i2f:_Level2MapComparer__cctor_m1866197409
JCb:__Z29Transfer_Blittable_ArrayFieldI18StreamedBinaryReadILb1EEfEvRT_R9ArrayInfoRK23StaticTransferFieldInfo
yse:_RecordProtocol_ReadRecordBuffer_m180543381
D9d:_Enumerator_get_CurrentKey_m2230405065_AdjustorThunk
g2e:_BitArray__ctor_m2765908219
ysf:_StringComparer_get_InvariantCultureIgnoreCase_m2404489191
p1i:_Font_get_material_m1471867149
EKj:__ZN6il2cpp6icalls8mscorlib6System7Runtime16CompilerServices14RuntimeHelpers15InitializeArrayEP11Il2CppArrayi
dvd:_Context_Freeze_m2594571993
Q1c:__ZZN18UnityConnectClient23RegisterGlobalCallbacksEvEN46EarlyUpdateUnityConnectClientUpdateRegistrator7ForwardEv
bdd:_ContentSizeFitter_HandleSelfFittingAlongAxis_m3992075504
aBf:_Array_InternalArray__ICollection_CopyTo_TisInt32_t2950945753_m3102754797_gshared
Nkg:_Quaternion_ToString_m2203056442
QDe:_ModuleBuilder_GetTokenGenerator_m4177350090
Ebb:__ZN10Matrix4x4f8TransferI18StreamedBinaryReadILb0EEEEvRT_
wWf:_Thread_Start_m2860771284
pVg:_List_1_AddEnumerable_m2295992518_gshared
OM:__ZN4FMOD7Channel19getReverbPropertiesEP29FMOD_REVERB_CHANNELPROPERTIES
QXb:__ZL23NormalizeRobustInternalRK8Vector3fRfS2_f
QBc:__GLOBAL__sub_I_modules_terrain_public_2_cpp
PJd:_InputField_get_selectionColor_m2548343601
uzf:_Array_LastIndexOf_TisRuntimeObject_m2701366436_gshared
Mgj:__ZN6il2cpp6icalls8mscorlib6System8MonoType13GetInterfacesEP20Il2CppReflectionType
UT:__ZN11UnityEngine15CloudWebService25WebRequestDownloadHandler7OnAbortEv
vOb:__ZN6Camera12CustomRenderER11CullResultsR17ShaderPassContextPK21CameraRenderingParamsNS_10RenderFlagEPNS_21PerformRenderFunctionEPFvvE
DMe:_PublicKey_GetUnsignedBigInteger_m3873409673
zFj:__ZN6il2cpp2os6Thread22SetNativeThreadCleanupEPFvPvE
SDg:_GenericEqualityComparer_1_Equals_m2669134646_gshared
cic:__Z35Application_Get_Custom_PropPlatformv
U6d:_DefaultComparer_Compare_m1649892577_gshared
CEd:_RuntimeMethodHandle__ctor_m2867240657
kn:FUNCTION_TABLE_vdd
dwb:__Z18Transfer_BlittableI24GenerateTypeTreeTransferLb1E10ColorRGBAfEvRK29SerializationCommandArgumentsR31RuntimeSerializationCommandInfo
AAa:__ZN6prcoreL17RemapGenericFloatI18TexFormatRGBAFloat16TexFormatRGFloatEEvPKNS_9InnerInfoE
lgj:__ZN6il2cpp6icalls8mscorlib6System8MonoType8get_NameEP20Il2CppReflectionType
B3f:_SimpleCollator_LastIndexOf_m2130553617
Csb:__ZNSt3__26vectorI10RectOffset13stl_allocatorIS1_L18MemLabelIdentifier1ELi16EEE8__appendEj
au:__ZN21AnimationClipPlayable22PrepareAnimationEventsEfR13dynamic_arrayI22AnimationClipEventInfoLj4EE
y7d:_DefaultComparer_Compare_m1920986590_gshared
tYf:_TimeSpan_op_Equality_m1999885032
$xi:_SslStreamBase_get_ServerCertificates_m2154373069
RAj:__ZN6il2cpp2vmL29AddTypeToNametoClassHashTableEPK11Il2CppImagei
ap:FUNCTION_TABLE_ff
cp:FUNCTION_TABLE_fi
_ze:_NumberFormatter_ZeroTrimEnd_m3065471008
JMi:_UnityAction_2_Invoke_m2304474703_gshared
ZSe:_X509Certificate_get_DSA_m1760272844
pWf:_Thread_get_CurrentCulture_m349116646
iWf:_Thread_Thread_internal_m4184414727
wd:_emscripten_glGetAttribLocation
Rac:__ZN12FlareManager31HandleFlareTransformReplacementEPK15TransformAccessj
_Mb:__ZZ23InitPlayerLoopCallbacksvEN39PostLateUpdateResetInputAxisRegistrator7ForwardEv
AL:__ZN4FMOD12ChannelGroup14getParentGroupEPPS0_
Ad:_emscripten_set_blur_callback
Exh:_Collection_1_IsValidItem_m1475436662_gshared
pya:__ZNK14ImageReference9ClipImageEiiii
fac:__ZN4MeshC2E10MemLabelId18ObjectCreationMode
HVb:__ZN10Matrix4x4f30SetPositionAndOrthoNormalBasisERK8Vector3fS2_S2_S2_
WKa:__ZN5RectTIfE8TransferI24GenerateTypeTreeTransferEEvRT_
Icd:_ColorBlock_Equals_m518833916
MEj:__ZN6il2cpp6icalls8mscorlib6System4Enum8ToObjectEP20Il2CppReflectionTypeP12Il2CppObject
rph:_Array_qsort_TisUIVertex_t4057497605_m4120916435_gshared
MPb:__ZN12FlareManager6UpdateEv
Iyj:__ZN6il2cpp6icalls8mscorlib6System4Type29GetGenericTypeDefinition_implEP20Il2CppReflectionType
E$c:__ZN18UnityConnectClientD0Ev
Gfb:__ZN27GenericSlowGarbageCollector16ProcessReferenceEi
Xvg:_Dictionary_2_get_Item_m1749337561_gshared
Bcg:__ZN21InterfaceFuncInvoker5I19CSSSize_t3377836552ififiE6InvokeEjP11Il2CppClassP12Il2CppObjectififi
tud:_LifetimeServices_set_SponsorshipTimeout_m2538334028
tqh:_Array_Sort_TisCustomAttributeTypedArgument_t2723150157_m3248988944_gshared
vUj:_fopen
jna:__ZN20GpuProgramParameters15AddTextureParamEPKciib16TextureDimensionP16PropertyNamesSet
kQc:__ZN20TextRenderingPrivate8FontImplD2Ev
OV:__ZN19CloudServiceHandler8SaveFileERKN4core12basic_stringIcNS0_20StringStorageDefaultIcEEEEPKvj
mxj:__ZN6il2cpp2vm9Exception5RaiseEib
iLj:_GC_init
Wxe:_MonoType_IsPointerImpl_m3340652279
W0j:_glFramebufferTexture2D__wrapper
ZRj:__ZN6il2cpp6icalls8mscorlib6System7Runtime8Remoting7Proxies9RealProxy27InternalGetTransparentProxyEP12Il2CppObjectP12Il2CppString
hGj:__ZN6il2cpp2vm6Method10IsInflatedEPK10MethodInfo
HKj:__ZNK6il2cpp8metadata14Il2CppTypeLessclEPK10Il2CppTypeS4_
ELj:_GC_remove_header
KWa:__ZL17InstanceBufferJobIN10Instancing14RenderLoopArgsEEvP21InstanceBufferJobDataIT_E
Uhb:__ZNSt3__26vectorIi13stl_allocatorIiL18MemLabelIdentifier13ELi16EEE8__appendEj
uQd:_ReflectionMethodsCache__ctor_m3826472948
Qyd:_ReturnMessage_get_OutArgs_m1641976511
Yvd:_SynchronizationAttribute_IsContextOK_m324067792
cEj:__ZN6il2cpp2vm6Object6IsInstEP12Il2CppObjectP11Il2CppClass
pzb:__Z19TransferField_ArrayI19StreamedBinaryWriteILb0EE27Converter_UnityEngineObjectEvRK23StaticTransferFieldInfoR31RuntimeSerializationCommandInfoRT0_
Mhj:_RemoteSettings_CallOnUpdate_m2821567430
eva:__Z16GetMSAALevelDesc9MSAALevel
m5e:_Environment_GetMachineConfigPath_m43519138
s1d:_InternalEnumerator_1_System_Collections_IEnumerator_get_Current_m4203917072_gshared
nNf:_Decimal_decimal2Int64_m2102545213
KOb:__ZN8Renderer27EnsureTransformInfoUpToDateEv
G5j:_emscripten_glFrontFace__wrapper
Zug:_Dictionary_2_System_Collections_ICollection_CopyTo_m534867526_gshared
La:invoke_fiffi
S0:__ZN14SerializedFile14SerializedType8ReadTypeILb1EEEbibRPKhS3_Pi
GLi:_InvokableCall_1_Invoke_m1160628299_gshared
n5c:_ExecuteEvents_get_pointerEnterHandler_m1185301724
Fxi:_InternalAsyncResult__ctor_m2194591319
LZa:__ZN8Playable7SetTimeEd
yaa:__ZN13RuntimeStaticI12GraphicsCapsLb0EE16StaticInitializeEPv
U9a:__ZN9Texture3D17UploadToGfxDeviceEv
ZVe:_ArgumentException__ctor_m3761792013
kJc:_tt_cmap2_validate
nFc:_cff_cmap_unicode_done
Psd:_ActivationServices_CreateProxyFromAttributes_m3864561181
jIb:__ZN9Scripting20SendScriptingMessageER10GameObjectPKc18ScriptingObjectPtr
Z9g:__Z67RuntimeInvoker_Void_t1185182177_Scene_t2348375561_Int32_t2950945753PFvvEPK10MethodInfoPvPS4_
JIb:__Z26IsSplashScreenFadeCompletev
$ic:__Z42Register_UnityEngine_Camera_get_clearFlagsv
Ogj:__ZNSt3__26__treeIP11Il2CppClassNS_4lessIS2_EENS_9allocatorIS2_EEED2Ev
vVd:_Slider_FindSelectableOnRight_m3576909722
X$b:__ZN13RenderManager27UpdatePreviousFrameMatricesEv
AAb:__Z35Transfer_Blittable_FixedBufferFieldI18StreamedBinaryReadILb1EExEvRK29SerializationCommandArgumentsR31RuntimeSerializationCommandInfo
Xsh:_Array_InternalArray__get_Item_TisByte_t1134296376_m3566214066_gshared
Jba:__Z22SetManagerPtrInContextiP6Object
Dgb:__ZN14PlayerSettings8TransferI19StreamedBinaryWriteILb0EEEEvRT_
bxc:__Z18Transfer_BlittableI8JSONReadLb0E10ColorRGBAfEvRK29SerializationCommandArgumentsR31RuntimeSerializationCommandInfo
F6e:_NumberFormatInfo_set_NumberNegativePattern_m1999304795
iTg:_List_1_System_Collections_IList_Insert_m2238786360_gshared
AFe:_GenericTypeParameterBuilder_IsSubclassOf_m2266644074
L8f:_SymmetricTransform_ThrowBadPaddingException_m2926778011
c7e:_CompareInfo_ToString_m2684143229
$da:__ZN15DirectorManagerD2Ev
WUd:_Slider_get_maxValue_m414465787
Blj:__ZN15dense_hashtableINSt3__24pairIK10KeyWrapperINS1_IPK10MethodInfoP11Il2CppClassEEEjEES9_17ReflectionMapHashIS8_EN14dense_hash_mapIS9_jSD_NS9_14EqualsComparerINS0_8equal_toIS8_EEEENS0_9allocatorISB_EEE9SelectKeyESI_SK_E9copy_fromERKSN_j
KOe:_X509CertificateEnumerator_System_Collections_IEnumerator_get_Current_m4218613192
W7b:__ZNK30SpriteRendererAnimationBinding15GenerateBindingERKN4core12basic_stringIcNS0_20StringStorageDefaultIcEEEEbRN11UnityEngine9Animation14GenericBindingE
pRd:_Scrollbar_set_direction_m473480640
WTf:_UTF32Encoding__ctor_m1635603592
GJi:_Uri_IsPredefinedScheme_m1188665625
T1c:__ZN18UnityConnectClient13StaticDestroyEv
Uyj:__ZN6il2cpp6icalls8mscorlib6System13Globalization11CultureInfo45construct_internal_locale_from_current_localeEP17Il2CppCultureInfo
JBf:_Array_InternalArray__ICollection_CopyTo_TisUIVertex_t4057497605_m487823430_gshared
Ehj:_SessionStateChanged_Invoke_m1365949269
vGa:__ZN15TextureTFMethod16BindForRenderingEj
PAc:__ZN11UnityEngine9Analytics33PerformanceReportingRenderingInfoC2Ev
rmi:__ZL49Canvas_t3310196443_CustomAttributesCacheGeneratorP21CustomAttributesCache
gzd:_SoapMethodAttribute_SetReflectionObject_m503748123
Ugc:__ZL34GetComponentsImplementationRecurseILb0ELi1ELi0EEbR10GameObjectbRK17CompareParametersRK39GetComponentsImplementation_ReturnValue
SAj:__ZN15dense_hashtableINSt3__24pairIK10KeyWrapperINS1_IPKcS4_EEEiEES6_24NamespaceAndNamePairHashN14dense_hash_mapIS6_iS9_NS6_14EqualsComparerI26NamespaceAndNamePairEqualsEENS0_9allocatorIS8_EEE9SelectKeyESD_SF_E4findERS7_
_Nc:__ZN20TextRenderingPrivate8FontImpl13CharacterInfo8TransferI19StreamedBinaryWriteILb0EEEEvRT_
Xej:__ZN6il2cpp2os19SocketHandleWrapper7ReleaseEv
E9f:_BeforeRenderHelper_Invoke_m50072094
yxd:_MethodCall_get_MethodBase_m550047245
rfb:__ZNSt3__27__sort4IRNS_6__lessINS_4pairIPKN5Unity4TypeE7Hash128EES8_EEPS8_EEjT0_SC_SC_SC_T_
Jec:__Z33AllocExtractMeshIndicesFromScriptRK4Meshib
aNe:_X509Certificate2_get_PrivateKey_m450647294
yoa:__ZNK11NamedObject22GetTypeVirtualInternalEv
wJi:_Uri_EscapeString_m2061933484
y2d:_InternalEnumerator_1_System_Collections_IEnumerator_get_Current_m1096730143_gshared
JGf:_Convert_ToDecimal_m3815908452
Rbg:_Color_op_Equality_m1112359053
Hbg:_Color__ctor_m286683560_AdjustorThunk
Vgf:_DelegatePInvokeWrapper_ReadDelegate_t714865915
bTe:_CollectionBase_Clear_m1509125218
brc:__ZN11IMGUIModule21QueryGUIDisplayTargetE17ScriptingClassPtr
nbj:__ZNSt3__27__sort4IRN6il2cpp5utils11collections13ArrayValueMapIPK10Il2CppType17Il2CppInteropData26InteropDataToTypeConverterNS1_8metadata14Il2CppTypeLessENSA_26Il2CppTypeEqualityComparerEE12SortComparerEPS8_EEjT0_SH_SH_SH_T_
NAc:__ZN27PerformanceReportingManager43UpdateCoreStatsCountForPerformanceReportingEv
WXj:dynCall_vidi
Sif:_StreamReader_ReadToEnd_m371831293
nhg:_Mathf_RoundToInt_m1874334613
Uwe:_MonoCustomAttrs_GetCustomAttributes_m1775925192
hkc:__Z42NoAllocHelpers_CUSTOM_ExtractArrayFromListP12Il2CppObject
t$j:_glVertexAttribPointer__wrapper
_Hd:_HMAC_Create_m2148924157
HXj:___udivdi3
w5e:_Exception__ctor_m1406832249
fHg:_Enumerator_System_Collections_IEnumerator_get_Current_m2339378585_gshared
sgc:__ZN11PlayerPrefs9SetStringERKN4core12basic_stringIcNS0_20StringStorageDefaultIcEEEES6_
xOj:__ZN6il2cpp6icalls8mscorlib6System8Delegate18SetMulticastInvokeEP14Il2CppDelegate
l9d:_Enumerator_VerifyCurrent_m2197239943_gshared
Hua:__ZN4gles16CreateBlendStateER15DeviceStateGLESRK13GfxBlendState
pI:__ZN9AudioClip6ReloadEv
jac:__ZN8Material12CleanupClassEv
IUj:_fseek
bCc:__ZN16memory_pool_implILi40EE15AutoPoolWrapper10InitializeEPv
_7e:_DateTimeFormatInfo_GetEraName_m3151483707
uTe:_PKCS12_AddCertificate_m3618696508
SM:__ZN20SoundChannelInstance11set3DSpreadEf
REg:_HashSet_1_Init_m2976925848_gshared
or:__ZNSt3__26__sortIRN11UnityEngine9Animation11BindingSortEPNS_4pairINS2_14GenericBindingEPNS2_10BoundIndexEEEEEvT0_SB_T_
cse:_HttpsClientStream_U3CHttpsClientStreamU3Em__0_m2058474197
fJf:_Convert_ToUInt32_m2215525276
tgb:__ZN24GenerateTypeTreeTransfer32TransferSTLStyleArrayWithElementI16SplashScreenLogoEEvRT_17TransferMetaFlags
$jj:__ZN15dense_hashtableINSt3__24pairIK10KeyWrapperINS1_IPK9FieldInfoP11Il2CppClassEEEjEES9_17ReflectionMapHashIS8_EN14dense_hash_mapIS9_jSD_NS9_14EqualsComparerINS0_8equal_toIS8_EEEENS0_9allocatorISB_EEE9SelectKeyESI_SK_E6insertERKSB_
R0d:_InternalEnumerator_1_get_Current_m2680116177_gshared
r9i:__ZN14dense_hash_mapI10KeyWrapperIPKcEP11Il2CppClassN6il2cpp5utils11StringUtils12StringHasherIS2_EENS3_14EqualsComparerINS7_13VmStringUtils21CaseSensitiveComparerEEENSt3__29allocatorINSF_4pairIKS3_S5_EEEEEC2EjRKSA_RKSE_
gda:__Z37InitializeIntermediateRendererManagerPv
ryj:__ZN6il2cpp2vm13LivenessState16AddProcessObjectEP12Il2CppObjectPS1_
prf:_String_IndexOfOrdinal_m962178384
Kcj:__ZN6il2cpp2vm13MetadataCache34GetTypeInfoFromTypeDefinitionIndexEi
$Hd:_HMACMD5__ctor_m3129799368
Xkd:_TypeBuilder_GetEvent_m2166527753
vhd:_Graphic_CrossFadeColor_m678806803
waa:__ZN23DefaultMeshVertexFormatC2E17ShaderChannelMask
VAb:__ZL26Transfer_SimpleNativeClassI18StreamedBinaryReadILb1EE8GradientLb1EEvRK29SerializationCommandArgumentsR31RuntimeSerializationCommandInfo
B3g:__Z102RuntimeInvoker_Int32_t2950945753_RuntimeObject_Int32_t2950945753_CharU26_t1697032762_SByte_t1669577662PFvvEPK10MethodInfoPvPS4_
mye:_MonoType_get_Namespace_m2015358851
IOi:_IndexedSet_1_RemoveAt_m3002732320_gshared
v4e:_HashKeys_CopyTo_m4219627824
oJd:_InputField_GetLineStartPosition_m2947412579
Jua:__ZN7ApiGLES10InvalidateERK14GfxContextGLES
GJf:_Convert_ToType_m2406080310
UKh:_ReadOnlyCollection_1_IndexOf_m2659941036_gshared
mKh:_ReadOnlyCollection_1_System_Collections_IList_set_Item_m3570269385_gshared
dJg:_List_1_AddEnumerable_m2043754576_gshared
oed:_DefaultControls_CreateToggle_m1236643913
m6f:_BitConverterLE_ToSingle_m1153793442
FQj:__ZN6il2cpp2os5Mutex7TryLockEjb
Xaf:_Int16_System_IConvertible_ToByte_m3161982419
g5:__Z20IsVectorBuiltinParamPKcPi
EDj:__ZN6il2cpp2vm5Field8GetFlagsEP9FieldInfo
KId:_MD5CryptoServiceProvider_HashFinal_m2625727830
kph:_Array_qsort_TisRaycastResult_t3360306849_m3861320071_gshared
Kpf:_Single_System_IConvertible_ToUInt32_m289030200
kwj:__ZN6il2cpp6icalls8mscorlib6System10ReflectionL16LoadResourceFileEP24Il2CppReflectionAssembly
YOf:_Double_System_IConvertible_ToDouble_m3692611612
v0:__Z13IsFileCreatedRKN4core12basic_stringIcNS_20StringStorageDefaultIcEEEE
tWd:_Text_OnPopulateMesh_m1525268284
fgf:_FileStream_FlushBuffer_m914568182
r5a:__ZN16LightmapSettings18TransferDeprecatedI14SafeBinaryReadEEvRT_
heb:__ZN8Renderer11SetMaterialE4PPtrI8MaterialEi
tTf:_StringBuilder_AppendFormat_m921870684
ADj:__ZN15dense_hashtableINSt3__24pairIK10KeyWrapperIP12Il2CppObjectEN6il2cpp2gc9CachedCCWEEES5_NS7_5utils11PointerHashIS3_EEN14dense_hash_mapIS5_S9_SD_NS5_14EqualsComparerINS0_8equal_toIS4_EEEENS0_9allocatorISA_EEE9SelectKeyESI_SK_E5eraseE30dense_hashtable_const_iteratorISA_S5_SD_SM_SI_SK_E
B3e:_Hashtable__ctor_m1684344284
Cy:__ZThn152_NK26AnimatorControllerPlayable41GetStateMachineBehaviourVectorDescriptionEv
hVe:_Activator_CheckAbstractType_m2015247896
Sjf:_RSACryptoServiceProvider_ImportParameters_m614616705
X7:__GLOBAL__sub_I_runtime_camera_renderloops_1_cpp
qxi:_SslHandshakeHash_CreateSignature_m1634235041
qee:_ShimEnumerator_get_Current_m3504536618_gshared
xAc:__ZN27PerformanceReportingManager29CheckForTargetFrameRateChangeEv
XUa:__ZN12FlareManager9AddCameraER6Camera
b3c:__ZN15UnityWebRequestD0Ev
eOd:_LayoutRebuilder_U3CRebuildU3Em__3_m523803689
JN:__ZN11AudioSource8TransferI14SafeBinaryReadEEvRT_
Rff:_FileNotFoundException__ctor_m2477162036
fAg:_EqualityComparer_1__cctor_m149356781_gshared
QMf:_Decimal_System_IConvertible_ToDouble_m3125524987
xv:__ZN7mecanim9animation23TransformDeltasFromClipEiiiRKNS0_18ClipMuscleConstantERKNS0_12ClipBindingsERKNS_14ValueArrayMaskERN4math4trsXESC_SC_
IDb:__Z18Transfer_BlittableI18StreamedBinaryReadILb0EELb0E12PropertyNameEvRK29SerializationCommandArgumentsR31RuntimeSerializationCommandInfo
NXj:___divdi3
tma:__ZN9ShaderLab9IntShader26CreateFromSerializedShaderERKNS_16SerializedShaderERNSt3__26vectorI4PPtrI6ShaderENS4_9allocatorIS8_EEEEbPS7_
JEi:_Match_get_Empty_m2060287462
tpb:__ZN19ShaderPropertySheet16SetComputeBufferEN9ShaderLab16FastPropertyNameE15ComputeBufferIDNS_8SetFlagsE
Yig:_U3CInvokeMessageIdSubscribersU3Ec__AnonStorey0_U3CU3Em__0_m444206473
jwg:_Dictionary_2_ContainsValue_m256968015_gshared
UHj:__ZNK15dense_hashtableINSt3__24pairIK10KeyWrapperIPK19Il2CppGenericMethodEP10MethodInfoEES6_N6il2cpp8metadata23Il2CppGenericMethodHashEN14dense_hash_mapIS6_S9_SD_NS6_14EqualsComparerINSC_26Il2CppGenericMethodCompareEEENS0_9allocatorISA_EEE9SelectKeyESH_SJ_E5beginEv
tXd:_ArrayReadOnlyList_1_get_Item_m1974867852_gshared
pjd:_Image_AddQuad_m969836764
w2f:_MSCompatUnicodeTable_IsIgnorableNonSpacing_m47098938
rDh:_Collection_1_IsSynchronized_m2655903966_gshared
vcf:_Int32_System_IConvertible_ToSingle_m896140682_AdjustorThunk
Bv:__ZN7mecanim21CreateFloatValueArrayEPKNS_18ValueArrayConstantERNS_6memory9AllocatorE
VYb:__ZL12CullGroupJobP20CullingGroupsJobDataj
aMj:_GC_remove_dangling_disappearing_links
vU:__ZN11UnityEngine15CloudWebService14RestDownloader9IsAbortedEv
My:__ZN7mecanim12statemachine28DestroyStateMachineWorkspaceEPNS0_21StateMachineWorkspaceERNS_6memory9AllocatorE
Trc:__Z30GUIStyle_CUSTOM_SetDefaultFontP12Il2CppObject
X9d:_Enumerator_System_Collections_IDictionaryEnumerator_get_Key_m3435754782_AdjustorThunk
so:FUNCTION_TABLE_f
fp:FUNCTION_TABLE_i
IHi:_AnchorInfo_get_Position_m1133366486
Qif:_StreamReader_FindNextEOL_m2574298119
dga:__ZN11TypeManager12RegisterTypeERK20TypeRegistrationDesc
Jn:FUNCTION_TABLE_v
jbb:__ZNSt3__26vectorI17BlendShapeChannelNS_9allocatorIS1_EEE8__appendEj
Pp:__ZN18StreamedBinaryReadILb0EE21TransferSTLStyleArrayI13dynamic_arrayI8Vector3fLj4EEEEvRT_17TransferMetaFlags
eNb:__ZZ23InitPlayerLoopCallbacksvEN43PostLateUpdateUpdateAllRenderersRegistrator7ForwardEv
tjb:__ZN21LightProbeProxyVolume13GetRenderDataER27LightProbeProxyVolumeSample
Iud:_Context_get_ContextProperties_m3283598326
uzh:_Collection_1_System_Collections_IList_set_Item_m4249768453_gshared
Zeb:__ZN11TimeManager8TransferI24GenerateTypeTreeTransferEEvRT_
Vde:_KeyCollection_System_Collections_ICollection_get_SyncRoot_m3900096134_gshared
Ktc:__ZN8JSONRead8TransferItEEvRT_PKc17TransferMetaFlagsb
_r:__ZNK11UnityEngine9Animation28GenericAnimationBindingCache10BindCustomERKNS0_14GenericBindingER9TransformRNS0_10BoundCurveE
Nqj:__ZN6il2cpp2vm17TypeNameParseInfoC2ERKS1_
p0c:__ZN18UnityConnectClient17InitConnectClientEv
jTj:_memcmp
laf:_GuidParser_ParseHexPrefix_m3148550086
__c:__ZN11UnityEngine7Connect18ConnectSessionInfo8TransferER9JSONWrite
CQ:__Z74Register_UnityEngine_AudioListener_INTERNAL_CALL_ReadExtensionPropertyNamev
Ooh:_Array_InternalArray__set_Item_TisHitInfo_t3229609740_m1576844560_gshared
nY:__ZN9Scripting32GetCachedPtrFromScriptingWrapperE18ScriptingObjectPtr
Ete:_SslClientStream_OnBeginNegotiateHandshake_m3734240069
XTc:__ZN2UI29ScheduleUIJobsForInstructionsERNS_7BatchesEjPKNS_13UIInstructionEfjjPNS_13CanvasJobDataE
nL:__ZN5audio5mixer22CreateAudioMixerMemoryERKNS0_18AudioMixerConstantEPN4FMOD6SystemERN7mecanim6memory9AllocatorEib
MGb:__ZL65EmitSerializationCommandsForLinearCollectionOfManagedObjectsFieldRK31TransferFunctionScriptingTraitsRK23TransferArrayField_InfoR20SerializationCommandR32SerializationCommandQueueBuilderRP20AllowNameConversions
Jsh:_LayoutGroup_SetProperty_TisInt32_t2950945753_m3911895589_gshared
tV:__ZN11UnityEngine15CloudWebService19SessionEventManager31SetupNextActiveSessionContainerEv
WZj:dynCall_iiid
eZg:__Z121RuntimeInvoker_Void_t1185182177_Int32_t2950945753_Int32_t2950945753_Int32_t2950945753_SByte_t1669577662_SByte_t1669577662PFvvEPK10MethodInfoPvPS4_
XZj:dynCall_iiif
I4g:__Z52RuntimeInvoker_Single_t1397266774_Single_t1397266774PFvvEPK10MethodInfoPvPS4_
$xf:_Array_IndexOf_TisRuntimeObject_m828474689_gshared
O6b:__ZZL31RegisterRectTransformPropertiesR22GenericPropertyBindingEN32Wrapper_RectTransformAnchorMiny113GetFloatValueEPv
r1e:_FixedSizeArrayListWrapper_InsertRange_m1706982628
a1f:_UIntPtr_ToString_m984583492_AdjustorThunk
IKb:__ZL20ShaderWarmupFuncImplP6ShaderiPN9ShaderLab4PassERK16ShaderKeywordSetP10DynamicVBOPvR17ShaderPassContext
GLb:__ZN13GfxDeviceGLESC2E10MemLabelId
I1i:_TextGenerationSettings_Equals_m3618607189
dbj:__ZN15dense_hashtableI10KeyWrapperIPK17Il2CppGenericInstES4_N6il2cpp8metadata21Il2CppGenericInstHashEN14dense_hash_setIS4_S7_NS4_14EqualsComparerINS6_24Il2CppGenericInstCompareEEENSt3__29allocatorIS4_EEE8IdentityESB_SE_E6insertERKS4_
qjj:__ZN15dense_hashtableINSt3__24pairIK10KeyWrapperINS1_IPK14Il2CppAssemblyP11Il2CppClassEEEjEES9_17ReflectionMapHashIS8_EN14dense_hash_mapIS9_jSD_NS9_14EqualsComparerINS0_8equal_toIS8_EEEENS0_9allocatorISB_EEE9SelectKeyESI_SK_E3endEv
wVf:_NativeEventCalls_ResetEvent_internal_m885886540
jxe:_MonoEnumInfo_get_enum_info_m1661176095
sQi:_GUIUtility_CheckOnGUI_m3924092168
Jva:__ZN14DataBufferGLES12RecordUpdateEv
zZd:_InternalEnumerator_1_get_Current_m1481634550_gshared
ePc:__ZN20TextRenderingPrivate15DynamicFontData28GetFaceForFontRefFromOSFontsERKNS_7FontRefE
Gqe:_Context_ClearKeyInfo_m1155154290
Zkg:_Ray_GetPoint_m1852405345
hEj:__ZN6il2cpp2vm12GenericClass12SetupMethodsEP11Il2CppClass
pob:__ZNK20LocalFileSystemPosix18GetApplicationPathEv
UUg:_List_1_set_Item_m658432263_gshared
JGb:__ZN9Scripting30IsSystemCollectionsGenericListE17ScriptingClassPtr
m2:__ZN21ScalableBufferManager20GetHeightScaleFactorEv
axg:_Dictionary_2_Add_m1279427033_gshared
pUc:__ZN2UI23InitializeCanvasManagerEv
qRa:__ZN10GameObject16CheckConsistencyEv
C8c:_PointerInputModule_GetMousePointerEventData_m4273240034
f8b:__ZN14RenderSettings15InitializeClassEv
zad:_AspectRatioFitter_set_aspectMode_m4140288987
_jc:__Z46Register_UnityEngine_GameObject_get_activeSelfv
Oya:__ZL35stbir__resample_horizontal_upsampleP11stbir__infoPf
Ymh:__Z82RuntimeInvoker_RuntimeObject_RaycastResult_t3360306849_RuntimeObject_RuntimeObjectPFvvEPK10MethodInfoPvPS4_
Duh:_Enumerator__ctor_m3419056812_AdjustorThunk
a3d:_InternalEnumerator_1_System_Collections_IEnumerator_get_Current_m1299775605_gshared
cwb:__Z18Transfer_BlittableI24GenerateTypeTreeTransferLb0E10ColorRGBAfEvRK29SerializationCommandArgumentsR31RuntimeSerializationCommandInfo
Mdb:__ZN14SpriteRenderer13GetRenderDataEv
yyg:_DefaultComparer_Equals_m1713730345_gshared
lYj:dynCall_iifii
WSc:__ZN2UI16GetCanvasManagerEv
Oec:__ZN15GUIEventManager8PopEventER10InputEvent
nkc:__Z31RectOffset_Get_Custom_PropRightP12Il2CppObject
uRc:__Z54Register_UnityEngine_TextGenerator_GetVerticesInternalv
qrf:__Z3BoxP11Il2CppClassPv
ggg:_Input_get_touchSupported_m1480684970
nid:_GridLayoutGroup_SetLayoutVertical_m2106427802
Aig:_MonoBehaviour_StartCoroutine_m3411253000
AGa:__ZN21UniformBufferTFMethodD2Ev
A2d:_InternalEnumerator_1_System_Collections_IEnumerator_get_Current_m1096730143_AdjustorThunk
Tgc:__ZL34GetComponentsImplementationRecurseILb1ELi1ELi2EEbR10GameObjectbRK17CompareParametersRK39GetComponentsImplementation_ReturnValue
tza:__ZN6prcoreL12RemapGenericI15TexFormatRGB56515TexFormatRGB888EEvPKNS_9InnerInfoE
UOj:__ZN6il2cpp5utils10MemoryPool9AddRegionEj
khd:_Graphic_get_workerMesh_m997382591
Toc:__Z38PlayableHandle_CUSTOM_IsValid_InjectedP9HPlayable
Bvj:__ZNSt3__214__split_bufferIP12Il2CppThreadRN6il2cpp2gc9AllocatorIS2_EEED2Ev
yWe:_Array_System_Collections_IList_RemoveAt_m41405158
pch:__Z64RuntimeInvoker_Boolean_t97287965_RuntimeObject_Int64_t3736567304PFvvEPK10MethodInfoPvPS4_
jcd:_CanvasUpdateRegistry_IsRebuildingLayout_m3530790142
yVc:__Z41CanvasGroup_Get_Custom_PropBlocksRaycastsP12Il2CppObject
RJj:__ZN6il2cpp2os11Environment17GetProcessorCountEv
Wha:__ZNSt3__26vectorIN9ShaderLab26SerializedShaderDependencyENS_9allocatorIS2_EEE8__appendEj
kba:__ZN32TransformHierarchyChangeDispatch26DispatchSelfAndAllChildrenE15TransformAccessNS_12InterestTypeE
GQ:__Z46Register_UnityEngine_AudioSource_get_isPlayingv
WZc:__ZN11UnityEngine15PlatformWrapper21GetVRDeviceMirrorModeEv
a6c:_EventSystem_OnEnable_m3237278246
tca:__ZN13RuntimeStaticI22VirtualJoystickManagerLb0EE13StaticDestroyEPv
UQe:_Interpreter_Balance_m1978770534
MH:__ZN13AudioListener12ApplyFiltersEv
aVg:_List_1_System_Collections_IList_Contains_m353431064_gshared
j1i:_AudioConfigurationChangeHandler_BeginInvoke_m4104069447
BQj:__ZN6il2cpp8metadata27Il2CppGenericContextCompare7CompareEPK20Il2CppGenericContextS4_
XYj:dynCall_viiii
_6e:_CompareInfo_IsPrefix_m796715920
S6i:__ZNK15dense_hashtableINSt3__24pairIK10KeyWrapperIPK22Il2CppGenericParameterEP11Il2CppClassEES6_N6il2cpp5utils11PointerHashIS4_EEN14dense_hash_mapIS6_S9_SE_NS6_14EqualsComparerINS0_8equal_toIS5_EEEENS0_9allocatorISA_EEE9SelectKeyESJ_SL_E23find_position_with_hashERS7_j
Jje:_PrimalityTest_Invoke_m2948246884
YOb:__Z11CopyTextureP7TextureiiS0_ii
PXd:_ArrayReadOnlyList_1_Contains_m2459654648_gshared
doi:__ZL65EventTrigger_t1076084509_CustomAttributesCacheGenerator_delegatesP21CustomAttributesCache
Rqj:__ZNSt3__214__split_bufferIN6il2cpp2vm17TypeNameParseInfoERNS_9allocatorIS3_EEED2Ev
dUg:_List_1_System_Collections_IList_Contains_m3717811284_gshared
snd:_MonoEvent_get_Attributes_m3048829315
jfa:__ZN15DirectorManager14ConnectionPool16GrowEmptyBucketsEv
K2e:_CaseInsensitiveHashCodeProvider_AreEqual_m3534448780
kZ:__ZN17PersistentManager32CopyToAwakeFromLoadQueueInternalER18AwakeFromLoadQueue
Wac:__ZN10GameObject15InitializeClassEv
A6g:__Z104RuntimeInvoker_Boolean_t97287965_Int32_t2950945753_Int64U5BU5DU26_t194432655_StringU5BU5DU26_t2154486980PFvvEPK10MethodInfoPvPS4_
D5g:__Z106RuntimeInvoker_RuntimeObject_Int16_t2552820387_RuntimeObject_BooleanU26_t4125257963_BooleanU26_t4125257963PFvvEPK10MethodInfoPvPS4_
EOb:__ZNK6Camera16SetActiveVRUsageEv
jRd:_Scrollbar_set_handleRect_m1170237786
Hxc:__ZL26Transfer_SimpleNativeClassI8JSONRead8GradientLb1EEvRK29SerializationCommandArgumentsR31RuntimeSerializationCommandInfo
MTj:_open
PCi:_X509CrlEntry_get_SerialNumber_m3627212772
Ube:_Enumerator_System_Collections_IEnumerator_get_Current_m2770307259_gshared
c0b:__Z30GetPlayerShouldRunInBackgroundv
JUc:__Z13RegisterClassIN2UI6CanvasEEvv
whg:_Mathf__cctor_m1175545152
znd:_MonoEvent_IsDefined_m10931749
_Ie:_NameValueCollection_AsSingleString_m3776180906
nza:__ZN6prcoreL12RemapGenericI11TexFormatI815TexFormatRGB565EEvPKNS_9InnerInfoE
qcf:_Int32_System_IConvertible_ToInt64_m3520470966
Qua:__ZNK13TranslateGLES17FramebufferTargetEN2gl17FramebufferTargetE
OGj:__ZL11on_gc_event11GCEventType
u3d:_InternalEnumerator_1_System_Collections_IEnumerator_get_Current_m1612699335_gshared
ype:_TlsServerHello__ctor_m3887266572
ucg:_Coroutine_ReleaseCoroutine_m809189848
V0j:b62
X$j:b61
W$j:b60
o1j:b67
n1j:b66
m1j:b65
A2j:b69
z2j:b68
sEi:_Enumerator_get_Current_m359737019
nUa:__ZNSt3__26__treeINS_12__value_typeIi17ShadowCachingDataEENS_19__map_value_compareIiS3_NS_4lessIiEELb1EEE13stl_allocatorIS3_L18MemLabelIdentifier66ELi16EEE7destroyEPNS_11__tree_nodeIS3_PvEE
NYe:_BitConverter_ToInt64_m349022421
dfc:__Z9SetIIMGUIP6IIMGUI
oQg:_List_1_System_Collections_IList_Add_m1142950911_gshared
Teh:__Z68RuntimeInvoker_Boolean_t97287965_Double_t594665363_Double_t594665363PFvvEPK10MethodInfoPvPS4_
SIc:_tt_cmap10_get_info
qJb:__Z28SetupPixelCorrectCoordinatesi
_cc:__ZNSt3__218__insertion_sort_3IRN10vector_mapIiiNS_4lessIiEE13stl_allocatorINS_4pairIiiEEL18MemLabelIdentifier1ELi16EEE13value_compareEPS6_EEvT0_SD_T_
jva:__Z5SplitRKN4core12basic_stringIcNS_20StringStorageDefaultIcEEEEcRNSt3__26vectorIS3_NS6_9allocatorIS3_EEEEi
M7f:_PKCS1_Sign_v15_m2719206817
tTi:_AesTransform__ctor_m3143546745
Puf:_Array_InternalArray__ICollection_Remove_TisRuntimeObject_m2110193223_gshared
vli:__ZL64EventType_t3528516131_CustomAttributesCacheGenerator_scrollWheelP21CustomAttributesCache
s7:__ZN24GenerateTypeTreeTransfer10SetVersionEi
jig:_Mesh_SetTangents_m1615111656
zcc:__ZN13PlayableGraph16DestroyRecursiveEP8Playable
jxj:__ZN6il2cpp2vm9Exception20GetArgumentExceptionERKNS_5utils10StringViewIDsEES6_
UVg:_Enumerator_System_Collections_IEnumerator_Reset_m1487823313_AdjustorThunk
Kxd:_MethodCallDictionary__cctor_m2213329406
XH:__ZN12AudioManagerD0Ev
HJd:_InputField_set_textComponent_m2547304131
Vb:invoke_viiififii
$2f:_SortKeyBuffer_Initialize_m3786111493
bwa:__ZN10Matrix3x3faSERK10Matrix4x4f
Qvi:__ZL58IVertexModifier_t3404627876_CustomAttributesCacheGeneratorP21CustomAttributesCache
Ifb:__ZNK22GenericPropertyBinding13SetFloatValueERKN11UnityEngine9Animation10BoundCurveEf
HRf:_Encoding__cctor_m1936558127
dSg:_List_1__ctor_m163821521_gshared
CId:_MD5_Create_m3289886172
Lmf:_X509Certificate_get_Subject_m2638144878
BPc:_raccess_guess_darwin_ufs_export
Y9f:_AsyncOperation_Finalize_m1841265672
yMb:__ZN11TypeManager18InitializeAllTypesEv
iJd:_InputField_MarkGeometryAsDirty_m817808086
DNd:_LayoutGroup_get_isRootLayoutGroup_m1082645254
RF:__ZN9AudioClipD0Ev
$rj:_il2cpp_class_from_name
WXb:__ZN13dynamic_arrayI11ActiveLightLj4EE26emplace_back_uninitializedEv
oQd:_RectMask2D_OnDisable_m809267607
wWg:_Queue_1__ctor_m1971992302_gshared
b5b:__Z13RegisterClassI8GUILayerEvv
c3b:__ZN25ThreadsafeLinearAllocatorC2EiiPKc
Ohg:_Mesh_GetIndicesImpl_m3233954035
Hxe:_MonoType_GetEvent_m28975240
ZCa:__ZN14GfxContextGLES11MakeCurrentER7ApiGLESN2gl13ContextHandleE
Doh:_Array_InternalArray__set_Item_TisUInt16_t2177724958_m1951465847_gshared
Cgf:_MonoIO_Write_m3999708352
m_j:dynCall_viffffi
X6b:__ZZL31RegisterRectTransformPropertiesR22GenericPropertyBindingEN32Wrapper_RectTransformSizeDeltay113SetFloatValueEPvf
NAf:_Array_InternalArray__ICollection_CopyTo_TisChar_t3634460470_m3599063464_gshared
vUf:_UTF7Encoding_InternalGetChars_m2722395139
wFf:_DateTime_get_Today_m2788644320
FKb:__ZN16GraphicsSettings22WarmupPreloadedShadersEv
MWc:__Z34Canvas_Set_Custom_PropSortingOrderP12Il2CppObjecti
hFd:_SByte_System_IConvertible_ToSingle_m1083054891
dEi:_CostDelegate_Invoke_m898648402
oUf:_UTF7Encoding_Equals_m227704363
Ldg:_DisplaysUpdatedDelegate_Invoke_m3203573844
AEb:__ZN18StreamedBinaryReadILb0EE8TransferI13dynamic_arrayI12PropertyNameLj4EEEEvRT_PKc17TransferMetaFlags
Mma:__ZN9ShaderLab4Pass6RetainEv
d7f:_KeyPairPersistence_get_ContainerName_m4274536094
dw:__ZN7mecanim9animation22CopyAnimationNodeStateEPKNS0_18AnimationNodeStateEPS1_bbRKNS_6bitsetILj83EEE
Beb:__Z10AddGUIAxesR13dynamic_arrayI9InputAxisLj4EE
bb:invoke_iiiiiiffiiiiiiiiiffffiii
Zlg:_Rect_op_Equality_m3986168348
W5i:_CustomEventData_Add_m3128590933
Vae:_Enumerator_System_Collections_IDictionaryEnumerator_get_Key_m4039922590_AdjustorThunk
_Rc:__ZN2UI6Canvas8TransferI14SafeBinaryReadEEvRT_
j6f:_BitConverterLE_ULongFromBytes_m1677445591
Rbe:_Enumerator_get_Current_m35296194_AdjustorThunk
Ckj:__ZN6il2cpp2gc19AppendOnlyGCHashMapIPK10Il2CppTypeP20Il2CppReflectionTypeNS_8metadata14Il2CppTypeHashENS7_26Il2CppTypeEqualityComparerEE3AddERKS4_S6_
yR:__ZN11UnityEngine15CloudWebService17CloudJobScheduler11ScheduleJobEPFvPvES2_
x3f:_SimpleCollator_IsSuffix_m1291687763
IS:__ZN11UnityEngine15CloudWebService17CloudServiceEvent12ToJsonStringER9JSONWrite
Yoe:_TlsClientHello__ctor_m1986768336
_od:_MonoProperty_GetCustomAttributes_m2723308902
Yca:__ZNK18VertexChannelsInfoltERKS_
n7g:__Z89RuntimeInvoker_Boolean_t97287965_Int32_t2950945753_Int32U26_t1369213839_Int32_t2950945753PFvvEPK10MethodInfoPvPS4_
I_e:_Char_System_IConvertible_ToType_m4138905176_AdjustorThunk
Gtc:__ZN9JSONWrite8TransferIfEEvRT_PKc17TransferMetaFlags
qMf:_DBNull_System_IConvertible_ToUInt16_m643477279
NPa:__ZN10MemoryFileD0Ev
Igc:__ZN10MonoScript27InitializeAndRegisterScriptERKN4core12basic_stringIcNS0_20StringStorageDefaultIcEEEES6_S6_S6_b
j5i:_Analytics_GetUnityAnalyticsHandler_m2772482435
$Fj:__ZN6il2cpp2os10ThreadImpl22SetNativeThreadCleanupEPFvPvE
JLf:_DateTimeOffset__cctor_m3610253033
u6e:_NumberFormatInfo_get_InvariantInfo_m349577018
n_e:_Byte_CompareTo_m4285128861_AdjustorThunk
pud:_ConfigHandler_ExtractAssembly_m2143791058
lCj:__ZN6il2cpp8metadataL24RecursiveGenericDepthForEPK17Il2CppGenericInst
kqg:_Transform_GetChild_m1092972975
csb:__ZN13GUIStyleState8TransferI14SafeBinaryReadEEvRT_
Rd:_glDrawArrays
g1i:_AudioSource_get_clip_m1234340632
Qqd:_ResourceCacheItem_t51292791_marshal_pinvoke_back
jXc:__Z46Register_UnityEngine_Canvas_set_sortingLayerIDv
dE:__ZN23AnimatedPropertyBuilder5BuildEP13AnimationClip18ScriptingObjectPtr
zbb:__ZN14BlendShapeData8TransferI18StreamedBinaryReadILb0EEEEvRT_
DKc:_Round_To_Grid
uJc:_UNITY_FT_Stream_Close
s6c:_EventTrigger_OnPointerClick_m1385968891
X$f:_UInt32_ToString_m4293943134_AdjustorThunk
ung:_Renderer_get_sortingLayerID_m3902855301
aSe:_Interval_CompareTo_m3282557545_AdjustorThunk
X7d:_Comparer_1__cctor_m1018589532_gshared
p6g:__Z54RuntimeInvoker_TimeSpan_t881159249_TimeSpan_t881159249PFvvEPK10MethodInfoPvPS4_
Bga:__ZL20FormatOrderedProcessPKcP17FormatOrderedDataPc
mBf:_Array_InternalArray__ICollection_CopyTo_TisResourceCacheItem_t51292791_m766230259_gshared
Vsf:_Decoder_set_Fallback_m3834517714
vjc:__Z35DebugLogHandler_CUSTOM_Internal_Log7LogTypeP12Il2CppStringP12Il2CppObject
rui:__ZL76CanvasScaler_t2767979955_CustomAttributesCacheGenerator_m_MatchWidthOrHeightP21CustomAttributesCache
g1j:_emscripten_glShaderBinary__wrapper
gCa:__ZL17ProgramUniform3ivPK7ApiGLESjiihPKv
g0e:_ArrayList_Shift_m395607654
Oqa:__ZN9GfxDevice25GetBackBufferColorSurfaceEv
eQa:__ZN25SingleBlockMemoryFileData9SetLengthEy
ldc:__Z29AwakeAndActivateClonedObjectsPP6ObjectRK10vector_mapIiiNSt3__24lessIiEE13stl_allocatorINS3_4pairIiiEEL18MemLabelIdentifier1ELi16EEE
rpj:__ZN15dense_hashtableINSt3__24pairIK10KeyWrapperINS1_IPK10MethodInfoP11Il2CppClassEEEjEES9_17ReflectionMapHashIS8_EN14dense_hash_mapIS9_jSD_NS9_14EqualsComparerINS0_8equal_toIS8_EEEENS0_9allocatorISB_EEE9SelectKeyESI_SK_E14squash_deletedEv
J6f:_KeyGeneratedEventHandler_Invoke_m4131555809
U3b:__Z13RegisterClassI6ShaderEvv
ssf:_String_CharCopyReverse_m1548661297
n4c:__ZN13RuntimeStaticI11WindManagerLb0EE13StaticDestroyEPv
$uc:__Z18Transfer_BlittableI9JSONWriteLb1EaEvRK29SerializationCommandArgumentsR31RuntimeSerializationCommandInfo
mpj:__ZN13Il2CppHashMapINSt3__24pairIPK10MethodInfoP11Il2CppClassEEj17ReflectionMapHashIS7_ENS0_8equal_toIS7_EENS0_9allocatorINS1_IK10KeyWrapperIS7_EjEEEEEC2EjRKS9_RKSB_
tSb:__ZN11HaloManager11HasAnyHalosEPK11CullResults
G9a:__ZN9Texture3D23VirtualRedirectTransferER19StreamedBinaryWriteILb0EE
mtc:__ZN5Unity9rapidjson8internal8PrettifyEPcii
tP:__Z13RegisterClassI10SampleClipEvv
k6g:__Z81RuntimeInvoker_Void_t1185182177_Int32_t2950945753_Int32_t2950945753_RuntimeObjectPFvvEPK10MethodInfoPvPS4_
kVb:__ZNK23ForwardShaderRenderLoop18RenderObjectSorterILb1EEclERK21ForwardRenderPassDataS4_
A2e:_CaseInsensitiveComparer__ctor_m1508720200
Jcj:__ZN15dense_hashtableI10KeyWrapperIPK19Il2CppGenericMethodES4_N6il2cpp8metadata23Il2CppGenericMethodHashEN14dense_hash_setIS4_S7_NS4_14EqualsComparerINS6_26Il2CppGenericMethodCompareEEENSt3__29allocatorIS4_EEE8IdentityESB_SE_E12maybe_shrinkEv
uHa:__ZN10BufferGLES10BeginWriteEjj
Hcj:__ZNK15dense_hashtableI10KeyWrapperIPK19Il2CppGenericMethodES4_N6il2cpp8metadata23Il2CppGenericMethodHashEN14dense_hash_setIS4_S7_NS4_14EqualsComparerINS6_26Il2CppGenericMethodCompareEEENSt3__29allocatorIS4_EEE8IdentityESB_SE_E12test_deletedEj
sB:__ZN7mecanim12statemachine18StateMachineMemory8TransferI9BlobWriteEEvRT_
CQa:__ZN20ArchiveStorageReader10InitializeER15FileSystemEntryyb
stj:__GLOBAL__sub_I_ArrayMetadata_cpp
tHa:__ZN7ApiGLES11FlushBufferEjN2gl12BufferTargetEll
NIc:_tt_cmap12_char_map_binary
_sb:__ZN14SafeBinaryRead21TransferSTLStyleArrayI13dynamic_arrayI8BitFieldLj4EEEEvRT_17TransferMetaFlags
HDa:__ZN12_GLOBAL__N_127PrepareReadback_ResolveMSAAER18GfxFramebufferGLESR7ApiGLESP17RenderSurfaceGLESS5_
L9b:__ZNK24RendererAnimationBinding9BindValueER6ObjectRKN11UnityEngine9Animation14GenericBindingERNS3_10BoundCurveE
Okd:_TypeBuilder_has_ctor_method_m2987175843
Re:_glBindBuffer
lEb:__ZN8GUIStyle8TransferI18StreamedBinaryReadILb0EEEEvRT_
B$d:_InternalEnumerator_1_get_Current_m3500427238_gshared
Hda:__ZNSt3__213__stable_sortIRN10vector_mapIijNS_4lessIiEENS_9allocatorINS_4pairIijEEEEE13value_compareENS_11__wrap_iterIPS6_EEEEvT0_SE_T_NS_15iterator_traitsISE_E15difference_typeEPNSH_10value_typeEi
Bgb:__ZN10VRSettings8Daydream8TransferI18StreamedBinaryReadILb0EEEEvRT_
KXa:__ZNSt3__218__insertion_sort_3IRNS_6__lessIN4core12basic_stringIcNS2_20StringStorageDefaultIcEEEES6_EEPS6_EEvT0_SA_T_
ctg:_ValueCollection_System_Collections_Generic_ICollectionU3CTValueU3E_Remove_m1748672125_gshared
U0a:__ZNSt3__26__treeINS_12__value_typeIN9ShaderLab16FastPropertyNameEN18UnityPropertySheet11UnityTexEnvEEENS_19__map_value_compareIS3_S6_NS_4lessIS3_EELb1EEENS_9allocatorIS6_EEE7destroyEPNS_11__tree_nodeIS6_PvEE
LGh:_ReadOnlyCollection_1_System_Collections_IList_Clear_m108858531_gshared
E1g:__Z102RuntimeInvoker_RuntimeObject_Int32_t2950945753_RuntimeObject_RuntimeObject_RuntimeObject_RuntimeObjectPFvvEPK10MethodInfoPvPS4_
uSi:_GUIUtility_set_guiIsExiting_m1558910088
Toe:_Context_Clear_m2678836033
CEe:_DerivedType_IsDefined_m3906894566
Xdj:__ZN6il2cpp2vm13MetadataCache24GetExportedTypeFromIndexEi
Eih:__Z54RuntimeInvoker_Void_t1185182177_RaycastHit_t1056001966PFvvEPK10MethodInfoPvPS4_
htc:__ZN5Unity9rapidjson6WriterI16TempBufferWriterNS0_4UTF8IcEES4_13JSONAllocatorE9WriteUintEj
AVj:_getuid
kE:__ZN7mecanim5human8BoneNameEj
H5b:__Z13RegisterClassI10MonoScriptEvv
Ehg:_Matrix4x4_GetColumn_m461504848_AdjustorThunk
wbf:_Int16_System_IConvertible_ToUInt64_m134975563_AdjustorThunk
k9f:_AnimationCurve__ctor_m1565662948
TNc:__ZN20TextRenderingPrivate8FontImpl8TransferI18StreamedBinaryReadILb0EEEEvRT_
zTd:_ScrollRect_UpdateScrollbarVisibility_m4226977273
DVj:_rmdir
jgj:__ZN6il2cpp6icalls8mscorlib6System8MonoType22get_IsGenericParameterEP20Il2CppReflectionType
Mu:__ZN7mecanim5human14HumanPoseClearERNS0_9HumanPoseE
O8f:_SymmetricTransform_TransformFinalBlock_m4059448527
VIf:_Convert_ToUInt16_m3216249716
q1a:__ZN18StreamedBinaryReadILb0EE19TransferSTLStyleMapINSt3__23mapIN9ShaderLab16FastPropertyNameE10ColorRGBAfNS2_4lessIS5_EENS2_9allocatorINS2_4pairIKS5_S6_EEEEEEEEvRT_17TransferMetaFlags
Ota:__ZN13GfxDeviceGLES24DrawBufferRangesPlatformEP9GfxBufferiPK18VertexStreamSourceiPK16DrawBuffersRangeiP17VertexDeclaration17ShaderChannelMaskjb
Euh:_Enumerator_System_Collections_IEnumerator_Reset_m4269083576_gshared
nzd:_SoapServices_EncodeNs_m635167772
W$b:__ZN13RenderManager28AreCamerasUsingMotionVectorsEv
Jca:__Z25InitializeLODGroupManagerPv
yEi:_Mark_get_IsDefined_m2539660708
eta:__ZN13GfxDeviceGLES12EndStereoEyeE15StereoscopicEye
qFd:_SByte_System_IConvertible_ToUInt64_m4151910932_AdjustorThunk
sPb:__ZNK12ImageFilters28ApplyAfterTransparentFiltersEv
zfg:_GameObject__ctor_m3707688467
lUb:__Z20CalculateLightMatrixRK15SharedLightDataP10Matrix4x4f
U$c:__ZN11UnityEngine7Connect15AppRunningEvent12ToJsonStringER9JSONWrite
V1a:__ZN19ShaderPropertySheet5ClearEb
Bjf:_RSA_Create_m4065275734
ckd:_PropertyBuilder_GetValue_m3592513194
O7e:_CultureInfo_GetCultureInfo_m630276874
SPb:__ZNK6Camera11GetPositionEv
ht:__ZN8Animator19CreatePlayableGraphEv
J6c:_ExecuteEvents_Execute_m3952332304
P4j:_emscripten_glClearDepth__wrapper
Sob:__ZNK16MemoryFileSystem8FilenameERK13FileEntryData
Vf:_glUniform1fv
Zf:_JS_FileSystem_Sync
KEa:__ZNSt3__26__treeINS_12__value_typeI21GLESRenderTargetSetupN2gl6HandleILNS3_10ObjectTypeE9EEEEENS_19__map_value_compareIS2_S7_NS_4lessIS2_EELb1EEENS_9allocatorIS7_EEE7destroyEPNS_11__tree_nodeIS7_PvEE
y7f:_KeyPairPersistence__IsUserProtected_m438961964
Dxa:__ZN4crnd11crnd_deleteINS_13prefix_coding14decoder_tablesEEEvPT_
_9d:_Enumerator_System_Collections_IDictionaryEnumerator_get_Value_m512771145_AdjustorThunk
Krf:_String_Replace_m1273907647
pAd:_RealProxy_InternalGetProxyType_m2154819545
LDa:__ZN4gles15BlitFramebufferERNS_23BlitFramebufferDrawQuadER9GfxDeviceii9TextureIDiiiiiiii
rAe:_NumberFormatter_NumberToString_m827252518
Xf:__emscripten_sample_gamepad_data
O3b:__Z22DelayedDestroyCallbackP6ObjectPv
BAi:_PKCS12_set_Password_m4088935795
G$g:__Z96RuntimeInvoker_Void_t1185182177_SByte_t1669577662_ByteU5BU5DU26_t4057885439_Int32U26_t1369213839PFvvEPK10MethodInfoPvPS4_
CHg:_Enumerator_System_Collections_IEnumerator_get_Current_m1643543708_AdjustorThunk
AAi:_PKCS12__ctor_m2471257156
Yag:_Camera_get_nearClipPlane_m837839537
f0:__Z34scripting_class_get_declaring_type17ScriptingClassPtr
e0c:__ZN11UnityEngine7Connect20BasePersistentValues13RestoreValuesER8JSONRead
Oeb:__ZN11TimeManagerD0Ev
zQi:_GUIUtility_Internal_GetGUIDepth_m1169824684
RL:__ZN12AudioManager33GetAudioEffectInternalDefinitionsEv
n4a:__ZN9Texture2D16DeleteGfxTextureEv
Mnb:__ZN20LocalFileSystemPosix4OpenER13FileEntryData14FilePermission16FileAutoBehavior
WKd:_InputField_GetUnclampedCharacterLineFromPosition_m2611553547
goj:__ZN6il2cpp2gc19AppendOnlyGCHashMapIPK10Il2CppTypeP20Il2CppReflectionTypeNS_8metadata14Il2CppTypeHashENS7_26Il2CppTypeEqualityComparerEEC2Ev
ICe:_CustomAttributeData_GetCustomAttributes_m2141595938
Qbj:__ZN15dense_hashtableINSt3__24pairIK10KeyWrapperIN6il2cpp5utils13dynamic_arrayIPK10Il2CppTypeLj4EEEEPFvvEEESA_NS3_8metadata19Il2CppSignatureHashEN14dense_hash_mapISA_SD_SG_NSA_14EqualsComparerINSF_22Il2CppSignatureCompareEEENS0_9allocatorISE_EEE9SelectKeyESK_SM_ED2Ev
NRc:__ZN2UI6Canvas12AddToManagerEv
THc:_UNITY_tt_face_load_sbit
xdd:_ColorTweenCallback__ctor_m2236520273
Mxe:_MonoType_GetMethodsByName_m2005909471
eEc:_cf2_hint_isTop
Y_b:__ZN23ManagedAttributeManager21GetRequiredComponentsE17ScriptingClassPtr
Hyi:_TlsCipherSuite_ComputeServerRecordMAC_m3941098609
ydd:_ColorTween_AddOnChangedCallback_m3959760640_AdjustorThunk
Szd:_RemotingServices_Unmarshal_m3744595373
PFh:_ReadOnlyCollection_1_System_Collections_IList_get_Item_m2174806213_gshared
R0b:__Z23InitializeStdConvertersv
nUb:__ZN19ShaderPropertySheet17UpdateTextureInfoEiRK23FastTexturePropertyNamePK10TextureRef
WBd:_ObjectRecord_SetMemberValue_m1045887821
hHc:_ps_unicodes_init
m5i:_Analytics_CustomEvent_m692224174
hue:_StreamWriter_Write_m2487601391
N9b:__ZN13ProduceHelperI14PlayerSettingsLb0EE7ProduceE10MemLabelId18ObjectCreationMode
ZMb:__ZZ23InitPlayerLoopCallbacksvEN38PreUpdateCheckTexFieldInputRegistrator7ForwardEv
uAj:__ZNK10KeyWrapperINSt3__24pairIPKcS3_EEE14EqualsComparerI26NamespaceAndNamePairEqualsEclERKS5_SA_
Tld:_FieldInfo_get_IsLiteral_m534699794
hda:__Z34CleanupIntermediateRendererManagerPv
A9e:_RegionInfo_get_CurrencyNativeName_m2071178612
LVf:_Monitor_Pulse_m82725344
A7e:_CultureInfo_get_NumberFormat_m1244033732
Sgf:_FileStream_Dispose_m2599766137
pbg:_Camera_FireOnPreCull_m2869588437
lh:_JS_WebRequest_GetResponseHeaders
OHb:__ZNSt3__26__treeINS_12__value_typeI26SerializedObjectIdentifieriEENS_19__map_value_compareIS2_S3_NS_4lessIS2_EELb1EEENS_9allocatorIS3_EEE7destroyEPNS_11__tree_nodeIS3_PvEE
RGc:_otv_Script_validate
h4b:__ZN9Scripting18RaiseNullExceptionEPKcz
zfa:__ZN13RuntimeStaticI13RendererSceneLb0EE16StaticInitializeEPv
wh:_glCreateProgram
Tnj:__ZN6il2cpp2vm10Reflection7IsFieldEP12Il2CppObject
wRd:_Scrollbar_set_numberOfSteps_m3603299569
taf:_Guid_Compare_m231009821
LSa:__ZN24GenerateTypeTreeTransfer32TransferSTLStyleArrayWithElementI17SortingLayerEntryEEvRT_17TransferMetaFlags
m0j:_glUniformMatrix3fv__wrapper
ntf:_Array_Exists_TisRuntimeObject_m3896745628_gshared
SId:_Text_set_horizontalOverflow_m2473787109
RAb:__Z18Transfer_BlittableI18StreamedBinaryReadILb1EELb1E12PropertyNameEvRK29SerializationCommandArgumentsR31RuntimeSerializationCommandInfo
Ooj:__ZN15dense_hashtableINSt3__24pairIK10KeyWrapperIPK22Il2CppGenericParameterEPK24MonoGenericParameterInfoEES6_N6il2cpp5utils11PointerHashIS4_EEN14dense_hash_mapIS6_SA_SF_NS6_14EqualsComparerINS0_8equal_toIS5_EEEENS0_9allocatorISB_EEE9SelectKeyESK_SM_EC2ERKSP_j
HNj:_GC_general_register_disappearing_link
X9:__ZN23TransformChangeDispatch12CleanupClassEPv
Vfc:__ZN8UserList11SendMessageERK17MessageIdentifier
DWc:__Z33Canvas_Get_Custom_PropScaleFactorP12Il2CppObject
OC:__ZNK26AnimatorControllerPlayable21GetStateMachineMemoryEi
mXa:__ZN17CollisionMeshData20VertexDataHasChangedEv
iFi:_PatternCompiler_Emit_m604664654
Cuf:_Array_InternalArray__ICollection_Remove_TisKeyValuePair_2_t3842366416_m278128148_gshared
rTa:__ZNK6Camera16GetTargetTextureEv
osh:_Component_GetComponentsInChildren_TisRuntimeObject_m35549932_gshared
x3c:__ZNK20UnityWebRequestProtoI24UnityWebRequestTransport16AtomicRefCounter14RedirectHelper14ResponseHelper15DownloadHandler13UploadHandler12HeaderHelper14AsyncOperationE17GetUploadProgressEv
frf:_String_CompareTo_m3030934538
rsb:__Z35Transfer_Blittable_SingleValueFieldI14SafeBinaryReadyEvRT_R17GeneralMonoObjectRK23StaticTransferFieldInfo
PZa:__ZN8Playable20ClearInputConnectionEi
UQb:__ZN13BatchRenderer12EndLoopFlushEv
TTe:_X509CertificateEnumerator_System_Collections_IEnumerator_Reset_m2928805663
dec:__ZNK6Sprite11GetInnerUVsE20SpriteRenderDataMode
uD:__ZN11UnityEngine9Animation28DestroyAvatarBindingConstantEPNS0_21AvatarBindingConstantERN7mecanim6memory9AllocatorE
nPe:_X509ChainElementEnumerator_System_Collections_IEnumerator_get_Current_m1913555061
vpf:_Single_System_IConvertible_ToDouble_m1584722292_AdjustorThunk
Eog:_DataUtility_INTERNAL_CALL_GetPadding_m650254139
xxb:__Z29Transfer_Blittable_ArrayFieldI24GenerateTypeTreeTransfer11ColorRGBA32EvRT_R9ArrayInfoRK23StaticTransferFieldInfo
c7b:__ZN16MessageForwarder23RegisterMessageCallbackEiPFvPviR11MessageDataEPKN5Unity4TypeE
_ke:_MD2Managed_HashFinal_m808964912
BLf:_DateTime_op_Equality_m1022058599
SWa:__ZN4Mesh30AcquireSharedMeshRenderingDataEv
Wtb:__Z35Transfer_Blittable_SingleValueFieldI14SafeBinaryReadiEvRT_R17GeneralMonoObjectRK23StaticTransferFieldInfo
ni:_emscripten_glUniform3i
Aua:__ZNK7ApiGLES10GetContextEv
Oqb:__Z18Transfer_BlittableI14SafeBinaryReadLb1E5RectTIfEEvRK29SerializationCommandArgumentsR31RuntimeSerializationCommandInfo
Q6a:__ZN15TextureSettings14SetAnisoLimitsEii
Gg:_glGetFramebufferAttachmentParameteriv
qxb:__Z19TransferField_ArrayI24GenerateTypeTreeTransfer27Converter_SimpleNativeClassI10RectOffsetEEvRK23StaticTransferFieldInfoR31RuntimeSerializationCommandInfoRT0_
B0f:_UInt64_System_IConvertible_ToUInt32_m2784653358_AdjustorThunk
YXa:__Z40ConfigureBlockRangesWithMinIndicesPerJobP10BlockRangeii
LAa:__ZN6prcoreL17RemapGenericFloatI18TexFormatARGBFloat15TexFormatRGHalfEEvPKNS_9InnerInfoE
EQi:_GUILayout_Height_m3349769634
Jpb:__ZNSt3__26vectorI4PPtrI10MonoScriptE13stl_allocatorIS3_L18MemLabelIdentifier78ELi16EEE8__appendEj
nNd:_LayoutGroup_get_flexibleWidth_m2787597997
ugg:_LayerMask_op_Implicit_m3296792737
_9b:__ZL22PrepareMeshRenderNodesILb1EEvR35RenderNodeQueuePrepareThreadContext
nob:__ZN20LocalFileSystemPosix5TouchER13FileEntryData
lwc:__ZN9JSONWrite8TransferI13dynamic_arrayItLj2EEEEvRT_PKc17TransferMetaFlags
Ei:_emscripten_glDrawElements
Yze:_NumberFormatter_AppendDecimalString_m10636623
Jag:_Bounds_get_max_m3756577669
cDc:_cf2_blues_init
WXh:__ZL59ParameterBuilder_t1137139675_CustomAttributesCacheGeneratorP21CustomAttributesCache
H1j:_glVertexAttrib4fv__wrapper
YT:__ZN11UnityEngine15CloudWebService23WebRequestUploadHandlerD2Ev
QA:__ZN9BlobWriteD2Ev
$qb:__ZL26Transfer_SimpleNativeClassI14SafeBinaryRead8GradientLb0EEvRK29SerializationCommandArgumentsR31RuntimeSerializationCommandInfo
a$g:__Z68RuntimeInvoker_Boolean_t97287965_Int32_t2950945753_SByte_t1669577662PFvvEPK10MethodInfoPvPS4_
EBf:_Array_InternalArray__ICollection_CopyTo_TisRaycastHit2D_t2279581989_m3542049333_gshared
HBe:_Assembly_GetExecutingAssembly_m4021024968
pKd:_InputField_ClampPos_m2625258136
H9i:__ZNK15dense_hashtableINSt3__24pairIK10KeyWrapperIPKcEP11Il2CppClassEES5_N6il2cpp5utils11StringUtils12StringHasherIS4_EEN14dense_hash_mapIS5_S8_SE_NS5_14EqualsComparerINSB_13VmStringUtils21CaseSensitiveComparerEEENS0_9allocatorIS9_EEE9SelectKeyESJ_SL_E10test_emptyEj
tCd:_MessageFormatter_ReadMethodResponse_m1946725361
u_a:__ZN13RenderTexture23VirtualRedirectTransferER18StreamedBinaryReadILb0EE
kIc:_UNITY_tt_face_lookup_table
C5c:_BaseRaycaster_ToString_m2535186737
Ssc:__ZN5Unity9rapidjson13GenericReaderINS0_4UTF8IcEES3_13JSONAllocatorE9ParseHex4INS0_25GenericInsituStringStreamIS3_EEEEjRT_
DFa:__Z17ComputeMipmapSizeiii14GraphicsFormat
KDc:_cf2_stack_pushFixed
nfd:_Dropdown_OnCancel_m1495594239
Ktj:__ZNK15dense_hashtableINSt3__24pairIK10KeyWrapperINS1_IP11Il2CppClassjEEES4_EES6_N6il2cpp8metadata14ArrayClassHashEN14dense_hash_mapIS6_S4_SB_NS6_14EqualsComparerINSA_17ArrayClassCompareEEENS0_9allocatorIS8_EEE9SelectKeyESF_SH_E3endEv
j3e:_CollectionBase_OnValidate_m1606907366
Dig:_MonoBehaviour_StopCoroutineViaEnumerator_Auto_m3883784228
XLc:_TT_Get_MM_Blend
FZ:__Z16realloc_internalPvjj10MemLabelId15AllocateOptionsPKci
rfh:__Z78RuntimeInvoker_Void_t1185182177_RuntimeObject_RuntimeObject_Single_t1397266774PFvvEPK10MethodInfoPvPS4_
VVc:__Z50CanvasRenderer_CUSTOM_CreateUIVertexStreamInternalP12Il2CppObjectS0_S0_S0_S0_S0_S0_S0_S0_S0_
Nea:__ZN14PlayableOutput15PrepareTraverseERK9FrameData
tFb:__ZL19RequireCorLibMethodPKcS0_S0_
F2:__ZNK5Unity9Component22GetTypeVirtualInternalEv
hm:_emscripten_get_fullscreen_status
yBa:__ZN6prcoreL26RemapGenericIntegerToFloatI17TexFormatARGB888817TexFormatRGBFloatEEvPKNS_9InnerInfoE
bxd:_MethodDictionary_SetMethodProperty_m3032369066
qqj:__ZN6il2cpp2vm14TypeNameParser26ParseTypeArgumentsOptionalERi
JYb:__ZN15LODGroupManager27GarbageCollectCameraLODDataEv
Neh:__Z139RuntimeInvoker_Void_t1185182177_RuntimeObject_Color32_t2600501292_Int32_t2950945753_Int32_t2950945753_Single_t1397266774_Single_t1397266774PFvvEPK10MethodInfoPvPS4_
_$b:__ZN13ScreenManagerC2Ev
wEg:_Enumerator_System_Collections_IEnumerator_Reset_m3289381690_gshared
Uw:__ZN7mecanim20ValueArrayBlendBeginILb1EEEvRNS_14ValueArrayMaskE
Gpc:__ZN12GUIClipState20CalculateMouseValuesER10InputEvent
Dwb:__Z18Transfer_BlittableI24GenerateTypeTreeTransferLb0E12PropertyNameEvRK29SerializationCommandArgumentsR31RuntimeSerializationCommandInfo
wua:__ZN7ApiGLES4InitERK14GfxContextGLESR16GfxDeviceLevelGL
FYc:__Z31CustomEventData_CUSTOM_AddSByteP12Il2CppObjectP12Il2CppStringa
K5:__ZNK11LightProbes14LightProbeData33GetLightProbeInterpolationWeightsERK8Vector3fRiR8Vector4fRf
sif:_Stream_Dispose_m2589290611
Iyd:_ReturnMessage_get_LogicalCallContext_m2352570297
ega:__ZN11TypeManager36FatalErrorOnPersistentTypeIDConflictEiPKc
cW:__ZN21UnityDefaultAllocatorI17LowLevelAllocatorED0Ev
RX:__ZN8Renderer15SetIsRenderableEb
qRh:__ZL54IEnumerator_t1853284238_CustomAttributesCacheGeneratorP21CustomAttributesCache
MBa:__Z14DecodeBC7BlockP9HDRColorAPKh
r5f:_BigInteger_op_RightShift_m2934036419
J9b:__ZNK24RendererAnimationBinding12GetPPtrValueERKN11UnityEngine9Animation10BoundCurveE
xbh:__Z95RuntimeInvoker_Boolean_t97287965_RuntimeObject_TextGenerationSettings_t1351628751_RuntimeObjectPFvvEPK10MethodInfoPvPS4_
kZe:_Boolean_System_IConvertible_ToSByte_m806999
rZe:_Boolean_System_IConvertible_ToUInt32_m2723177447_AdjustorThunk
amh:__Z84RuntimeInvoker_Boolean_t97287965_RaycastResult_t3360306849_RaycastResult_t3360306849PFvvEPK10MethodInfoPvPS4_
PNj:_GC_new_proc_inner
lc:invoke_fiiffi
p2f:_MSCompatUnicodeTable_BuildTailoringTables_m1316979344
cqb:__Z35Transfer_Blittable_FixedBufferFieldI14SafeBinaryReadiEvRK29SerializationCommandArgumentsR31RuntimeSerializationCommandInfo
xPb:__ZNK25CameraStackRenderingState21IsRenderingLastCameraEv
mAg:_EqualityComparer_1_System_Collections_IEqualityComparer_Equals_m1538289377_gshared
Yya:__ZL24stbir__filter_catmullromff
Xnf:_SecurityElement_AddChild_m1606852781
thj:__ZN6il2cpp6icalls8mscorlib6SystemL16CheckMemberMatchI9EventInfoNS_5utils10functional6FilterINSt3__212basic_stringIcNS8_11char_traitsIcEENS8_9allocatorIcEEEENS5_13VmStringUtils21CaseSensitiveComparerEEEEEbPKT_PK11Il2CppClassSN_iRKT0_
Yfh:__Z83RuntimeInvoker_Boolean_t97287965_SpriteStateU26_t2382775785_SpriteState_t1362986479PFvvEPK10MethodInfoPvPS4_
tzf:_Array_LastIndexOf_TisRuntimeObject_m1677937501_gshared
U_b:__Z23ValidateScriptComponentP10MonoScriptPN4core12basic_stringIcNS1_20StringStorageDefaultIcEEEE
zti:__ZL68Selectable_t3250028441_CustomAttributesCacheGenerator_m_InteractableP21CustomAttributesCache
Hu:__ZN7mecanim9animation12GetHumanPoseIfEEvRKNS0_18ClipMuscleConstantEPKT_RNS_5human9HumanPoseE
T8a:__ZNSt3__215__inplace_mergeIRNS_4lessI4PPtrI11SpriteAtlasEEENS_11__wrap_iterIPS4_EEEEvT0_SA_SA_T_NS_15iterator_traitsISA_E15difference_typeESE_PNSD_10value_typeEi
BAc:__ZNSt3__26__treeINS_12__value_typeIN4core12basic_stringIcNS2_20StringStorageDefaultIcEEEEiEENS_19__map_value_compareIS6_S7_NS_4lessIS6_EELb1EEE13stl_allocatorIS7_L18MemLabelIdentifier1ELi16EEE7destroyEPNS_11__tree_nodeIS7_PvEE
pWd:_Text_OnDisable_m1806889406
Cua:__ZN26SinglePassStereoSupportExt27InitSinglePassStereoSupportEP21ISinglePassStereoImplP9GfxDevice
O7c:_PointerEventData_set_button_m2912797404
UV:__ZNSt3__23mapIN19CloudServiceHandler11ServiceTypeEPS1_NS_4lessIS2_EE13stl_allocatorINS_4pairIKS2_S3_EEL18MemLabelIdentifier88ELi16EEEixERS8_
nHc:_ft_get_adobe_glyph_index
xxd:_MethodCall_get_GenericArguments_m1010093584
bQj:__ZNSt3__26__treeINS_12__value_typeINS_12basic_stringIcNS_11char_traitsIcEENS_9allocatorIcEEEEPFvvEEENS_19__map_value_compareIS7_SA_NS_4lessIS7_EELb1EEENS5_ISA_EEE25__emplace_unique_key_argsIS7_JRKNS_21piecewise_construct_tENS_5tupleIJOS7_EEENSL_IJEEEEEENS_4pairINS_15__tree_iteratorISA_PNS_11__tree_nodeISA_PvEEiEEbEERKT_DpOT0_
Zmc:__Z47Register_UnityEngine_Texture_Internal_GetHeightv
cqf:_Single_ToString_m3947131094_AdjustorThunk
ZGb:__Z25scripting_field_get_flags17ScriptingFieldPtr
u2f:_MSCompatUnicodeTable_Level3_m1870873670
MUa:__ZN12FlareManager8AddFlareENS_9OwnerTypeE
yNe:_X509ChainStatus_GetInformation_m245493206
mrg:_Vector3_Lerp_m407887542
ICh:_Collection_1__ctor_m2277581063_gshared
PEi:_MatchCollection__ctor_m4138850022
TSd:_ScrollRect_set_verticalScrollbarSpacing_m1091218920
xyc:__ZN8JSONRead8TransferIyEEvRT_PKc17TransferMetaFlagsb
B8h:__ZL79X509Chain_t194917408_CustomAttributesCacheGenerator_X509Chain_Build_m1705729171P21CustomAttributesCache
Iqb:__Z18Transfer_BlittableI14SafeBinaryReadLb0EtEvRK29SerializationCommandArgumentsR31RuntimeSerializationCommandInfo
vej:__ZN6il2cpp2vm13MetadataCache24InitializeMethodMetadataEj
VW:__ZNK20DynamicHeapAllocatorI17LowLevelAllocatorE8ContainsEPKv
XHd:_HMAC_HashFinal_m1921180827
qFf:_DateTime__ParseString_m2913931606
Cyj:__ZN6il2cpp2vm14PlatformInvoke36MarshalCppStringToCSharpStringResultEPKc
qWb:__ZN8Material23GetStencilWriteMaterialEv
iEa:__Z12GetBlockSize14GraphicsFormat
Jtf:_Array_InternalArray__ICollection_Contains_TisIntPtr_t_m272531112_gshared
wAd:_RemotingProxy_get_TypeName_m4085898624
BFe:_GenericTypeParameterBuilder_not_supported_m3358960901
KSa:__ZN10TagManager8TransferI24GenerateTypeTreeTransferEEvRT_
pyh:_Collection_1_ConvertItem_m169929357_gshared
tff:_MonoIO_GetCurrentDirectory_m762333289
w5d:_InternalEnumerator_1_System_Collections_IEnumerator_get_Current_m2164048921_gshared
Hec:__Z35AllocExtractMeshComponentFromScriptRK4Mesh30InternalScriptingShaderChannel34InternalScriptingVertexChannelTypei
Vw:__ZN7mecanim12SetValueMaskILb1EEEvPNS_14ValueArrayMaskEb
pvg:_Dictionary_2_ContainsKey_m415531417_gshared
xSa:__ZN10TagManager23VirtualRedirectTransferER24GenerateTypeTreeTransfer
jCf:_Array_InternalArray__Insert_TisCustomAttributeNamedArgument_t287865710_m3526512389_gshared
hCg:_EqualityComparer_1__cctor_m818408565_gshared
Sya:__ZL23stbir__filter_trapezoidff
zQ:__Z44Register_UnityEngine_AudioClip_get_ambisonicv
h$f:_UInt32_System_IConvertible_ToBoolean_m1763673183
FZb:__ZN23ScriptableRenderContextD2Ev
zVh:__ZL52ArrayList_t2718874744_CustomAttributesCacheGeneratorP21CustomAttributesCache
nFd:_SByte_System_IConvertible_ToUInt32_m4275534457
Fig:_MonoBehaviour_StopCoroutine_Auto_m820288890
olj:__ZN15dense_hashtableINSt3__24pairIK10KeyWrapperINS1_IPK10MethodInfoP11Il2CppClassEEEjEES9_17ReflectionMapHashIS8_EN14dense_hash_mapIS9_jSD_NS9_14EqualsComparerINS0_8equal_toIS8_EEEENS0_9allocatorISB_EEE9SelectKeyESI_SK_E15insert_noresizeERKSB_
eRc:__Z32TextGenerator_CUSTOM_Dispose_cppP12Il2CppObject
$vj:__ZN6il2cpp6icalls8mscorlib6System19ExtractWidenedValueE14Il2CppTypeEnumPv
Pkf:_SHA256Managed_HashFinal_m2914312286
ELb:__ZN12GPUFencePoolC2Ev
vNj:_GC_invoke_finalizers
Urf:_String_Format_m2556382932
Z4i:__ZL14adjustScale128PyS_i
Ali:__ZL59EventType_t3528516131_CustomAttributesCacheGenerator_ignoreP21CustomAttributesCache
Vqb:__Z18Transfer_BlittableI14SafeBinaryReadLb0E8BitFieldEvRK29SerializationCommandArgumentsR31RuntimeSerializationCommandInfo
Eth:_Array_InternalArray__get_Item_TisTimeSpan_t881159249_m1885583191_gshared
_9e:_Guid__ctor_m3421080095
O5:__ZNK10GameObject25QueryComponentByExactTypeEPKN5Unity4TypeE
SWd:_U3CGetEnumeratorU3Ec__Iterator0_System_Collections_Generic_IEnumeratorU3CTU3E_get_Current_m52354244_gshared
k4:__ZNK9ShaderLab22ShaderStencilStateDesc17ToGfxStencilStateEPK19ShaderPropertySheetS3_RK14GfxRasterStateR15GfxStencilState
wCh:_Collection_1_Remove_m2372638279_gshared
UCd:_ObjectReader_ReadType_m1663843507
gSd:_U3CClickRepeatU3Ec__Iterator0_MoveNext_m2800364313
nJc:_tt_cmap0_char_next
NBa:__Z15DecodeBC6HBlockP9HDRColorAPKh
Zag:_Camera_get_farClipPlane_m538536689
a5b:__Z13RegisterClassI10GUIElementEvv
UGd:_DSA_Create_m1220983153
CNj:_GC_malloc_uncollectable
ATe:_Array_Clone_m2672907798
Rob:__ZNK16MemoryFileSystem6ParentERK13FileEntryDataRN4core12basic_stringIcNS3_20StringStorageDefaultIcEEEE
Hue:_SynchronizedWriter_Write_m1297715977
Fgd:_Graphic_get_rectTransform_m1167152468
Lca:__ZN15LODGroupManagerD2Ev
FCd:_ObjectReader_ReadRefTypeObjectInstance_m3311150386
Bzc:__ZN8JSONRead21TransferSTLStyleArrayI13dynamic_arrayIN4math12int2_storageELj4EEEEvRT_17TransferMetaFlags
kdh:__Z115RuntimeInvoker_Boolean_t97287965_RuntimeObject_RuntimeObject_Single_t1397266774_SByte_t1669577662_Int32_t2950945753PFvvEPK10MethodInfoPvPS4_
J4f:_BigInteger_op_Multiply_m3801644593
rgg:_DefaultValueAttribute_Equals_m443523471
JPa:__ZN12IFileAdapter9SetLengthER13FileEntryDatay
pmc:__Z39SortingLayer_CUSTOM_GetLayerValueFromIDi
ie:_Mix_PlayMusic
rKf:_DateTime_System_IConvertible_ToSByte_m4130251280
Ncg:_CullingGroup_SendEvents_m2491312335
iFc:_cff_cmap_encoding_init
Q2c:__Z34GetUnityWebRequestScriptingClassesv
D$j:___cxa_pure_virtual__wrapper
tcf:_Int32_System_IConvertible_ToSByte_m3133688512_AdjustorThunk
p6f:_BlockProcessor_Finalize_m3954108481
Ylc:__Z57Register_UnityEngine_RectTransform_INTERNAL_set_sizeDeltav
Ach:__Z57RuntimeInvoker_Void_t1185182177_RaycastResult_t3360306849PFvvEPK10MethodInfoPvPS4_
Mag:_Bounds_op_Equality_m3322991400
D9c:_StandaloneInputModule_Process_m309156323
Kkj:__ZNK15dense_hashtableINSt3__24pairIK10KeyWrapperIPK10Il2CppTypeEjEES6_N6il2cpp8metadata14Il2CppTypeHashEN14dense_hash_mapIS6_jSB_NS6_14EqualsComparerINSA_26Il2CppTypeEqualityComparerEEENS0_9allocatorIS8_EEE9SelectKeyESF_SH_E12test_deletedEj
NKa:__ZN10SpookyHash7Hash128EPKvjPyS2_
aYb:__ZL60CombineDirectionalShadowCasterCullingIndexListsAndDestroyJobP20ShadowCullingJobData
C3e:_Hashtable__ctor_m3890751112
fd:_emscripten_get_now_is_monotonic
Uqg:_Vector2_ToString_m1205609053_AdjustorThunk
sGc:_otv_MarkBasePos_validate
Eka:__ZN9ShaderLab18SerializedPropertyC2ERKS0_
nCc:_cff_driver_init
Xcb:__ZN14SpriteRenderer10SmartResetEv
HWf:_ThreadPool_QueueUserWorkItem_m1526970260
KHf:_Convert_ToInt32_m3211312035
t8b:__ZN16ReflectionProbes20DidChangeActiveSceneEP10UnitySceneS1_
Rrf:_String_ToUpperInvariant_m2531236323
K7a:__ZN16SpriteRenderData8TransferI14SafeBinaryReadEEvRT_
r$j:_emscripten_glVertexAttrib3f__wrapper
IGd:_DESTransform_GetStrongKey_m1464830895
UDi:_RijndaelTransform_Encrypt192_m3191066202
p9d:_Enumerator_Reset_m1314900927_gshared
kob:__ZN20LocalFileSystemPosix4CopyER13FileEntryDataS1_
Vaj:__ZNK15dense_hashtableI10KeyWrapperIPK19Il2CppGenericMethodES4_N6il2cpp8metadata23Il2CppGenericMethodHashEN14dense_hash_setIS4_S7_NS4_14EqualsComparerINS6_26Il2CppGenericMethodCompareEEENSt3__29allocatorIS4_EEE8IdentityESB_SE_E3endEv
kWb:__ZL31SetRenderStateForStencilMarkingR9GfxDeviceR17ShaderPassContextjj
mQa:__ZN20ArchiveStorageReader20FillChunkCachedBlockEPNS_11CachedBlockE
nvg:_Dictionary_2_Add_m653869716_gshared
xif:_StreamAsyncResult__ctor_m3118856368
kLf:_DateTime_Equals_m611432332_AdjustorThunk
aN:__ZN10AudioMixer16ResumeProcessingEv
Jgd:_Graphic_OnBeforeTransformParentChanged_m4229077069
$ki:__ZL53GUIUtility_t1868551600_CustomAttributesCacheGeneratorP21CustomAttributesCache
Qsb:__ZNSt3__26vectorI17AnimationCurveTplIfE13stl_allocatorIS2_L18MemLabelIdentifier1ELi16EEE7reserveEj
Bdg:_Display_GetRenderingExtImpl_m2069813991
zUc:__ZN2UI13CanvasManager21EmitGeometryForCameraEP6Camera
b0:__Z31AudioFilterReadValidateCallback18ScriptingMethodPtr17ScriptingClassPtrP6Object
gJd:_InputField_SetDrawRangeToContainCaretPosition_m1009661083
Qla:__ZN9ShaderLab16SerializedTagMap8TransferI19StreamedBinaryWriteILb0EEEEvRT_
Vhf:_MonoIO_get_PathSeparator_m4045322458
YB:__ZN7mecanim5human30HumanPoseAdjustForMissingBonesEPKNS0_5HumanEPNS0_9HumanPoseE
OPe:_X509SubjectKeyIdentifierExtension_FromHex_m1011249985
Rwj:__ZN6il2cpp6icalls8mscorlib6System9Threading6Thread25SetCachedCurrentUICultureEP12Il2CppThreadP12Il2CppObject
iWe:_ArithmeticException__ctor_m479063094
GCd:_ObjectReader_ReadObjectInstance_m3952621118
dIc:_UNITY_FT_Bitmap_Convert
bYb:__Z22CullDirectionalShadowsR9IndexListPK9SceneNodePK4AABBR22DirectionalCullContext
lCe:_Default_BindToMethod_m490530316
Xcf:_Int32_ToString_m2507389746
$Le:_X509KeyUsageExtension_ToString_m3542316380
EDi:_RijndaelManaged__ctor_m1562735454
Hoe:_SslCipherSuite__ctor_m1470082018
vdj:__ZN15dense_hashtableINSt3__24pairIK10KeyWrapperIPK11Il2CppClassEPKcEES6_N6il2cpp5utils11PointerHashIS3_EEN14dense_hash_mapIS6_S9_SE_NS6_14EqualsComparerINS0_8equal_toIS5_EEEENS0_9allocatorISA_EEE9SelectKeyESJ_SL_E4findERS7_
xOd:_LayoutUtility_U3CGetMinHeightU3Em__4_m2382889764
V$f:_UInt32_ToString_m2574561716_AdjustorThunk
QU:__ZN11UnityEngine15CloudWebService14RestDownloader7OnAbortEv
gMj:_alloc_mark_stack
dM:__ZNK11AudioSource22GetTypeVirtualInternalEv
usa:__ZNK13GfxDeviceGLES18GetDefaultRTFormatEv
xLc:_UNITY_FT_Get_Glyph_Name
D5:__Z13VFormatBufferPciPKcPi
rxb:__Z19TransferField_ArrayI24GenerateTypeTreeTransfer27Converter_SimpleNativeClassI8GradientEEvRK23StaticTransferFieldInfoR31RuntimeSerializationCommandInfoRT0_
Gyi:_TlsCipherSuite__ctor_m3580955828
WHg:_Enumerator_System_Collections_IEnumerator_Reset_m2355925297_AdjustorThunk
hS:__ZN11UnityEngine15CloudWebService16SessionContainer16MarkAsDispatchedERKN4core12basic_stringIcNS2_20StringStorageDefaultIcEEEE
yZd:_InternalEnumerator_1_System_Collections_IEnumerator_get_Current_m2667908392_gshared
lRb:__Z16CopyActiveLightsRK12ActiveLightsRS_
dpc:__ZN16memory_pool_implILi28EE15AutoPoolWrapper10InitializeEPv
zNg:_List_1_System_Collections_IList_IndexOf_m3921550135_gshared
gvf:_Array_InternalArray__ICollection_Remove_TisUInt64_t4134040092_m2664745791_gshared
Dnc:__Z26Transform_CUSTOM_IsChildOfP12Il2CppObjectS0_
qr:__ZN4core8hash_mapIN11UnityEngine9Animation14GenericBindingENS2_10BoundIndexENS2_25GenericBindingHashFunctorENS2_30GenericBindingValueArrayUniqueEE4findERKS3_
YFi:_PatternLinkStack_SetCurrent_m366511098
pRj:__ZNSt3__26vectorINS_12basic_stringIDsNS_11char_traitsIDsEENS_9allocatorIDsEEEENS4_IS6_EEE18__construct_at_endEj
$bg:_Color32__ctor_m4150508762_AdjustorThunk
AUf:_UTF7Decoder__ctor_m546843796
lPf:_Double_System_IConvertible_ToUInt32_m271206838_AdjustorThunk
Gpa:__ZNK13GfxDeviceGLES11GetViewportEv
rfc:__ZN14AsyncOperation26ClearCachedScriptingObjectEv
uLc:_UNITY_tt_face_load_cvt
mHh:_ReadOnlyCollection_1_System_Collections_IList_Add_m1881324749_gshared
qej:__ZL32InitializeCustomAttributesCachesPv
RQa:__ZN20ArchiveStorageReaderD0Ev
pha:__ZN6Shader23VirtualRedirectTransferER19StreamedBinaryWriteILb0EE
v2c:__ZN19TransportJavaScript7PrepareEv
hTg:_List_1_System_Collections_IList_IndexOf_m1088859899_gshared
SJi:_Uri__ctor_m3848281005
Mxc:__Z35Transfer_Blittable_FixedBufferFieldI8JSONReadaEvRK29SerializationCommandArgumentsR31RuntimeSerializationCommandInfo
qob:__ZNK20LocalFileSystemPosix20GetApplicationFolderEv
rEd:_StreamingContext_Equals_m2722903674_AdjustorThunk
jS:__ZN11UnityEngine15CloudWebService14DataDispatcher31SetupSessionContainerToDispatchEv
$Eb:__Z29Transfer_Blittable_ArrayFieldI18StreamedBinaryReadILb0EE8Vector3fEvRT_R9ArrayInfoRK23StaticTransferFieldInfo
rGd:_CspParameters__ctor_m1928090281
i0a:__ZN9ShaderLab11shaderprops9GetVectorEPK19ShaderPropertySheetS3_NS_16FastPropertyNameE
CI:__ZN4FMOD12ChannelGroup10getDSPHeadEPPNS_3DSPE
hKc:_UNITY_tt_size_run_prep
YH:__ZN12AudioManager17MainThreadCleanupEv
Knf:_Evidence_CopyTo_m872435527
OUe:_SecurityParser_OnEndElement_m2088612360
c2:__ZNK6Camera18ScreenToWorldPointERK8Vector3f
Ewj:__ZN6il2cpp6icalls8mscorlib6System9Threading6Thread11GetDomainIDEv
Dva:__ZNK13TranslateGLES13GetFormatDescE14GraphicsFormat
Ex:__ZN7mecanim9animation22MotionAddOverrideLayerEPNS0_12MotionOutputEPKS1_fbbRKNS_6bitsetILj83EEE
SNa:__ZN17ArchiveFileSystemD0Ev
vGi:_BackslashNumber_ResolveReference_m4176908213
s$d:_InternalEnumerator_1_System_Collections_IEnumerator_get_Current_m888718134_AdjustorThunk
S1e:_SynchronizedArrayListWrapper_IndexOf_m1028529531
Lgd:_GraphicRegistry_UnregisterGraphicForCanvas_m2540204166
_Ub:__ZN14qsort_internal5QSortIP20ShadowCasterSortDatai26ShadowCasterSortDataSorterEEvT_S4_T0_T1_
$U:__ZN11UnityEngine15CloudWebService19SessionEventManager5StartERKN4core12basic_stringIcNS2_20StringStorageDefaultIcEEEEii
bqc:__ZN16GUIKeyboardState16SaveFromGUIStateER8GUIState
Ftf:_Array_InternalArray__ICollection_Contains_TisDouble_t594665363_m1696010878_gshared
Lsb:__Z22TransferField_NonArrayI14SafeBinaryRead27Converter_SimpleNativeClassI8GradientEEvRK23StaticTransferFieldInfoR31RuntimeSerializationCommandInfoRT0_
Ef:_emscripten_glBufferData
eOi:_UnityEvent_2_FindMethod_Impl_m2569180594_gshared
pSb:__Z25DoForwardShaderRenderLoopRK17RenderLoopContextR13dynamic_arrayI16RenderObjectDataLj4EERK11CullResultsbbbN6Camera10RenderFlagE
qUc:__ZZN2UI23InitializeCanvasManagerEvEN53UIEventsCanvasManagerEmitOffScreenGeometryRegistrator7ForwardEv
If:_glUniform3iv
yig:_Mesh_RecalculateBounds_m39931642
qjg:_Plane__ctor_m2890438515
AQi:_GUI_get_skin_m1874615010
mRg:_List_1_System_Collections_IList_Contains_m453976393_gshared
vuc:__Z18Transfer_BlittableI9JSONWriteLb0E9BoundsIntEvRK29SerializationCommandArgumentsR31RuntimeSerializationCommandInfo
zZf:_Type_GetMethod_m1197120913
nVj:_fwrite
Nrd:_COMException__ctor_m3707984232
Tyg:_DefaultComparer_Equals_m962817516_gshared
z9g:__Z107RuntimeInvoker_Void_t1185182177_Single_t1397266774_Single_t1397266774_Single_t1397266774_Single_t1397266774PFvvEPK10MethodInfoPvPS4_
OFb:__ZN13MonoBehaviourD0Ev
NTc:__ZN2UI6Canvas18UpdateEventIndexesEv
XSi:_SymmetricTransform_CTS_m764800021
SUj:_pipe
xAi:_SubjectAltNameExtension_ToString_m3628154311
nfg:_RenderPipelineManager_get_currentPipeline_m1638613344
Llc:__Z50RectTransform_CUSTOM_INTERNAL_set_anchoredPositionP12Il2CppObjectRK13Vector2fIcall
tka:__ZNSt3__26vectorIN9ShaderLab19SerializedSubShaderENS_9allocatorIS2_EEE6resizeEj
CNa:__ZN4FileC2Ev
$5g:__Z81RuntimeInvoker_Void_t1185182177_RuntimeObject_Double_t594665363_Int32_t2950945753PFvvEPK10MethodInfoPvPS4_
i6f:_BitConverterLE_UIntFromBytes_m3974925535
ZYf:_Type_GetTypeFromHandle_m1620074514
vlj:__ZN15dense_hashtableINSt3__24pairIK10KeyWrapperINS1_IPK10MethodInfoP11Il2CppClassEEEjEES9_17ReflectionMapHashIS8_EN14dense_hash_mapIS9_jSD_NS9_14EqualsComparerINS0_8equal_toIS8_EEEENS0_9allocatorISB_EEE9SelectKeyESI_SK_E12maybe_shrinkEv
kSa:__ZN14BatchAllocator16AllocateInternalEPPvijjj
Kfg:_GameObject_SendMessage_m3720186693
t5b:__Z13RegisterClassI6SpriteEvv
lvf:_Array_InternalArray__ICollection_Remove_TisKeyframe_t4206410242_m3222074551_gshared
aWe:_ArgumentException_get_Message_m520762021
OYd:_InternalEnumerator_1_System_Collections_IEnumerator_get_Current_m1641466962_AdjustorThunk
oaj:__ZN14dense_hash_setI10KeyWrapperIPK17Il2CppGenericInstEN6il2cpp8metadata21Il2CppGenericInstHashENS4_14EqualsComparerINS6_24Il2CppGenericInstCompareEEENSt3__29allocatorIS4_EEEC2EjRKS7_RKSA_
RHe:_HybridDictionary_Switch_m3818192922
xLj:_min_bytes_allocd
RBb:__ZN17AnimationCurveTplIfE15InvalidateCacheEv
rUd:_Selectable_Awake_m2577497063
Kxf:_Array_compare_TisUIVertex_t4057497605_m3950502696_gshared
Eoc:__Z29Mesh_Get_Custom_PropCanAccessP12Il2CppObject
s8a:__ZN6Sprite8TransferI19StreamedBinaryWriteILb0EEEEvRT_
k9d:_Enumerator_System_Collections_IEnumerator_get_Current_m2979767597_gshared
gBf:_Array_InternalArray__ICollection_CopyTo_TisLabelData_t360167391_m175414846_gshared
G4f:_BigInteger_op_Implicit_m378428706
Wig:_PlayerConnection_DisconnectedCallback_m1697017309
Shb:__Z14resize_trimmedINSt3__26vectorIi13stl_allocatorIiL18MemLabelIdentifier13ELi16EEEEEvRT_j
KE:__ZN7mecanim9animation18ControllerConstant15InitializeClassEv
h6f:_BitConverterLE_UShortFromBytes_m1253080092
Eo:FUNCTION_TABLE_iiiiiiiffiiiiiiiiiffffiiii
tPf:_Double_CompareTo_m3151899116_AdjustorThunk
ize:_NumberFormatter_Init_m2982613221
nDc:_cf2_getMaxstack
UEe:_EnumBuilder_GetCustomAttributes_m166600193
kTi:_Check_Source_m4098695967
oog:_SpaceAttribute__ctor_m2972541600
Zy:__ZN7mecanim12statemachine20EvaluateStateMachineERKNS0_20StateMachineConstantERKNS0_17StateMachineInputERNS0_18StateMachineOutputERNS0_18StateMachineMemoryERNS0_21StateMachineWorkspaceE
Q7d:_DefaultComparer_Compare_m297694671_gshared
AEc:_cff_parser_run
tNj:_GC_notify_or_invoke_finalizers
wFj:__ZN6il2cpp2os6Thread5SleepEjb
drf:_String_Compare_m1293271421
icf:_Int32_System_IConvertible_ToDateTime_m1824716955_AdjustorThunk
q$j:_emscripten_glUniform3f__wrapper
Qn:FUNCTION_TABLE_viiiifii
evg:_Dictionary_2_Init_m1051918563_gshared
tMg:_List_1_set_Item_m3289315279_gshared
Ecf:_Int32_CompareTo_m2864982090
eIj:__ZN15dense_hashtableINSt3__24pairIK10KeyWrapperIPK19Il2CppGenericMethodEP10MethodInfoEES6_N6il2cpp8metadata23Il2CppGenericMethodHashEN14dense_hash_mapIS6_S9_SD_NS6_14EqualsComparerINSC_26Il2CppGenericMethodCompareEEENS0_9allocatorISA_EEE9SelectKeyESH_SJ_E4findERS7_
ESa:__ZN10TagManager23AddDefaultLayerIfNeededEv
UUa:__ZN10FlareLayer12AddToManagerEv
Wda:__ZN18AsyncUploadManagerC2E10MemLabelId
