Ac:_glClearStencil
p_f:_UInt16_System_IConvertible_ToChar_m2096055221_AdjustorThunk
tbg:__ZN23InterfaceActionInvoker1IP18Camera_t4157153871E6InvokeEjP11Il2CppClassP12Il2CppObjectS1_
yvf:_Array_TrueForAll_TisRuntimeObject_m1084992726_gshared
xUg:_List_1_Contains_m2043664690_gshared
EGj:__ZN6il2cpp2vm5Array13GetByteLengthEP11Il2CppArray
foh:_Array_InternalArray__set_Item_TisDateTime_t3738529785_m1331437427_gshared
LSi:_KeyBuilder_get_Rng_m3373220441
p2c:__ZN15DownloadHandler7OnAbortEv
smh:__Z37RuntimeInvoker_Enumerator_t1666852615PFvvEPK10MethodInfoPvPS4_
lTa:__Z30GetIntermediateRendererManagerv
NOh:_U3CCreateWhereIteratorU3Ec__Iterator1D_1_System_Collections_Generic_IEnumeratorU3CTSourceU3E_get_Current_m1909387290_gshared
hya:__Z21SourceMipLevelForBlitiiii
rXa:__ZN31CanvasBatchIntermediateRenderer15AddAsRenderNodeER15RenderNodeQueueRK20DeprecatedSourceData
EXf:_TimeSpan_get_Hours_m550761902
ani:__ZL95CanvasRenderer_t2598313366_CustomAttributesCacheGenerator_CanvasRenderer_SetMaterial_m824577244P21CustomAttributesCache
Tli:__ZL72GUISkin_t1244372282_CustomAttributesCacheGenerator_m_verticalSliderThumbP21CustomAttributesCache
Lei:__ZL63PlayableOutputHandle_t4208053793_CustomAttributesCacheGeneratorP21CustomAttributesCache
BU:__ZN11UnityEngine15CloudWebService26CloudServiceEventWithParam12ToJsonStringER9JSONWrite
Nve:_UnmanagedMemoryStream_Write_m930787521
$Zc:__ZN11UnityEngine7Connect14AppUpdateEventD0Ev
eaj:__ZNK15dense_hashtableINSt3__24pairIK10KeyWrapperIPK19Il2CppGenericMethodEPK26Il2CppGenericMethodIndicesEES6_N6il2cpp8metadata23Il2CppGenericMethodHashEN14dense_hash_mapIS6_SA_SE_NS6_14EqualsComparerINSD_26Il2CppGenericMethodCompareEEENS0_9allocatorISB_EEE9SelectKeyESI_SK_E10test_emptyEj
CTh:__ZL66RuntimeArray_CustomAttributesCacheGenerator_Array_Sort_m3287581440P21CustomAttributesCache
_Ti:_AnalyticsEventTracker_SendEvent_m1365958832
mX:__ZdlPv
Hr:__ZN11UnityEngine9Animation28GenericAnimationBindingCacheD2Ev
dVf:_UTF8Encoding_GetHashCode_m641510078
gDi:_X509Store_LoadCrl_m1881903843
Fqh:_Array_Sort_TisUICharInfo_t75501106_TisUICharInfo_t75501106_m722747892_gshared
B2e:_CaseInsensitiveComparer__ctor_m2101975011
c$g:__Z67RuntimeInvoker_Byte_t1134296376_Int32_t2950945753_Int32_t2950945753PFvvEPK10MethodInfoPvPS4_
R7a:__ZNSt3__26vectorI13dynamic_arrayI8Vector2fLj4EENS_9allocatorIS3_EEEC2INS_11__wrap_iterIPS3_EEEET_SB_RKS5_PNS_9enable_ifIXaasr21__is_forward_iteratorISB_EE5valuesr16is_constructibleIS3_NS_15iterator_traitsISB_E9referenceEEE5valueEvE4typeE
HZg:__Z53RuntimeInvoker_UInt32_t2560061978_Decimal_t2948259380PFvvEPK10MethodInfoPvPS4_
y_b:__Z18RestoreRenderStateR20CameraRenderOldStateR17ShaderPassContext
HAb:__Z18Transfer_BlittableI18StreamedBinaryReadILb1EELb1E5RectTIfEEvRK29SerializationCommandArgumentsR31RuntimeSerializationCommandInfo
zwb:__Z18Transfer_BlittableI24GenerateTypeTreeTransferLb0E11ColorRGBA32EvRK29SerializationCommandArgumentsR31RuntimeSerializationCommandInfo
sFb:__Z25scripting_class_from_name17ScriptingImagePtrPKcS1_
vyf:_Array_InternalArray__IndexOf_TisKeyValuePair_2_t3699644050_m1021241249_gshared
Npj:__ZN14dense_hash_mapI10KeyWrapperINSt3__24pairIPK12PropertyInfoP11Il2CppClassEEEj17ReflectionMapHashIS8_ENS9_14EqualsComparerINS1_8equal_toIS8_EEEENS1_9allocatorINS2_IKS9_jEEEEE15set_deleted_keyERSH_
VGb:__Z29scripting_class_enum_basetype17ScriptingClassPtr
wUg:_List_1_Clear_m3097985365_gshared
aY:__ZNK12BaseRenderer18GetRenderNodeCountEv
a0i:__ZN30GenericInterfaceActionInvoker1IP24SingleU5BU5D_t1444911251E6InvokeEPK10MethodInfoP12Il2CppObjectS1_
Qjd:_PropertyBuilder_get_CanWrite_m2657562188
D6d:_InternalEnumerator_1_get_Current_m1477715453_gshared
wGg:_Enumerator__ctor_m2827156589_AdjustorThunk
Xnb:__ZNK20LocalFileSystemPosix6ParentERK13FileEntryDataRN4core12basic_stringIcNS3_20StringStorageDefaultIcEEEE
ang:_RectTransform_GetWorldCorners_m3553547973
nzh:_Collection_1_System_Collections_IList_Remove_m1476284619_gshared
d2f:_ContractionComparer__ctor_m3439667810
Xxe:_MonoType_IsPrimitiveImpl_m2401722705
qkf:_SHA1CryptoServiceProvider__ctor_m4195188793
Ccg:_CSSMeasureFunc_BeginInvoke_m3802154595
ofd:_Dropdown_Hide_m504034854
xMa:__ZN17PersistentManager22CheckInstanceIDsLoadedEPii
O4a:__ZN9Texture2D25CreateScaledAndPaddedDataEPP17SharedTextureDataS2_
grg:_Vector2_get_up_m2647420593
Mva:__ZN7ApiGLES17CopyBufferSubDataEjjlll
wBf:_Array_InternalArray__ICollection_CopyTo_TisUInt64_t4134040092_m691431926_gshared
Tyh:__ZN23InterfaceActionInvoker2Ii22OrderBlock_t1585977831E6InvokeEjP11Il2CppClassP12Il2CppObjectiS0_
wKe:_IPAddress_ToString_m1181734207
kTf:_StringBuilder_Append_m1965104174
vsc:__ZN5Unity9rapidjson15GenericDocumentINS0_4UTF8IcEE13JSONAllocatorS4_E11ParseStreamILj1ES3_NS0_25GenericInsituStringStreamIS3_EEEERS5_RT1_
m8i:__ZNSt3__26vectorIPK10Il2CppTypeNS_9allocatorIS3_EEE7reserveEj
kAg:_EqualityComparer_1__cctor_m3766928733_gshared
ESb:__ZN25CameraStackRenderingState20GetOrCreateBuiltinRTE24BuiltinRenderTextureTypeii17DepthBufferFormat19RenderTextureFormatj22RenderTextureReadWrite14VRTextureUsagei
CMi:_UnityAction_1_Invoke_m610765085_gshared
LO:__ZN11AudioModule26SetDefaultMicrophoneDriverEPv
Rie:_Kernel_modInverse_m652700340
j9a:__ZNK14Texture2DArray26CanReuploadDataToGfxDeviceEv
VWb:__ZN17PrePassRenderLoop14RenderBasePassEP13RenderTextureRK14LightingLayersR13dynamic_arrayI16RenderObjectDataLj4EERbR10MinMaxAABB
kRa:__ZN17GlobalGameManager23VirtualRedirectTransferER17RemapPPtrTransfer
sJc:_sfnt_stream_close
kqc:__ZN5IMGUI18RepaintModalWindowER8GUIState
OHe:_HybridDictionary_get_IsSynchronized_m2987560362
v4:__ZNK15dense_hashtableINSt3__24pairIKN9ShaderLab7Program23ShaderKeywordSetAndHashEPKNS2_10SubProgramEEES4_NS3_24ShaderKeywordHashFunctorEN14dense_hash_mapIS4_S8_SA_NS0_8equal_toIS4_EE13stl_allocatorIS9_L18MemLabelIdentifier67ELi16EEE9SelectKeyESD_SG_E23find_position_with_hashERS5_j
L6e:_CompareInfo_Finalize_m404687489
U7a:__Z23SetSpriteMeshIndexCountP14SharedMeshDataj
gVf:_UTF8Decoder_GetChars_m1236346907
mpg:_TouchScreenKeyboard_Open_m231964201
W$a:__ZN7Texture13SetFilterModeEi
Kkg:_Quaternion_GetHashCode_m2636680144_AdjustorThunk
UKb:__ZNSt3__26vectorINS_4pairIiN17InstancingBatcher12PropertyTypeEEE13stl_allocatorIS4_L18MemLabelIdentifier1ELi16EEE21__push_back_slow_pathIKS4_EEvRT_
iki:__ZL99AudioSource_t3935305588_CustomAttributesCacheGenerator_AudioSource_t3935305588____clip_PropertyInfoP21CustomAttributesCache
dIj:__ZN6il2cpp8metadata13GenericMethod9GetMethodEPK19Il2CppGenericMethod
xq:__ZNSt3__26vectorIN4core12basic_stringIcNS1_20StringStorageDefaultIcEEEENS_9allocatorIS5_EEE7reserveEj
wCe:_Default_SelectProperty_m1220817815
CAd:_RemotingConfiguration_IsRemotelyActivatedClientType_m4117048589
bqg:_Transform_TransformPoint_m226827784
uPi:_ListPool_1_Get_m738675669_gshared
Fpa:__ZN13GfxDeviceGLES11SetViewportERK5RectTIiE
Td:_emscripten_glDepthRange
Gxi:_SslStreamBase_BeginNegotiateHandshake_m4180435790
P0b:__ZNSt3__26vectorINS_4pairIN4core12basic_stringIcNS2_20StringStorageDefaultIcEEEES6_EE13stl_allocatorIS7_L18MemLabelIdentifier38ELi16EEE12__move_rangeEPS7_SC_SC_
Qia:__Z14resize_trimmedINSt3__26vectorIN9ShaderLab20SerializedSubProgram12UAVParameterENS0_9allocatorIS4_EEEEEvRT_j
Psc:__ZN5Unity9rapidjson13GenericReaderINS0_4UTF8IcEES3_13JSONAllocatorE11ParseObjectILj1ENS0_25GenericInsituStringStreamIS3_EENS0_15GenericDocumentIS3_S4_S4_EEEEvRT0_RT1_
L9c:_StandaloneInputModule_GetRawMoveVector_m2737091079
wti:__ZL62Selectable_t3250028441_CustomAttributesCacheGenerator_m_ColorsP21CustomAttributesCache
oyi:_SslStreamBase_EndWrite_m4073224031
V1:__ZNSt3__218__insertion_sort_3IRNS_6__lessI14ObjectLoadDataS2_EEPS2_EEvT0_S6_T_
uki:__ZL92Event_t2956885303_CustomAttributesCacheGenerator_Event_Internal_GetMousePosition_m1101229675P21CustomAttributesCache
ENg:_List_1_System_Collections_ICollection_get_SyncRoot_m1244917400_gshared
mNi:__ZN23InterfaceActionInvoker4IP12Il2CppObjectS1_S1_S1_E6InvokeEjP11Il2CppClassS1_S1_S1_S1_S1_
Cxa:__ZN4crndL20crnd_default_reallocEPvjPjbS0_
Dkh:__Z54RuntimeInvoker_CustomAttributeNamedArgument_t287865710PFvvEPK10MethodInfoPvPS4_
_Vj:__ZNSt3__212basic_stringIcNS_11char_traitsIcEENS_9allocatorIcEEEC2ERKS5_
K8a:__ZN18SpriteAtlasManager19AddRequestingSpriteE4PPtrI6SpriteE
Rmc:__Z33Texture_CUSTOM_Internal_GetHeightP12Il2CppObject
Uki:__ZL102GUIStyle_t3956901511_CustomAttributesCacheGenerator_GUIStyle_INTERNAL_CALL_GetRectOffsetPtr_m152975056P21CustomAttributesCache
sM:__ZNK4PPtrI9AudioClipEptEv
Wsg:_ValueCollection_System_Collections_ICollection_get_SyncRoot_m3381653267_gshared
ybd:_CanvasScaler_get_defaultSpriteDPI_m871626936
DZb:__ZN23ScriptableRenderContextC2Ev
did:_GridLayoutGroup_get_spacing_m2409263614
xTa:__ZN4PPtrI13RenderTextureE8TransferI18StreamedBinaryReadILb0EEEEvRT_
Qhe:_Enumerator_MoveNext_m3051926902_gshared
lKg:_List_1_CheckIndex_m581273900_gshared
mLc:_UNITY_FT_Stream_GetChar
Zrg:_WaitForSeconds_t1699091251_marshal_pinvoke
KPi:_ObjectPool_1_get_countAll_m819305395_gshared
gBb:__Z18Transfer_BlittableI18StreamedBinaryReadILb1EELb1EdEvRK29SerializationCommandArgumentsR31RuntimeSerializationCommandInfo
bQg:_List_1_ToArray_m190175978_gshared
bHb:__Z26BuildSerializationCacheFor17ScriptingClassPtrRb
Q5c:_EventSystem_get_firstSelectedGameObject_m1576206896
ODa:__ZN7ApiGLES15BlitFramebufferEN2gl6HandleILNS0_10ObjectTypeE9EEENS0_15FramebufferReadES3_S3_iiiiiiiiNS0_15FramebufferTypeE
esj:_il2cpp_class_get_name
G8g:__Z112RuntimeInvoker_RuntimeObject_RuntimeObject_RuntimeObject_RuntimeObject_RuntimeObject_RuntimeObject_RuntimeObjectPFvvEPK10MethodInfoPvPS4_
S5d:_InternalEnumerator_1_System_Collections_IEnumerator_get_Current_m3553395619_AdjustorThunk
dWh:__ZL70AssemblyVersionCompatibility_t766556580_CustomAttributesCacheGeneratorP21CustomAttributesCache
aXe:_Array_SetValue_m3998268557
fzc:__ZN8JSONRead8TransferI8Vector4fEEvRT_PKc17TransferMetaFlagsb
vcd:_ColorBlock_set_highlightedColor_m2089444414_AdjustorThunk
Dgh:__Z59RuntimeInvoker_Boolean_t97287965_X509ChainStatus_t133602714PFvvEPK10MethodInfoPvPS4_
Kmg:_RectTransform_INTERNAL_set_anchoredPosition_m939517950
Pqe:_Context_EndSwitchingSecurityParameters_m4148956166
qGc:_otv_PairPos_validate
Z3h:__ZL63ThreadStateException_t3003788475_CustomAttributesCacheGeneratorP21CustomAttributesCache
jw:__ZN7mecanim9animation14CopyHumanPosesEPKNS0_18AnimationNodeStateEPS1_RKNS_6bitsetILj83EEE
hhj:__ZN6il2cpp6icalls8mscorlib6SystemL8IsStaticEPK12PropertyInfo
sIb:__Z9InitInputv
Zoj:__ZN30dense_hashtable_const_iteratorINSt3__24pairIK10KeyWrapperIPK22Il2CppGenericParameterEPK24MonoGenericParameterInfoEES6_N6il2cpp5utils11PointerHashIS4_EEN14dense_hash_mapIS6_SA_SF_NS6_14EqualsComparerINS0_8equal_toIS5_EEEENS0_9allocatorISB_EEE9SelectKeyESK_SM_E30advance_past_empty_and_deletedEv
lIc:_UNITY_tt_face_build_cmaps
ilj:__ZN6il2cpp2gc19AppendOnlyGCHashMapINSt3__24pairIPK10MethodInfoP11Il2CppClassEEP22Il2CppReflectionMethod17ReflectionMapHashIS9_ENS2_8equal_toIS9_EEE3AddERKS9_SB_
apb:__ZN16MemoryFileSystem6DeleteER13FileEntryDatab
Z1g:__Z81RuntimeInvoker_Void_t1185182177_RuntimeObject_Int64_t3736567304_Int32_t2950945753PFvvEPK10MethodInfoPvPS4_
wLg:_List_1_set_Item_m1979164443_gshared
Kzf:_Array_InternalArray__ICollection_Add_TisLink_t3209266973_m77922316_gshared
zya:__ZL21BlitScaleStbImageImplRK14ImageReferenceRS_NS_10ColorSpaceE
pZe:_Boolean_System_IConvertible_ToUInt16_m3465173538_AdjustorThunk
gKd:_InputField_get_keyboardType_m1248105267
qsb:__Z29Transfer_Blittable_ArrayFieldI14SafeBinaryReadyEvRT_R9ArrayInfoRK23StaticTransferFieldInfo
AM:__ZN20SoundChannelInstance15setChannelGroupEPN4FMOD12ChannelGroupE
GEi:_Match__ctor_m2425511580
u7f:_KeyPairPersistence_Remove_m1876145547
cXh:__ZL63FileNotFoundException_t225391025_CustomAttributesCacheGeneratorP21CustomAttributesCache
ebi:__ZL84Behaviour_t1437897464_CustomAttributesCacheGenerator_Behaviour_set_enabled_m20417929P21CustomAttributesCache
oc:invoke_vifffii
SDb:__Z35Transfer_Blittable_FixedBufferFieldI18StreamedBinaryReadILb0EEaEvRK29SerializationCommandArgumentsR31RuntimeSerializationCommandInfo
nQa:__ZN20ArchiveStorageReader17MakeStorageUnusedEv
oPa:__ZNK25MultiBlocksMemoryFileData5CloneEv
rYe:_AsyncCallback_BeginInvoke_m2710486612
MNj:_GC_add_ext_descriptor
zjj:__ZNK15dense_hashtableINSt3__24pairIK10KeyWrapperINS1_IPK14Il2CppAssemblyP11Il2CppClassEEEjEES9_17ReflectionMapHashIS8_EN14dense_hash_mapIS9_jSD_NS9_14EqualsComparerINS0_8equal_toIS8_EEEENS0_9allocatorISB_EEE9SelectKeyESI_SK_E23find_position_with_hashERSA_j
Lsh:_LayoutGroup_SetProperty_TisSingle_t1397266774_m793506911_gshared
POj:__ZN6il2cpp2os14WindowsRuntime22GetRestrictedErrorInfoEv
eGd:_CryptoConfig_CreateFromName_m1538277313
vWg:_Queue_1__ctor_m263978079_gshared
sOa:__ZN17ArchiveFileSystem11CreateAsDirER13FileEntryData
$Xj:dynCall_iiiiiiiiiiii
rKd:_InputField_set_caretPositionInternal_m3823580651
K$c:__ZN18UnityConnectClient16IsServiceEnabledEv
VJa:__ZN22VertexDeclarationCacheD0Ev
jUd:_Selectable_set_interactable_m3105888815
FXa:__ZL26KeywordSetToStringDontSortRKNSt3__26vectorIN4core12basic_stringIcNS1_20StringStorageDefaultIcEEEENS_9allocatorIS5_EEEERS5_
RYc:__Z54Register_UnityEngine_Analytics_CustomEventData_AddCharv
rAa:__ZN6prcoreL17RemapGenericFloatI16TexFormatRGFloat17TexFormatRGBAHalfEEvPKNS_9InnerInfoE
GG:__ZN12AudioManager22CreateFMODSoundFromWWWEP10IWWWStream15FMOD_SOUND_TYPE17FMOD_SOUND_FORMATjjbbP10SampleClip
z9b:__ZNK32RendererMaterialAnimationBinding15GenerateBindingERKN4core12basic_stringIcNS0_20StringStorageDefaultIcEEEEbRN11UnityEngine9Animation14GenericBindingE
_pd:_TargetException__ctor_m4172127019
ZOg:_List_1_CheckCollection_m274117203_gshared
Yni:__ZL70EventSystem_t1003666588_CustomAttributesCacheGenerator_m_FirstSelectedP21CustomAttributesCache
k0:__ZN8Remapper23GetOrGenerateInstanceIDERK26SerializedObjectIdentifier
hdd:_ColorTween_get_startColor_m3792586410_AdjustorThunk
zOa:__ZN17FileSystemHandler10AtomicMoveER13FileEntryDataS1_
Ya:invoke_iiiiiifffiiifii
W_g:__Z85RuntimeInvoker_Void_t1185182177_Int32_t2950945753_Int32_t2950945753_Int32_t2950945753PFvvEPK10MethodInfoPvPS4_
nCd:_BinaryFormatter_get_SurrogateSelector_m2111882017
QOe:_X509Chain__ctor_m2878811474
dSe:_X509CertificateCollection__ctor_m3365535796
FAe:_CustomInfo__ctor_m426096741
g6c:_EventSystem_ToString_m3779610692
d8a:__ZN6Sprite8TransferI24GenerateTypeTreeTransferEEvRT_
xzd:_SoapTypeAttribute_get_IsInteropXmlType_m629667929
Vnc:__Z48Register_UnityEngine_Transform_SetAsFirstSiblingv
p2a:__ZNK18DelayedCallManager22GetTypeVirtualInternalEv
g8a:__ZN7SubMesh8TransferI24GenerateTypeTreeTransferEEvRT_
Kpg:_Transform_INTERNAL_set_localPosition_m1936358505
RIi:_Literal_IsComplex_m4067122560
Kej:_NativeTypeAttribute__ctor_m133676646
YLb:__ZN19GfxThreadableDevice20SetShadersThreadableEPP10GpuProgramPPK20GpuProgramParametersPKPKh
bCh:_Collection_1_System_Collections_IList_Contains_m296643274_gshared
kff:_DirectoryInfo__ctor_m126519516
qmd:_MethodBase_GetMethodFromIntPtr_m3014201362
tzh:__ZN21InterfaceFuncInvoker1I19Color32_t2600501292iE6InvokeEjP11Il2CppClassP12Il2CppObjecti
VHi:_Reference_get_CapturingGroup_m3861468528
D_g:__Z40RuntimeInvoker_TypeAttributes_t113483779PFvvEPK10MethodInfoPvPS4_
dgc:__ZN9Transform23SetSiblingIndexInternalEib
LPg:_List_1_Clear_m1143167521_gshared
Fld:_AddEventAdapter__ctor_m2428277574
_Dh:_Collection_1_SetItem_m794903769_gshared
uDf:_Enumerator_MoveNext_m635366482
WTe:_X509Extension_Equals_m1222951829
Du:__ZN7mecanim5human12HumanPoseSubERNS0_9HumanPoseERKS1_S4_
omh:__Z37RuntimeInvoker_Enumerator_t1789501480PFvvEPK10MethodInfoPvPS4_
$Bj:__ZN6il2cpp8metadata15GenericMetadata15GetGenericClassEiPK17Il2CppGenericInst
K$e:_Char_GetTypeCode_m2433327340_AdjustorThunk
Rqb:__Z18Transfer_BlittableI14SafeBinaryReadLb0E10Matrix4x4fEvRK29SerializationCommandArgumentsR31RuntimeSerializationCommandInfo
sGb:__Z24GetFixedBehaviourManagerv
nSh:__ZL69IntPtr_t_CustomAttributesCacheGenerator_IntPtr_op_Equality_m408849716P21CustomAttributesCache
Xfj:__ZN6il2cpp2vm10ThreadPool4WaitEP17Il2CppAsyncResultPPv
qWd:_Text_UpdateGeometry_m3634850647
oTj:_vfprintf
Jqc:__ZN10GUIManager12AddGUIScriptER8ListNodeI13MonoBehaviourE
KDf:_Stack_Clear_m2010200235
M1a:__ZL13SortTexByNameRKNSt3__24pairIN9ShaderLab16FastPropertyNameEN18UnityPropertySheet11UnityTexEnvEEES7_
WCc:_cf2_getVStore
Y7c:_PointerEventData_set_pointerPressRaycast_m1363193059
AQb:__ZN20DynamicPropertySheetD0Ev
zsd:_SafeHandle_Dispose_m4229010569
T0b:__ZN14SafeBinaryRead17RegisterConverterEPKcS1_PFbPvRS_E
Wfi:__ZL77RuntimePlatform_t4159857903_CustomAttributesCacheGenerator_OSXDashboardPlayerP21CustomAttributesCache
B8:__ZN35RegisterRuntimeInitializeAndCleanup8RegisterEPFvPvES2_iS0_
UBa:__ZN7ApiGLES20DrawElementsIndirectE16GfxPrimitiveTypejjj
xFe:_FieldBuilder_SetValue_m828035213
vnh:_Array_InternalArray__Insert_TisSingle_t1397266774_m3161726127_gshared
jKh:_ReadOnlyCollection_1_System_Collections_IList_get_IsFixedSize_m733459177_gshared
yOh:__ZN28GenericInterfaceFuncInvoker0IfE6InvokeEPK10MethodInfoP12Il2CppObject
KSh:__ZL72Enum_t4135868527_CustomAttributesCacheGenerator_Enum_ToObject_m121962870P21CustomAttributesCache
WKg:__ZN23InterfaceActionInvoker2IP24ObjectU5BU5D_t2843939325iE6InvokeEjP11Il2CppClassP12Il2CppObjectS1_i
Znc:__Z21Object_CUSTOM_DestroyP12Il2CppObjectf
kgi:__ZL99SetupCoroutine_t2062820429_CustomAttributesCacheGenerator_SetupCoroutine_InvokeMoveNext_m3199342729P21CustomAttributesCache
soa:__ZN8Material26ResetAllCachedMaterialDataEP6Shader
R5g:__Z63RuntimeInvoker_Void_t1185182177_RuntimeObject_Int16_t2552820387PFvvEPK10MethodInfoPvPS4_
yLc:_UNITY_TT_Get_MM_Var
BDd:_ObjectManager_AddFixup_m2154325362
$7d:_Comparer_1__cctor_m3761458313_gshared
OLf:_DateTimeOffset_CompareTo_m1350732322_AdjustorThunk
aa:invoke_diddi
zTc:__ZNK2UI6Canvas13GetRenderModeEv
yeg:_PersistentCall__ctor_m1217622171
zxf:_Array_compare_TisCustomAttributeTypedArgument_t2723150157_m1384644047_gshared
e9f:_StrongName_get_TokenAlgorithm_m1794722022
aqb:__Z18Transfer_BlittableI14SafeBinaryReadLb0EiEvRK29SerializationCommandArgumentsR31RuntimeSerializationCommandInfo
kej:__ZN6il2cpp2vm13MetadataCache30GetPropertyDefinitionFromIndexEi
TSi:_SymmetricTransform_Transform_m1683494363
Rlg:_Rect_Contains_m1232228501
q0c:__ZN22BaseUnityConnectClient17InitializeSessionERKN4core12basic_stringIcNS0_20StringStorageDefaultIcEEEES6_N19CloudServiceHandler13InitModeFlagsE
rVh:__ZL56KeyCollection_t4251528776_CustomAttributesCacheGeneratorP21CustomAttributesCache
Ibh:__Z74RuntimeInvoker_RuntimeObject_Int32_t2950945753_RuntimeObject_RuntimeObjectPFvvEPK10MethodInfoPvPS4_
TUg:_List_1_get_Item_m200663048_gshared
Pyd:_ReturnMessage_get_Exception_m3375728265
AVb:__ZN15JobDataGuardian11DecreaseRefI18ShadowMapJobHeaderEEvPT_
a2j:_emscripten_glDeleteBuffers__wrapper
H1d:_InternalEnumerator_1_MoveNext_m3664960764_AdjustorThunk
Ehc:__ZN13MonoBehaviour34StopCoroutineFromEnumeratorManagedE18ScriptingObjectPtr
rNg:_List_1__ctor_m1345008423_gshared
wJc:_gray_raster_reset
LE:__ZN7mecanim9animation14AvatarConstant15InitializeClassEv
hAc:__ZN11UnityEngine9Analytics18SceneLoadTimeEvent12SetSceneLoadERKN4core12basic_stringIcNS2_20StringStorageDefaultIcEEEEiyyyy
qib:__ZN30RuntimeInitializeOnLoadManager8TransferI18StreamedBinaryReadILb0EEEEvRT_
DFf:_DateTimeOffset__ctor_m2084804982
NHc:_UNITY_tt_face_load_pclt
Opb:__ZN9profiling17ScriptingProfiler31UpdateRegisteredScriptingEventsEv
ahc:__ZL34GetComponentsImplementationRecurseILb1ELi0ELi2EEbR10GameObjectbRK17CompareParametersRK39GetComponentsImplementation_ReturnValue
cGa:__ZN20ComputeShaderVariantD2Ev
Qgg:_Material_GetTexture_m3545614349
IYg:__Z64RuntimeInvoker_RuntimeObject_Int32_t2950945753_Int16_t2552820387PFvvEPK10MethodInfoPvPS4_
T5f:_ASN1_get_Length_m1923878580
gBg:_EqualityComparer_1__cctor_m4244842342_gshared
XPb:__ZNK6Camera18WorldToScreenPointERK8Vector3fPb
Zng:_SendMouseEvents_DoSendMouseEvents_m2140870850
sXc:__ZN14UnityAnalyticsD0Ev
GFi:_PatternCompiler_EmitJump_m3915926156
WCa:__Z18IsCompressedFormat14GraphicsFormat
Yu:__ZN7mecanim9animation19AdjustPoseForMotionERKNS0_14AvatarConstantERKNS0_14SkeletonTQSMapERKN4math4trsXERNS_10ValueArrayERNS_8skeleton13SkeletonPoseTIS8_EESG_
VDd:_SerializationEntry_get_Name_m1530029541_AdjustorThunk
jJe:_TypeConverterAttribute_GetHashCode_m948291090
TXf:__Z33il2cpp_codegen_check_add_overflowxx
wZ:__ZNSt3__227__insertion_sort_incompleteIRPFbRKN18AwakeFromLoadQueue4ItemES4_EPS2_EEbT0_S9_T_
Bbh:__Z71RuntimeInvoker_Boolean_t97287965_AnimatorControllerPlayable_t1015767841PFvvEPK10MethodInfoPvPS4_
cgi:__ZL73RuntimePlatform_t4159857903_CustomAttributesCacheGenerator_MetroPlayerARMP21CustomAttributesCache
Eef:_InvalidOperationException__ctor_m1685032583
jcj:__ZN14dense_hash_mapI10KeyWrapperIN6il2cpp5utils13dynamic_arrayIPK10Il2CppTypeLj4EEEEPFvvENS1_8metadata19Il2CppSignatureHashENS8_14EqualsComparerINSB_22Il2CppSignatureCompareEEENSt3__29allocatorINSG_4pairIKS8_SA_EEEEE15set_deleted_keyERSJ_
zYf:_TimeSpan_op_Subtraction_m3592306516
eDg:_EqualityComparer_1_System_Collections_IEqualityComparer_GetHashCode_m1517903420_gshared
F5a:__ZN26EnlightenSystemInformation8TransferI14SafeBinaryReadEEvRT_
vhb:__ZN24GenerateTypeTreeTransfer8TransferINSt3__26vectorIN15ResourceManager10DependencyE13stl_allocatorIS4_L18MemLabelIdentifier52ELi16EEEEEEvRT_PKc17TransferMetaFlags
r3i:_CanvasRenderer_SplitUIVertexStreams_m2753637362
ldh:__Z119RuntimeInvoker_Void_t1185182177_RuntimeObject_Single_t1397266774_Single_t1397266774_SByte_t1669577662_Int32_t2950945753PFvvEPK10MethodInfoPvPS4_
L1c:__ZN11UnityEngine15PlatformWrapper20SetPlayerPrefsUInt64ERKN4core12basic_stringIcNS1_20StringStorageDefaultIcEEEEy
vcb:__ZN12MeshRendererD0Ev
YP:__ZN12AudioManager35GetCurrentSpatializerDefinitionNameEv
rpg:_TouchScreenKeyboard_get_active_m4267591905
N5i:_CustomEventData_InternalDestroy_m2184675245
voj:__ZNK15dense_hashtableINSt3__24pairIK10KeyWrapperIPK14Il2CppAssemblyEPK22Il2CppMonoAssemblyNameEES6_N6il2cpp5utils11PointerHashIS4_EEN14dense_hash_mapIS6_SA_SF_NS6_14EqualsComparerINS0_8equal_toIS5_EEEENS0_9allocatorISB_EEE9SelectKeyESK_SM_E8min_sizeEjj
Eh:_utime
bii:__ZL56PlayableGraph_t3515989261_CustomAttributesCacheGeneratorP21CustomAttributesCache
ZHi:_BalancingGroup_Compile_m2575117193
UB:__Z28SetExposedSkeletonTransformsRKN7mecanim9animation14AvatarConstantERKN11UnityEngine9Animation30AnimatorGenericBindingConstantERKNS_8skeleton13SkeletonPoseTIN4math4trsXEEERKNSA_INSB_7affineXEEERNS5_21AvatarBindingConstantEy
arj:__ZNSt3__26vectorIN6il2cpp2vm17TypeNameParseInfoENS_9allocatorIS3_EEE8allocateEj
BEi:_Mark_get_Index_m3048692661_AdjustorThunk
ozi:_TlsServerSettings_get_CertificateRequest_m842655670
yn:FUNCTION_TABLE_viiiiif
B7d:_DefaultComparer_Compare_m3931992727_gshared
Dn:FUNCTION_TABLE_viiiiii
u6d:_InternalEnumerator_1_System_Collections_IEnumerator_get_Current_m1847780851_AdjustorThunk
JRi:_GUILayoutUtility_get_spaceStyle_m3392862907
xcf:_Int32_System_IConvertible_ToType_m3009233912_AdjustorThunk
EFf:_DateTimeOffset__ctor_m74032857
tD:__ZN7mecanim9animation22DestroyAvatarWorkspaceEPNS0_15AvatarWorkspaceERNS_6memory9AllocatorE
sZf:_Type_type_is_assignable_from_m76737532
oPd:_MaskableGraphic_ParentMaskStateChanged_m1092090553
ZWb:__ZN15LightmapSTCacheC2ER13BatchRendererR15RenderLoopStats
i2a:__ZN14PlayableOutput17SetSourcePlayableEP8Playable
BPe:_X509ExtensionCollection_get_IsSynchronized_m2607599544
JC:__ZN7mecanim9animation29MotionOutputGetDeltaTransformEPKNS0_12MotionOutputE
V6h:__ZL64MissingFieldException_t1989070983_CustomAttributesCacheGeneratorP21CustomAttributesCache
cMh:_ReadOnlyCollection_1_System_Collections_Generic_ICollectionU3CTU3E_Add_m2369252587_gshared
gAc:__ZN27PerformanceReportingManager21OnSceneTimingCallbackERK15SceneLoadTimingRKN4core12basic_stringIcNS3_20StringStorageDefaultIcEEEE
Rzi:_ValidationResult_get_ErrorCode_m1533688152
qnc:__Z43Transform_CUSTOM_INTERNAL_get_localRotationP12Il2CppObjectP11Quaternionf
r7e:_CultureInfo_get_Parent_m672689885
fOj:__ZN6il2cpp6icalls8mscorlib6System10Reflection4Emit13ModuleBuilder13RegisterTokenEP29Il2CppReflectionModuleBuilderP12Il2CppObjecti
w4g:__Z50RuntimeInvoker_Int64_t3736567304_SByte_t1669577662PFvvEPK10MethodInfoPvPS4_
_ki:__ZL87GUIStyle_t3956901511_CustomAttributesCacheGenerator_GUIStyle_SetDefaultFont_m1581452579P21CustomAttributesCache
f0j:_glGetShaderInfoLog__wrapper
kDd:_ObjectReader_ReadObjectGraph_m340866276
age:_Transform_1_EndInvoke_m2716226219_gshared
hi:_emscripten_glGetTexParameteriv
DZc:__ZN11UnityEngine7Connect15DeviceInfoEvent7GFXInfoD2Ev
D1j:_glGenTextures__wrapper
Vtj:__ZN15dense_hashtableINSt3__24pairIK10KeyWrapperINS1_IP11Il2CppClassjEEES4_EES6_N6il2cpp8metadata14ArrayClassHashEN14dense_hash_mapIS6_S4_SB_NS6_14EqualsComparerINSA_17ArrayClassCompareEEENS0_9allocatorIS8_EEE9SelectKeyESF_SH_EC2EjRKSB_RKSF_RKSJ_
UTf:_UnicodeEncoding_GetHashCode_m354003420
lja:__ZN9ShaderLab20SerializedSubProgram14ConstantBufferaSERKS1_
g5b:__Z13RegisterClassI4MeshEvv
Aji:__ZL74SharedBetweenAnimatorsAttribute_t2857104338_CustomAttributesCacheGeneratorP21CustomAttributesCache
AQf:_Enum_Equals_m3617313991
Y9g:__Z98RuntimeInvoker_Boolean_t97287965_PlayableOutputHandle_t4208053793_PlayableOutputHandle_t4208053793PFvvEPK10MethodInfoPvPS4_
Ofh:__Z74RuntimeInvoker_Boolean_t97287965_LineTypeU26_t2430394419_Int32_t2950945753PFvvEPK10MethodInfoPvPS4_
H$a:__ZN8PlayableD0Ev
Bg:emscriptenWebGLGetBufferBinding
jI:__ZN12AudioManager8TransferI19StreamedBinaryWriteILb0EEEEvRT_
MUd:_Slider_UpdateCachedReferences_m3259451627
D8h:__ZL63X509ChainStatusFlags_t1026973125_CustomAttributesCacheGeneratorP21CustomAttributesCache
l4g:__Z50RuntimeInvoker_Double_t594665363_Double_t594665363PFvvEPK10MethodInfoPvPS4_
U2g:__Z60RuntimeInvoker_Void_t1185182177_StreamingContext_t3711869237PFvvEPK10MethodInfoPvPS4_
YBb:__ZN18StreamedBinaryReadILb1EE21TransferSTLStyleArrayI13dynamic_arrayI11ColorRGBA32Lj4EEEEvRT_17TransferMetaFlags
Nuj:__ZN15dense_hashtableINSt3__24pairIK10KeyWrapperINS1_IP11Il2CppClassjEEES4_EES6_N6il2cpp8metadata14ArrayClassHashEN14dense_hash_mapIS6_S4_SB_NS6_14EqualsComparerINSA_17ArrayClassCompareEEENS0_9allocatorIS8_EEE9SelectKeyESF_SH_E6insertERKS8_
Lfd:_U3CShowU3Ec__AnonStorey1_U3CU3Em__0_m2340880019
v$c:__ZN22BaseUnityConnectClient38PrepareConfigRequestOnMainThreadStaticEPS_
ZTd:_Selectable_OnSetProperty_m1693943217
hKg:_List_1_GetIndex_m2300811709_gshared
y9b:__ZNK32RendererMaterialAnimationBinding12GetPPtrValueERKN11UnityEngine9Animation10BoundCurveE
bDb:__Z18Transfer_BlittableI18StreamedBinaryReadILb0EELb0E8Vector2fEvRK29SerializationCommandArgumentsR31RuntimeSerializationCommandInfo
PUc:__ZN2UI11CanvasGroup12CleanupClassEv
Lzi:_TlsStream_Flush_m3793197834
dLg:_List_1_GetIndex_m2832472557_gshared
Fnb:__ZN22LocalFileSystemHandler9MakeLocalER13FileEntryDatab
DJj:__ZN6il2cpp2vm8Profiler10AllocationEP12Il2CppObjectP11Il2CppClass
ori:__ZL61Graphic_t1660335611_CustomAttributesCacheGenerator_m_MaterialP21CustomAttributesCache
WPc:__ZNSt3__23mapIN20TextRenderingPrivate7FontRefENS1_6OSFontENS_4lessIS2_EENS_9allocatorINS_4pairIKS2_S3_EEEEEixERS8_
Aga:__Z13FormatOrderedPKcz
Thj:__ZN6il2cpp2vm8basepathEPKc
VNe:_X509Chain_GetAuthorityKeyIdentifier_m614536199
tNc:__ZN14SafeBinaryRead21TransferSTLStyleArrayI10vector_mapINSt3__24pairIttEEfN20TextRenderingPrivate8FontImpl14KerningCompareENS2_9allocatorINS3_IS4_fEEEEEEEvRT_17TransferMetaFlags
Cpe:_TlsServerFinished__ctor_m1445633918
xAe:_NumberFormatter_FastIntegerToString_m390846811
dgi:__ZL68RuntimePlatform_t4159857903_CustomAttributesCacheGenerator_WP8PlayerP21CustomAttributesCache
J7f:_PKCS1_RSASP1_m3912327535
KWb:__ZN25DeferredRenderLoopScratchD0Ev
bx:__ZN27AnimationLayerMixerPlayable14SetInputWeightEif
B7c:_PhysicsRaycaster_Raycast_m776323695
Gqg:_UnityException__ctor_m1456865679
zu:__ZN7mecanim9animation17EvaluateHumanPoseERKNS0_18ClipMuscleConstantERKNS0_15ClipMuscleInputEPKfRKNS0_12MotionOutputERNS_5human9HumanPoseE
Roi:__ZL92PointerEventData_t3807901092_CustomAttributesCacheGenerator_U3CscrollDeltaU3Ek__BackingFieldP21CustomAttributesCache
via:__ZN15dense_hashtableINSt3__24pairIKiN4core17string_with_labelILi1EEEEEi18SInt32HashFunctionN14dense_hash_mapIiS5_S7_NS0_8equal_toIiEE13stl_allocatorIS6_L18MemLabelIdentifier1ELi16EEE9SelectKeyESA_SD_E9copy_fromERKSG_j
VCe:_CustomAttributeNamedArgument_GetHashCode_m2317130892
Sgb:__ZN15ResourceManagerD0Ev
eBg:_EqualityComparer_1_get_Default_m990790318_gshared
GBd:_WellKnownClientTypeEntry_ToString_m1119458503
I4:__ZN22CreateGpuProgramOutputD2Ev
WTg:_List_1_get_Item_m1378751541_gshared
uyb:__Z18Transfer_BlittableI19StreamedBinaryWriteILb0EELb1EsEvRK29SerializationCommandArgumentsR31RuntimeSerializationCommandInfo
p1h:__ZL52HMACSHA512_t923916539_CustomAttributesCacheGeneratorP21CustomAttributesCache
jtg:_ValueCollection_CopyTo_m2188334703_gshared
Zmg:__ZN23InterfaceActionInvoker1IP25RectTransform_t3704657025E6InvokeEjP11Il2CppClassP12Il2CppObjectS1_
skf:_SHA1CryptoServiceProvider_Finalize_m1793183797
f6h:__ZL78Convert_t2465617642_CustomAttributesCacheGenerator_Convert_ToUInt64_m409548990P21CustomAttributesCache
NEg:_HashSet_1_System_Collections_Generic_ICollectionU3CTU3E_CopyTo_m408073502_gshared
GP:__ZN14AudioBehaviourC2E10MemLabelId18ObjectCreationMode
Qmb:__ZN12HandlerChain4OpenER13FileEntryData14FilePermission16FileAutoBehavior
qjh:__Z72RuntimeInvoker_Void_t1185182177_Int32_t2950945753_RaycastHit_t1056001966PFvvEPK10MethodInfoPvPS4_
H5h:__ZL79Convert_t2465617642_CustomAttributesCacheGenerator_Convert_ToUInt16_m1147931813P21CustomAttributesCache
mlj:__ZN15dense_hashtableINSt3__24pairIK10KeyWrapperINS1_IPK10MethodInfoP11Il2CppClassEEEjEES9_17ReflectionMapHashIS8_EN14dense_hash_mapIS9_jSD_NS9_14EqualsComparerINS0_8equal_toIS8_EEEENS0_9allocatorISB_EEE9SelectKeyESI_SK_E6insertERKSB_
sAc:__ZN27PerformanceReportingManager29OnSceneLoadedAfterAwakeStaticEPS_iR18AwakeFromLoadQueueN19RuntimeSceneManager11LoadingModeE
VUf:_UTF8Encoding_GetCharCount_m2272165989
_We:_Array_SetValue_m394135409
n1:__ZN14FileCacherReadD2Ev
Qjb:__ZN13RendererScene23UpdatePreviousFrameDataEii
Nrf:_String_Remove_m562998446
sjc:__Z50Register_UnityEngine_CullingGroup_FinalizerFailurev
uuh:_Mesh_GetAllocArrayFromChannel_TisVector2_t2156229523_m1057679375_gshared
fnf:_SecurityPermission_IsSubsetOf_m545000671
zkb:__ZN27UnloadUnusedAssetsOperationD0Ev
Ux:__ZN26AnimatorControllerPlayable6MemoryD2Ev
cSb:__ZN28LightProbeProxyVolumeContextC2E10MemLabelId
ZVj:__ZNKSt3__221__basic_string_commonILb1EE20__throw_out_of_rangeEv
Wcg:_Cursor_get_lockState_m2828192107
n$g:__Z78RuntimeInvoker_Boolean_t97287965_RuntimeObject_RuntimeObject_Int32_t2950945753PFvvEPK10MethodInfoPvPS4_
Nhj:_UpdatedEventHandler_Invoke_m1320302085
eAj:__ZNK15dense_hashtableINSt3__24pairIK10KeyWrapperIP14Il2CppIUnknownEjEES5_N6il2cpp5utils11PointerHashIS3_EEN14dense_hash_mapIS5_jSB_NS5_14EqualsComparerINS0_8equal_toIS4_EEEENS0_9allocatorIS7_EEE9SelectKeyESG_SI_E12test_deletedERK24dense_hashtable_iteratorIS7_S5_SB_SK_SG_SI_E
XF:__ZN9AudioClip23VirtualRedirectTransferER18StreamedBinaryReadILb0EE
sUg:_List_1_AddEnumerable_m2724989594_gshared
zma:__ZNSt3__26vectorIPN9ShaderLab9SubShaderENS_9allocatorIS3_EEE21__push_back_slow_pathIKS3_EEvRT_
uVg:_List_1_Contains_m2043463915_gshared
gch:__Z82RuntimeInvoker_Vector2_t2156229523_Vector2_t2156229523_RuntimeObject_RuntimeObjectPFvvEPK10MethodInfoPvPS4_
EHa:__ZN18GlslGpuProgramGLESC2ERK13dynamic_arrayIhLj1EER22CreateGpuProgramOutput
Woc:__Z70Register_UnityEngine_Playables_PlayableHandle_GetPlayableType_Injectedv
GKb:__ZNK4PPtrI23ShaderVariantCollectionEcvPS0_Ev
Gke:_ARC4Managed_TransformBlock_m1687647868
Jj:_glCopyTexSubImage2D
G9b:__ZNK24RendererAnimationBinding13GetFloatValueERKN11UnityEngine9Animation10BoundCurveE
XT:__ZNK15DownloadHandler14HasPendingDataEv
TJe:_HttpWebRequest_get_Address_m1609525404
Lqg:_UnitySynchronizationContext_ExecuteTasks_m1310741010
_if:_RIPEMD160Managed_CompressFinal_m497690796
h0b:__ZN18ScreenManagerWebGL13SetShowCursorEb
e_d:_InternalEnumerator_1_MoveNext_m1773160976_gshared
ZLb:__ZN13DrawImmediateC2ER9GfxDevice
zTj:_frexp
dje:_Kernel_MultiplyMod2p32pmod_m451690680
Nqb:__Z18Transfer_BlittableI14SafeBinaryReadLb0E5RectTIfEEvRK29SerializationCommandArgumentsR31RuntimeSerializationCommandInfo
BAe:_NumberFormatter_NumberToString_m2562899600
Ilf:_SymmetricAlgorithm_get_FeedbackSize_m3666584308
yGc:_otv_u_C_x_Ox
gxa:__ZN18AsyncUploadManager19AsyncResourceUploadER9GfxDeviceii9TextureID
sua:__ZN14GfxContextGLES14GetFramebufferEv
r2j:_emscripten_glGenVertexArrays__wrapper
L1f:_Version_Clone_m1749041863
Cee:_ShimEnumerator_get_Key_m4155849607_gshared
cza:__ZN6prcoreL21CreateRemapAnyBlitterE13TextureFormatS0_
pme:_RSAManaged_ExportParameters_m1754454264
jfc:__ZN17AnimationCurveTplIfE16StripInvalidKeysEv
BZe:_Boolean_Equals_m535526264_AdjustorThunk
Alh:__Z71RuntimeInvoker_KeyValuePair_2_t71524366_Int32_t2950945753_RuntimeObjectPFvvEPK10MethodInfoPvPS4_
GTc:__ZNK2UI6Canvas17GetSortingLayerIDEv
KIf:_Convert_ToUInt16_m3116648921
uSh:__ZL40UIntPtr_t_CustomAttributesCacheGeneratorP21CustomAttributesCache
Zsj:_il2cpp_method_has_attribute
_4b:__Z13RegisterClassI17GlobalGameManagerEvv
A6:__ZN8Renderer24SetupNewRendererForSceneEv
nZf:_Type_internal_from_name_m1721940673
drh:_Array_swap_TisCustomAttributeTypedArgument_t2723150157_TisCustomAttributeTypedArgument_t2723150157_m365781156_gshared
dBd:_RemotingServices_GetMethodBaseFromName_m3194612939
pxc:__Z35Transfer_Blittable_FixedBufferFieldI8JSONReadtEvRK29SerializationCommandArgumentsR31RuntimeSerializationCommandInfo
JUa:__ZN4PPtrI7TextureE8TransferI14SafeBinaryReadEEvRT_
tcc:__ZN14PlayableOutput6HandleEv
C7a:__ZNK6Sprite22GetTypeVirtualInternalEv
g4c:__ZN13RuntimeStaticINSt3__26vectorI23UnityVRDeviceDefinition13stl_allocatorIS2_L18MemLabelIdentifier90ELi16EEEELb0EE13StaticDestroyEPv
xn:FUNCTION_TABLE_iiiiiiiiiiiiii
h2c:__ZN19UnityConnectService18OnPlayerQuitStaticEPS_
pHc:_UNITY_tt_get_cmap_info
Lte:_SslClientStream_RaiseServerCertificateValidation_m3477149273
zxb:__Z29Transfer_Blittable_ArrayFieldI24GenerateTypeTreeTransfer5RectTIiEEvRT_R9ArrayInfoRK23StaticTransferFieldInfo
JYa:__ZN16ReflectionProbes8ScheduleEN18ReflectionProbeJob7JobTypeEP15ReflectionProbei
Gpe:_ClientSessionInfo_KeepAlive_m1020179566
QTc:__ZN13dynamic_arrayIN2UI13UIInstructionELj4EE12emplace_backEv
LVg:_List_1_ToArray_m4056539300_gshared
oWh:__ZL51Calendar_t1661121569_CustomAttributesCacheGeneratorP21CustomAttributesCache
cNa:__Z18IsDirectoryCreatedRKN4core12basic_stringIcNS_20StringStorageDefaultIcEEEE
Umf:_String_FormatHelper_m3913915042
ESc:__ZN2UI13CanvasManagerD2Ev
ACe:_ConstructorInfo__cctor_m1016079270
u9i:__ZN15dense_hashtableINSt3__24pairIK10KeyWrapperIPKcEP11Il2CppClassEES5_N6il2cpp5utils11StringUtils12StringHasherIS4_EEN14dense_hash_mapIS5_S8_SE_NS5_14EqualsComparerINSB_13VmStringUtils21CaseSensitiveComparerEEENS0_9allocatorIS9_EEE9SelectKeyESJ_SL_E15set_deleted_keyERKS9_
ndh:__Z38RuntimeInvoker_ContentType_t1787303396PFvvEPK10MethodInfoPvPS4_
nFh:_ReadOnlyCollection_1_Contains_m1700717617_gshared
XUe:_AttrListImpl_get_Names_m977594476
t0h:__ZL53IFormatter_t3549834567_CustomAttributesCacheGeneratorP21CustomAttributesCache
xPc:_UNITY_FT_GlyphLoader_Done
Xki:__ZL89GUIStyle_t3956901511_CustomAttributesCacheGenerator_GUIStyle_get_stretchWidth_m3556443132P21CustomAttributesCache
Spd:_Pointer_Box_m389276611
GOf:_StackTrace_get_FrameCount_m344690939
zve:_UnexceptionalStreamWriter_Write_m363195622
xYb:__ZNK21IntermediateRenderers16GetBoundingBoxesEv
UPc:__ZN20TextRenderingPrivate25ReadFontFileAndAddToCacheERKN4core12basic_stringIcNS0_20StringStorageDefaultIcEEEE
qIc:_tt_cmap14_char_var_index
$Db:__Z35Transfer_Blittable_FixedBufferFieldI18StreamedBinaryReadILb0EEdEvRK29SerializationCommandArgumentsR31RuntimeSerializationCommandInfo
fLd:_Selectable_OnPointerDown_m1086067264
BMc:_psh_globals_new
dfd:_Dropdown_SetupTemplate_m628218778
mVf:_Thread_GetCompressedStack_m2923422412
cne:__ZN28GenericInterfaceFuncInvoker2IbP26X509Certificate_t713131622P22Int32U5BU5D_t385246372E6InvokeEPK10MethodInfoP12Il2CppObjectS1_S3_
Z1e:_SynchronizedArrayListWrapper_CopyTo_m4207791406
iMe:_X509BasicConstraintsExtension_ToString_m1809935297
Roa:__ZN9GfxDevice20SetMaxBufferedFramesEi
fPi:_TweenRunner_1_StartTween_m1055628540_gshared
rHh:_ReadOnlyCollection_1_System_Collections_IList_Remove_m4129318771_gshared
xsh:_GameObject_GetComponents_TisRuntimeObject_m1246177135_gshared
YK:__ZN24AudioScriptBufferManagerD2Ev
pYj:dynCall_vdd
owe:_MethodAccessException__ctor_m3542088436
m2b:__Z23ConvertIntegerToTypePtrIsEbPvR14SafeBinaryRead
JTg:_List_1_Insert_m2958195960_gshared
K0e:_ArrayListWrapper_get_Capacity_m51087796
MMd:_LayoutElement_get_minHeight_m4160507569
hlb:__ZN22MemoryCacherReadBlocksD2Ev
vAg:_EqualityComparer_1_System_Collections_IEqualityComparer_GetHashCode_m2230215241_gshared
wui:__ZL60ContentSizeFitter_t3850442145_CustomAttributesCacheGeneratorP21CustomAttributesCache
a4e:_Hashtable_Contains_m2145146412
xai:__ZL64UnmarshalledAttribute_t1517743549_CustomAttributesCacheGeneratorP21CustomAttributesCache
pec:__ZN4Mesh24UpdateSubMeshVertexRangeEi
ifg:_MaterialEffectPlayable_Equals_m3750885802
wjj:__ZNK15dense_hashtableINSt3__24pairIK10KeyWrapperINS1_IPK14Il2CppAssemblyP11Il2CppClassEEEjEES9_17ReflectionMapHashIS8_EN14dense_hash_mapIS9_jSD_NS9_14EqualsComparerINS0_8equal_toIS8_EEEENS0_9allocatorISB_EEE9SelectKeyESI_SK_E12test_deletedEj
LQj:__ZN6il2cpp2os9FastMutex4LockEv
Obf:_Int32_FindCurrency_m3541026887
$Re:_Interval_CompareTo_m3282557545
p3j:_pthread_cond_wait__wrapper
XVb:__ZNK14RenderSettings19GetFlatAmbientColorEv
Eya:__ZN6prcoreL10inner_flipILj4EEEvPhS1_j
Afb:__ZN18StreamedBinaryReadILb0EE21TransferSTLStyleArrayI10vector_mapIPKN5Unity4TypeE7Hash128NSt3__24lessIS6_EENS8_9allocatorINS8_4pairIS6_S7_EEEEEEEvRT_17TransferMetaFlags
$y:__ZNK27StateMachineBehaviourPlayer15IsSenderEnabledEv
Zti:__ZL58Text_t1901882714_CustomAttributesCacheGenerator_m_FontDataP21CustomAttributesCache
TFe:_GenericTypeParameterBuilder_IsPrimitiveImpl_m1952010459
YGh:_ReadOnlyCollection_1_CopyTo_m3474153465_gshared
PDi:_RijndaelManagedTransform_TransformBlock_m1610137419
Pnc:__Z40Register_UnityEngine_Transform_SetParentv
r2h:__ZL94WindowsIdentity_t2948242406_CustomAttributesCacheGenerator_WindowsIdentity_Dispose_m3466258450P21CustomAttributesCache
r9a:__ZN14Texture2DArray17UploadToGfxDeviceEv
TJ:__Z14FMODMemoryFreePvjPKc
ofi:__ZL100RectTransform_t3704657025_CustomAttributesCacheGenerator_RectTransform_INTERNAL_get_rect_m3130887130P21CustomAttributesCache
reg:_NetFxCoreExtensions_GetMethodInfo_m444570327
$Tb:__Z14SetSHConstantsR13BatchRendererR17ShaderPassContextRK20SphericalHarmonicsL2b
Q_e:_Char_System_IConvertible_ToDecimal_m3534906463
BDc:_cf2_glyphpath_moveTo
dVh:__ZL86MSCompatUnicodeTable_t1453885583_CustomAttributesCacheGenerator_U3CU3Ef__switchU24map4P21CustomAttributesCache
Hog:_StackTraceUtility_SetProjectFolder_m830524047
zv:__ZN7mecanim23TransformValueArrayLoopEiiiRKN4math4trsXES3_RNS_10ValueArrayEf
Vpe:_ClientSessionInfo_Finalize_m2165787049
Eqc:__ZN5IMGUI14GUIWindowStateD2Ev
Soe:_ClientContext_Clear_m1774063253
Bec:__ZN4Mesh17SetIndicesComplexEPKvjj16GfxPrimitiveTypeij
$Kf:_DateTime_AddSeconds_m332574389_AdjustorThunk
sqg:_RequestAtlasCallback_Invoke_m378128467
c_e:_Byte_System_IConvertible_ToSByte_m1869482168
m2g:__Z99RuntimeInvoker_RuntimeObject_RuntimeObject_RuntimeObject_StreamingContext_t3711869237_RuntimeObjectPFvvEPK10MethodInfoPvPS4_
hUi:_AnalyticsEventTracker_Awake_m2780522130
WB:__ZN7mecanim5human10RetargetToEPKNS0_5HumanEPKNS0_9HumanPoseES6_RKN4math4trsXEPS4_PNS_8skeleton13SkeletonPoseTIS8_EESF_
rv:__ZN7mecanim9animation8SeekClipERKNS0_12StreamedClipERNS0_18StreamedClipMemoryEf
Bfg:_GameObject_Internal_AddComponentWithType_m3797731663
sm:_emscripten_glIsTexture
Zk:_emscripten_glHint
lTi:_Check_SourceAndPredicate_m2332465641
Abh:__Z67RuntimeInvoker_Boolean_t97287965_TextGenerationSettings_t1351628751PFvvEPK10MethodInfoPvPS4_
kLc:_ft_var_readpackeddeltas
jof:_String_op_Inequality_m215368492
Txg:_Dictionary_2_Clear_m1938428402_gshared
DAb:__Z35Transfer_Blittable_FixedBufferFieldI18StreamedBinaryReadILb1EEtEvRK29SerializationCommandArgumentsR31RuntimeSerializationCommandInfo
x$f:_UInt32_System_IConvertible_ToInt64_m2261037378
vm:_SDL_UpperBlit
FYa:__Z35GetTextureDecodeValuesWithIntensity16TextureUsageMode17TextureColorSpace10ColorSpacef
xuf:_Array_InternalArray__ICollection_Remove_TisChar_t3634460470_m4143749387_gshared
lMb:__ZN15dense_hashtableINSt3__24pairIK9TextureIDiEES2_14GfxGenericHashIS2_EN14GfxDoubleCacheIS2_iS6_NS0_8equal_toIS2_EEN31GfxDoubleCacheConcurrencyPolicy11LocklessGetE42GfxDoubleCacheDefaultEmptyDeletedGeneratorIS2_EE9SelectKeyES9_13stl_allocatorIS4_L18MemLabelIdentifier24ELi16EEE14squash_deletedEv
Gpj:__ZN15dense_hashtableINSt3__24pairIK10KeyWrapperINS1_IPK9EventInfoP11Il2CppClassEEEjEES9_17ReflectionMapHashIS8_EN14dense_hash_mapIS9_jSD_NS9_14EqualsComparerINS0_8equal_toIS8_EEEENS0_9allocatorISB_EEE9SelectKeyESI_SK_E15set_deleted_keyERKSB_
Nmj:__ZN15dense_hashtableINSt3__24pairIK10KeyWrapperINS1_IPK12PropertyInfoP11Il2CppClassEEEjEES9_17ReflectionMapHashIS8_EN14dense_hash_mapIS9_jSD_NS9_14EqualsComparerINS0_8equal_toIS8_EEEENS0_9allocatorISB_EEE9SelectKeyESI_SK_ED2Ev
RRf:_Encoding_GetBytes_m3823106599
D6e:_GregorianCalendar__ctor_m979779718
kte:_SslClientStream__ctor_m2402546929
AGb:__ZN14SafeBinaryRead20OverrideRootTypeNameEPKc
qIe:_DictionaryNodeEnumerator_get_Entry_m2309234501
n6i:__ZNK10KeyWrapperIPK22Il2CppGenericParameterE14EqualsComparerINSt3__28equal_toIS2_EEEclERKS3_SA_
r1:__ZN14FileCacherRead16UnlockCacheBlockEj
hHg:_Enumerator_Dispose_m951715887_AdjustorThunk
p$d:_InternalEnumerator_1_System_Collections_IEnumerator_Reset_m521819017_AdjustorThunk
_ff:_IsolatedStorageException__ctor_m1022659452
G9:__ZN10InstancingL21OnGraphicsCapsChangedEv
hub:__Z18Transfer_BlittableI17RemapPPtrTransferLb1E8Vector3fEvRK29SerializationCommandArgumentsR31RuntimeSerializationCommandInfo
MZh:__ZL61ClassInterfaceType_t4029497327_CustomAttributesCacheGeneratorP21CustomAttributesCache
mXf:_WaitHandle_get_Handle_m3260446580
_Hg:_Enumerator_VerifyState_m1745883925_AdjustorThunk
Nc:_emscripten_glUniform1f
PCf:_SortedList__ctor_m1261191695
wMh:_ReadOnlyCollection_1_System_Collections_IList_get_IsReadOnly_m165706550_gshared
wZg:__Z75RuntimeInvoker_Int32_t2950945753_DecimalU26_t3714369516_Int64U26_t200113976PFvvEPK10MethodInfoPvPS4_
aQc:__Z20ParseImageParametersR11UTF16StringRiRN20TextRenderingPrivate16TextFormatChangeE
lui:__ZL55CanvasScaler_t2767979955_CustomAttributesCacheGeneratorP21CustomAttributesCache
jDh:_Collection_1_RemoveItem_m2942561924_gshared
Sc:_emscripten_glUniform1i
Xvb:__Z18Transfer_BlittableI24GenerateTypeTreeTransferLb1EN4math12int3_storageEEvRK29SerializationCommandArgumentsR31RuntimeSerializationCommandInfo
cC:__ZN12_GLOBAL__N_119PreProcessAnimationER35AnimationPlayableEvaluationConstantR17AnimationPlayable
nRd:__Z14bankers_roundff
pka:__ZN9ShaderLab16SerializedTagMapaSERKS0_
rS:__ZN11UnityEngine15CloudWebService16SessionContainer20RestoreSessionHeaderERKN4core12basic_stringIcNS2_20StringStorageDefaultIcEEEES8_RNS0_13SessionHeaderE
C3c:__ZN22UnityWebRequestManager13BackendRetainEv
Yfc:__ZN8Material28ApplyMaterialPropertyDrawersEv
XPj:__ZN6il2cpp2os12Cryptography23GetCryptographyProviderEv
U6i:__ZN24dense_hashtable_iteratorINSt3__24pairIK10KeyWrapperIPK22Il2CppGenericParameterEP11Il2CppClassEES6_N6il2cpp5utils11PointerHashIS4_EEN14dense_hash_mapIS6_S9_SE_NS6_14EqualsComparerINS0_8equal_toIS5_EEEENS0_9allocatorISA_EEE9SelectKeyESJ_SL_E30advance_past_empty_and_deletedEv
hD:__ZN11UnityEngine9Animation27CreateAvatarBindingConstantER9TransformPKN7mecanim9animation14AvatarConstantERNS3_6memory9AllocatorE
nJe:_MonoTODOAttribute__ctor_m1298576268
WOd:_MaskableGraphic_get_onCullStateChanged_m3331479633
C1g:__Z151RuntimeInvoker_RuntimeObject_Int32_t2950945753_RuntimeObject_ObjectU5BU5DU26_t712384779_RuntimeObject_RuntimeObject_RuntimeObject_ObjectU26_t2146539884PFvvEPK10MethodInfoPvPS4_
Shc:__ZN9BlobWriteC2ER13dynamic_arrayIhLj16EE24TransferInstructionFlags19BuildTargetPlatform
Mbd:_CanvasUpdateRegistry__ctor_m2005397069
fdi:__ZL77Input_t1431474628_CustomAttributesCacheGenerator_Input_GetAxisRaw_m2316819917P21CustomAttributesCache
E$:__ZN14MessageHandler3GetEv
hnd:_MonoMethodInfo_GetCallingConvention_m3156036493
ANd:_LayoutGroup_SetLayoutInputForAxis_m2458344630
ed:_emscripten_glAttachShader
Qoa:__ZN9GfxDevice13SetActiveTierE12GraphicsTier
Jjd:_Image__cctor_m1927508576
XVf:_SendOrPostCallback_EndInvoke_m2485163446
Hka:__ZNSt3__26vectorIN4core12basic_stringIcNS1_20StringStorageDefaultIcEEEENS_9allocatorIS5_EEE6assignIPS5_EENS_9enable_ifIXaasr21__is_forward_iteratorIT_EE5valuesr16is_constructibleIS5_NS_15iterator_traitsISC_E9referenceEEE5valueEvE4typeESC_SC_
UPj:__ZN6il2cpp6icalls8mscorlib6System21CurrentSystemTimeZone15GetTimeZoneDataEiPP11Il2CppArrayS6_
iae:_Enumerator__ctor_m1195706188_gshared
KRh:__ZL76String_t_CustomAttributesCacheGenerator_String_Concat_m1809518182____values0P21CustomAttributesCache
uqb:__Z18Transfer_BlittableI14SafeBinaryReadLb0E11QuaternionfEvRK29SerializationCommandArgumentsR31RuntimeSerializationCommandInfo
JDb:__Z18Transfer_BlittableI18StreamedBinaryReadILb0EELb1E12PropertyNameEvRK29SerializationCommandArgumentsR31RuntimeSerializationCommandInfo
_W:_tlsf_walk_heap
r1g:__Z49RuntimeInvoker_Void_t1185182177_OpCode_t123070264PFvvEPK10MethodInfoPvPS4_
avj:__ZNK15dense_hashtableINSt3__24pairIK10KeyWrapperIP11Il2CppClassES4_EES5_N6il2cpp8metadata16SZArrayClassHashEN14dense_hash_mapIS5_S4_SA_NS5_14EqualsComparerINS9_19SZArrayClassCompareEEENS0_9allocatorIS7_EEE9SelectKeyESE_SG_E10test_emptyERK24dense_hashtable_iteratorIS7_S5_SA_SI_SE_SG_E
vah:__Z69RuntimeInvoker_Void_t1185182177_Int32_t2950945753_HitInfo_t3229609740PFvvEPK10MethodInfoPvPS4_
qji:__ZL59AnimatorClipInfo_t3156717155_CustomAttributesCacheGeneratorP21CustomAttributesCache
hJf:_Convert_ToUInt32_m3592050311
kb:invoke_vif
msh:_Component_GetComponents_TisRuntimeObject_m2416546752_gshared
lb:invoke_vid
i3d:_InternalEnumerator_1__ctor_m2202456613_AdjustorThunk
pWj:__ZNSt3__212basic_stringIcNS_11char_traitsIcEENS_9allocatorIcEEE6insertEjPKc
nb:invoke_vii
wPb:__ZNK12ImageFilters8DoRenderER17ShaderPassContextP13RenderTextureS3_RKNSt3__26vectorI11ImageFilterNS4_9allocatorIS6_EEEE
NLa:__ZN12TLSAllocatorI14StackAllocatorE16ThreadInitializeEP13BaseAllocator
R2g:__Z82RuntimeInvoker_Boolean_t97287965_SByte_t1669577662_RuntimeObject_SByte_t1669577662PFvvEPK10MethodInfoPvPS4_
ppa:__ZN9GfxDevice32UpdateStereoViewProjectionMatrixE21MonoOrStereoscopicEye
K8i:_Main_inMajor_m522887121
IVc:__Z41CanvasRenderer_CUSTOM_DisableRectClippingP12Il2CppObject
Cvg:_Dictionary_2__ctor_m1324730059_gshared
Axe:_MonoType_GetConstructorImpl_m441167626
led:_DefaultControls_CreateRawImage_m4219873755
Ixh:_Collection_1_IsFixedSize_m3709118201_gshared
$Pa:__ZN25SingleBlockMemoryFileDataD0Ev
ULa:__ZNSt3__26vectorI14ConstantStringNS_9allocatorIS1_EEE6assignINS_11__wrap_iterIPS1_EEEENS_9enable_ifIXaasr21__is_forward_iteratorIT_EE5valuesr16is_constructibleIS1_NS_15iterator_traitsISA_E9referenceEEE5valueEvE4typeESA_SA_
AMh:_ReadOnlyCollection_1_CopyTo_m586367390_gshared
mS:__ZN11UnityEngine15CloudWebService16SessionContainer21ConvertFromFolderTimeERKN4core12basic_stringIcNS2_20StringStorageDefaultIcEEEEPjPt
MFd:_CodeAccessPermission_Equals_m1555575992
fsb:__ZNSt3__26vectorI8GUIStyle13stl_allocatorIS1_L18MemLabelIdentifier1ELi16EEE7reserveEj
zHh:_ReadOnlyCollection_1_Contains_m3869904379_gshared
Swj:__ZN6il2cpp6icalls8mscorlib6System9Threading6Thread27GetSerializedCurrentCultureEP12Il2CppThread
uxf:__ZN21InterfaceFuncInvoker2IibbE6InvokeEjP11Il2CppClassP12Il2CppObjectbb
qqe:_Context_set_ReadSequenceNumber_m2154909392
KDi:_RijndaelTransform_SubByte_m3037693507
Nch:__Z108RuntimeInvoker_Boolean_t97287965_RuntimeObject_RayU26_t3515555043_Int32U26_t1369213839_SingleU26_t1922108698PFvvEPK10MethodInfoPvPS4_
B3b:__Z31CalculateHierarchyTransformType23TransformAccessReadOnly
v5b:__Z13RegisterClassI11TimeManagerEvv
KJ:__ZN4FMOD8ChannelI11setPositionEjj
egg:_Input_INTERNAL_CALL_GetTouch_m3481893561
PLj:_GC_set_fl_marks
Xhb:__ZNSt3__26vectorIN30RuntimeInitializeOnLoadManager15ClassMethodInfoE13stl_allocatorIS2_L18MemLabelIdentifier13ELi16EEE7reserveEj
spa:__ZN9GfxDevice17SetStereoViewportE15StereoscopicEyeRK5RectTIiE
Yfa:__ZN17BaseObjectManager13StaticDestroyEPv
c3i:_CanvasRenderer_INTERNAL_CALL_GetColor_m597074473
l8d:_Comparer_1__cctor_m3891417387_gshared
GUf:_UTF7Decoder_GetChars_m3413809261
Pdi:__ZL81Shader_t4151988712_CustomAttributesCacheGenerator_Shader_PropertyToID_m1030499873P21CustomAttributesCache
SSh:__ZL70RuntimeArray_CustomAttributesCacheGenerator_Array_get_Rank_m3448755881P21CustomAttributesCache
WEe:_EnumBuilder_GetEvent_m4074915332
Dh:_sysconf
Npg:_Vector3_get_forward_m3100859705
uPf:_Double_Equals_m2309369974_AdjustorThunk
BI:__ZN4FMOD6Reverb13setPropertiesEPK22FMOD_REVERB_PROPERTIES
fuj:__ZN15dense_hashtableINSt3__24pairIK10KeyWrapperIP11Il2CppClassES4_EES5_N6il2cpp8metadata16SZArrayClassHashEN14dense_hash_mapIS5_S4_SA_NS5_14EqualsComparerINS9_19SZArrayClassCompareEEENS0_9allocatorIS7_EEE9SelectKeyESE_SG_E5clearEv
hRb:__ZN9DepthPass13PrepareSubsetEjRK10RenderNodeifRK17ShaderReplaceData
Tqf:_String_IndexOf_m3406607758
uja:__ZN9ShaderLab20SerializedSubProgram16TextureParameter8TransferI14SafeBinaryReadEEvRT_
Iec:__Z35SetMeshComponentFromArrayFromScriptR4Mesh30InternalScriptingShaderChannel34InternalScriptingVertexChannelTypei17ScriptingArrayPtri
Lla:__ZN4PPtrI6ShaderE8TransferI19StreamedBinaryWriteILb0EEEEvRT_
$zf:_Array_InternalArray__ICollection_Add_TisCustomAttributeNamedArgument_t287865710_m4157175270_gshared
qq:__ZN4core20StringStorageDefaultIcE6assignEPKcj
C0f:_UInt64_System_IConvertible_ToUInt64_m2135047981_AdjustorThunk
ije:_BigInteger_ModPow_m3776562770
lDj:__ZN15dense_hashtableINSt3__24pairIK10KeyWrapperIP12Il2CppObjectEN6il2cpp2gc9CachedCCWEEES5_NS7_5utils11PointerHashIS3_EEN14dense_hash_mapIS5_S9_SD_NS5_14EqualsComparerINS0_8equal_toIS4_EEEENS0_9allocatorISA_EEE9SelectKeyESI_SK_E3endEv
bff:_BinaryReader_ReadInt64_m939370142
rse:_RecordProtocol_ProcessChangeCipherSpec_m15839975
l0e:_ArrayList_IndexOf_m305368842
lVg:_List_1_Add_m2996644200_gshared
j_b:__ZN6Camera6SetFarEf
$Bd:_FormatterConverter_ToBoolean_m1680758923
Uza:__ZN6prcoreL12RemapGenericI17TexFormatABGR888817TexFormatARGB8888EEvPKNS_9InnerInfoE
WQa:__ZN11GameManager17MainThreadCleanupEv
HDf:_Stack_get_Count_m2258661097
tFh:_ReadOnlyCollection_1__ctor_m1345363288_gshared
oXc:__Z50Register_UnityEngine_UISystemProfilerApi_EndSamplev
Xtg:_Dictionary_2_System_Collections_ICollection_get_SyncRoot_m2020472285_gshared
b5d:_InternalEnumerator_1_System_Collections_IEnumerator_Reset_m1775752715_AdjustorThunk
Jb:invoke_vffff
Iai:__ZL91Application_t1852185770_CustomAttributesCacheGenerator_Application_get_isPlaying_m100394690P21CustomAttributesCache
VMb:__ZZ23InitPlayerLoopCallbacksvEN45EarlyUpdateRendererNotifyInvisibleRegistrator7ForwardEv
_td:_ConfigHandler_OnProcessingInstruction_m4212209262
XQg:_List_1_Reverse_m3290386475_gshared
aDd:_SerializationCallbacks_GetSerializationCallbacks_m2939476649
K3e:_Hashtable__cctor_m4112166779
VJc:_UNITY_tt_slot_init
mNb:__ZZ23InitPlayerLoopCallbacksvEN41PostLateUpdateUpdateResolutionRegistrator7ForwardEv
Jde:_KeyCollection_GetEnumerator_m1168803204_gshared
uFb:__Z25scripting_array_class_get17ScriptingClassPtrj
rvc:__ZL22Transfer_ManagedObjectI9JSONWriteLb1EEvRK29SerializationCommandArgumentsR31RuntimeSerializationCommandInfo
EF:__ZNK10SampleClip22GetTypeVirtualInternalEv
Bqa:__ZN9GfxDevice20DestroyRenderSurfaceER12ObjectHandleI17RenderSurface_TagP17RenderSurfaceBaseE
EDf:_Stack__ctor_m2602729586
A_i:__ZL25UnresolvedVirtualCall_203P12Il2CppObject6Guid_tS1_PK10MethodInfo
SXg:__Z77RuntimeInvoker_Byte_t1134296376_RuntimeObject_Int32_t2950945753_RuntimeObjectPFvvEPK10MethodInfoPvPS4_
k4b:__ZL24PrepareSpriteRenderNodesILb1EEvR35RenderNodeQueuePrepareThreadContext
JJa:__ZN9GfxDevice22UpdateComputeResourcesEjPK9TextureIDPK16TextureDimensionPKijPKjjPK15ComputeBufferIDS7_PK20ComputeBufferCounterjSC_S2_S5_S9_SF_
g2:__ZN12_GLOBAL__N_15qAsinEff
zdg:_Display__ctor_m3105658851
oCf:_HashValues_get_IsSynchronized_m3461082747
G_d:_InternalEnumerator_1_System_Collections_IEnumerator_get_Current_m2629988057_AdjustorThunk
OLa:__ZN12TLSAllocatorI14StackAllocatorE13ThreadCleanupEv
gG:__Z18GetAudioManagerPtrv
vpe:_Context_get_HandshakeMessages_m3655705111
xJj:__ZThn4_N6il2cpp2vm13ComObjectBase16MarshalInterfaceEP13Il2CppIStreamRK10Il2CppGuidPvjS7_j
UGf:_Convert_ToDouble_m996590115
iIb:__Z27FindActiveTransformWithPathPKc
CLg:_List_1_System_Collections_IEnumerable_GetEnumerator_m3790284976_gshared
DJh:_ReadOnlyCollection_1_System_Collections_IList_Remove_m4169110229_gshared
b$f:_UInt16_ToString_m3020002356
YNd:_LayoutRebuilder_LayoutComplete_m68578143
Rej:_RequiredByNativeCodeAttribute__ctor_m119855101
VSa:__ZN12BaseRendererD0Ev
d2b:__Z29StdTemplateConversionFunctionIbyEbPvR14SafeBinaryRead
GDi:_RijndaelManaged_GenerateKey_m1736287430
vRi:_GUIStyle_get_fixedWidth_m2576616348
Doi:__ZL90PointerEventData_t3807901092_CustomAttributesCacheGenerator_U3ClastPressU3Ek__BackingFieldP21CustomAttributesCache
dDf:_SortedList_Find_m3363512987
HY:__ZNK6Camera7GetNearEv
EFe:_GenericTypeParameterBuilder_GetConstructorImpl_m863833310
Ice:_Enumerator_get_Current_m3687673883_AdjustorThunk
PCa:__ZN7ApiGLES11UnmapBufferEjN2gl12BufferTargetE
LJj:__ZN6il2cpp5utilsL24Utf32CharToSurrogatePairEjRA2_Ds
k4a:__Z25GetNextAllowedTextureSizeib13TextureFormat
aIb:__ZN20LocalFileSystemWebGL4CopyER13FileEntryDataS1_
YU:__ZN19CloudServiceHandler6RetainEv
LRj:__ZN6il2cpp2os9Semaphore4WaitEb
jGh:_ReadOnlyCollection_1_System_Collections_IList_IndexOf_m198887188_gshared
nrc:__Z36Event_CUSTOM_Internal_SetNativeEventPv
YTf:_UTF32Encoding_GetBytes_m3180303867
P3:__ZN12BaseRenderer20FlattenToRenderQueueER15RenderNodeQueueRK20DeprecatedSourceData
vVg:_List_1_CopyTo_m4034402519_gshared
RHh:_ReadOnlyCollection_1_System_Collections_IList_Clear_m2007013334_gshared
Okb:__Z34scripting_liveness_calculation_endPv
fFj:__ZN6il2cpp2os6ThreadC2Ev
YWd:_U3CGetEnumeratorU3Ec__Iterator0_System_Collections_Generic_IEnumeratorU3CTU3E_get_Current_m1566629109_gshared
aMf:_DateTimeOffset_get_UtcDateTime_m1021718282_AdjustorThunk
Rfa:__ZN16memory_pool_implILi64EE15AutoPoolWrapper12UninitializeEPv
Ou:__ZN21AnimationClipPlayable22ProcessAnimationNoClipEPK35AnimationPlayableEvaluationConstantPK32AnimationPlayableEvaluationInputP33AnimationPlayableEvaluationOutput
NHe:_HybridDictionary_get_Count_m1166314536
Gzi:_TlsStream_Write_m1412844442
Twc:__Z18Transfer_BlittableI8JSONReadLb0E8Vector3fEvRK29SerializationCommandArgumentsR31RuntimeSerializationCommandInfo
UAi:_X509CertificateEnumerator_get_Current_m1004537031
ivj:__ZN6il2cpp2vm6Thread6DetachEP12Il2CppThread
hAi:_GeneralNames_get_DNSNames_m3788548987
VKg:_List_1_AddCollection_m2026039026_gshared
tPe:_X509ChainStatus_get_Status_m2572005749_AdjustorThunk
dBc:__GLOBAL__sub_I_runtime_dynamics_2_cpp
QDd:_SerializationEntry_t648286436_marshal_pinvoke
nD:__ZN7mecanim8skeleton30SkeletonBuildReverseIndexArrayEPiPKiPKNS0_8SkeletonES6_
spc:__Z19GetGUIBlendMaterialv
dwe:_Math_Round_m3018379666
O3g:__Z41RuntimeInvoker_Boolean_t97287965_IntPtr_tPFvvEPK10MethodInfoPvPS4_
XFj:__ZN6il2cpp2os10ThreadImpl5SleepEjb
Efe:__ZN28GenericInterfaceFuncInvoker1IbbE6InvokeEPK10MethodInfoP12Il2CppObjectb
lGh:_ReadOnlyCollection_1_System_Collections_IList_Remove_m1965826685_gshared
Bvc:__ZN9JSONWrite8TransferI13GUIStyleStateEEvRT_PKc17TransferMetaFlags
$Nf:_Delegate_CreateDelegate_m1051651521
Evf:_PlayableHandle_IsPlayableOfType_TisRuntimeObject_m503495943_AdjustorThunk
T1j:_glBindSampler__wrapper
NQa:__ZNSt3__26vectorIN20ArchiveStorageHeader12StorageBlockE13stl_allocatorIS2_L18MemLabelIdentifier55ELi16EEE8__appendEj
Mf:_emscripten_set_mouseup_callback
phg:_Mathf_Clamp_m3350697880
yJa:__ZN9GfxDevice27SetRandomWriteTargetTextureEi9TextureID
Jwg:_Dictionary_2_System_Collections_Generic_ICollectionU3CSystem_Collections_Generic_KeyValuePairU3CTKeyU2CTValueU3EU3E_Contains_m3033743418_gshared
c3g:__Z165RuntimeInvoker_Void_t1185182177_UInt32U26_t3735378166_Int32_t2950945753_UInt32U26_t3735378166_Int32_t2950945753_Int32_t2950945753_Int32_t2950945753_Int32_t2950945753PFvvEPK10MethodInfoPvPS4_
LKg:_List_1_System_Collections_IList_Remove_m3140917266_gshared
KRf:_Encoding_get_DecoderFallback_m1525880676
O$h:__ZL59ITrackingHandler_t1244553475_CustomAttributesCacheGeneratorP21CustomAttributesCache
pGi:_CompositeExpression__ctor_m2434860303
nHd:_DSASignatureDeformatter__ctor_m2759753186
kPe:_X509ChainElementCollection_System_Collections_IEnumerable_GetEnumerator_m3829089536
$Bh:_Collection_1_System_Collections_IEnumerable_GetEnumerator_m801406918_gshared
l0b:__ZNK18ScreenManagerWebGL8GetWidthEv
fej:__ZN6il2cpp2vm13MetadataCache33GetFieldDefaultValueDataFromIndexEi
BF:__ZN10SampleClipD2Ev
rLi:_InvokableCall_1_remove_Delegate_m790146436_gshared
hQh:_Predicate_1_Invoke_m2389850270_gshared
WFj:__ZN6il2cpp2os10ThreadImpl13SetWaitObjectEPNS0_5posix15PosixWaitObjectE
hkb:__Z13GetGISettingsv
Vyh:_Collection_1_RemoveAt_m1813368096_gshared
IU:__ZN11UnityEngine15CloudWebService20WebRequestRestClientC2Ev
mFc:_cff_cmap_unicode_init
Ktf:_Array_InternalArray__ICollection_Contains_TisRuntimeObject_m4067783231_gshared
u1:__ZN14FileCacherRead13GetFileLengthEv
HMi:_UnityAction_1_EndInvoke_m542551745_gshared
kwh:_Collection_1_IsValidItem_m3080586124_gshared
efd:_DropdownItem_set_text_m3702712387
mcd:_ClipperRegistry_Register_m2407166513
RUj:_readlink
hnj:__ZN15dense_hashtableINSt3__24pairIK10KeyWrapperINS1_IPK9EventInfoP11Il2CppClassEEEjEES9_17ReflectionMapHashIS8_EN14dense_hash_mapIS9_jSD_NS9_14EqualsComparerINS0_8equal_toIS8_EEEENS0_9allocatorISB_EEE9SelectKeyESI_SK_E12resize_deltaEjj
cnd:_MonoCMethod_Invoke_m2700167622
tCf:_KeyMarker__cctor_m2590194914
eae:_Enumerator_Reset_m627751027_AdjustorThunk
Cdb:__ZNK6Sprite9GetBoundsE8Vector2fbb
jUa:__ZNK19RenderEventsContext21CleanupCommandBuffersEv
n2i:_TextGenerator_PopulateWithErrors_m1222498386
ILg:_List_1_System_Collections_Generic_ICollectionU3CTU3E_get_IsReadOnly_m507350231_gshared
vua:__ZN11ContextGLES6CreateEi
T2i:_WillRenderCanvases_BeginInvoke_m1804779886
Fah:__Z52RuntimeInvoker_Boolean_t97287965_Vector3_t3722313464PFvvEPK10MethodInfoPvPS4_
kOg:_List_1_set_Capacity_m3382070520_gshared
_eh:__Z68RuntimeInvoker_Boolean_t97287965_RuntimeObject_ObjectU26_t2146539884PFvvEPK10MethodInfoPvPS4_
wMd:_U3CMouseDragOutsideRectU3Ec__Iterator1_Dispose_m267465418
CNf:_Decimal_CompareTo_m3502307243_AdjustorThunk
xEb:__Z19TransferField_ArrayI18StreamedBinaryReadILb0EE27Converter_SimpleNativeClassI17AnimationCurveTplIfEEEvRK23StaticTransferFieldInfoR31RuntimeSerializationCommandInfoRT0_
pLa:__ZN14StackAllocator16FrameMaintenanceEb
ENa:__Z18ReadStringFromFilePN4core17string_with_labelILi1EEERKNS_12basic_stringIcNS_20StringStorageDefaultIcEEEE
mRd:_Scrollbar_get_value_m760470106
MY:__ZNK10GameObject20QueryComponentByTypeEPKN5Unity4TypeE
VMf:_Decimal_System_IConvertible_ToInt32_m1488426794_AdjustorThunk
Gwe:_MonoCustomAttrs_IsUserCattrProvider_m2878058089
Cdh:__Z69RuntimeInvoker_Boolean_t97287965_RuntimeObject_Vector2U26_t2376273893PFvvEPK10MethodInfoPvPS4_
Xri:__ZL71InputField_t3762917431_CustomAttributesCacheGenerator_m_HideMobileInputP21CustomAttributesCache
w3a:__ZN11TextureData5ResetEv
$jc:__Z53Register_UnityEngine_GameObject_get_activeInHierarchyv
emf:_ToBase64Transform_InternalTransformFinalBlock_m360524956
cVe:_ActivationContext_Dispose_m2038725770
Ztb:__Z35Transfer_Blittable_FixedBufferFieldI17RemapPPtrTransferiEvRK29SerializationCommandArgumentsR31RuntimeSerializationCommandInfo
Y_:__ZL30InitializeCoreScriptingClassesv
nKh:_ReadOnlyCollection_1_Contains_m1699971074_gshared
L2d:_InternalEnumerator_1_Dispose_m630370856_AdjustorThunk
Jg:_glBlitFramebuffer
DOa:__ZN17ArchiveFileSystem5TouchER13FileEntryData
Qde:_KeyCollection_System_Collections_Generic_IEnumerableU3CTKeyU3E_GetEnumerator_m818204647_gshared
Utb:__Z35Transfer_Blittable_SingleValueFieldI14SafeBinaryReadhEvRT_R17GeneralMonoObjectRK23StaticTransferFieldInfo
tdc:__ZN12CachedWriter15CompleteWritingEv
B2a:__ZNK12CubemapArray22GetTypeVirtualInternalEv
Vn:FUNCTION_TABLE_vif
Wn:FUNCTION_TABLE_vid
Crh:_Dictionary_2_Do_CopyTo_TisInt32_t2950945753_TisRuntimeObject_m213146570_gshared
Yn:FUNCTION_TABLE_vii
Zkb:__Z40scripting_liveness_calculation_from_root18ScriptingObjectPtrPv
TDd:_SerializationEntry__ctor_m1411687997_AdjustorThunk
a$h:__ZL65IContributeDynamicSink_t2255997386_CustomAttributesCacheGeneratorP21CustomAttributesCache
y$a:__ZN7Texture23VirtualRedirectTransferER24GenerateTypeTreeTransfer
ROc:_UNITY_FT_Set_Transform
x9b:__ZNK32RendererMaterialAnimationBinding12SetPPtrValueERKN11UnityEngine9Animation10BoundCurveEi
oCj:__ZN6il2cpp8metadata15GenericMetadata20RegisterGenericClassEP18Il2CppGenericClass
w1j:_glDeleteFramebuffers__wrapper
hvh:_Collection_1_System_Collections_IList_get_IsFixedSize_m2620019318_gshared
z$g:__Z220RuntimeInvoker_Boolean_t97287965_RuntimeObject_Int32U26_t1369213839_Int32_t2950945753_Int32_t2950945753_Int32_t2950945753_RuntimeObject_SByte_t1669577662_Int32_t2950945753_ContractionU26_t961830454_ContextU26_t3937453398PFvvEPK10MethodInfoPvPS4_
Khe:_Enumerator__ctor_m920120158_AdjustorThunk
Gjg:_Playable_Equals_m328753404_AdjustorThunk
MWh:__ZL78TextInfo_t3810425522_CustomAttributesCacheGenerator_TextInfo_Clone_m3838580862P21CustomAttributesCache
uDc:_cff_blend_build_vector
mLe:_WebHeaderCollection_ToString_m1263025316
s2d:_InternalEnumerator_1_MoveNext_m1015797184_gshared
X9b:__ZZN12MeshRenderer15InitializeClassEvEN29FunctorImpl_134kDidDeleteMesh4CallEPviR11MessageData
W1g:__Z91RuntimeInvoker_Void_t1185182177_RuntimeObject_RuntimeObject_RuntimeObject_Int32_t2950945753PFvvEPK10MethodInfoPvPS4_
kpd:_GetterAdapter_Invoke_m3767885970
mPg:_List_1__ctor_m747758800_gshared
HVd:_SpriteState_set_pressedSprite_m3368686500_AdjustorThunk
qsf:_String_CreateString_m2818852475
RGg:_Enumerator_get_Current_m335492761_AdjustorThunk
H5a:__ZN28EnlightenRendererInformation8TransferI14SafeBinaryReadEEvRT_
A3i:_CanvasRenderer_get_hasMoved_m2236392341
_ig:_MessageEvent__ctor_m1231650089
Jha:__ZNK15Lz4Decompressor16DecompressMemoryEPKvPjPvS2_
nwe:_MemberAccessException__ctor_m3713703094
NTa:__Z11IsCoroutine18ScriptingMethodPtrRK22CommonScriptingClasses
GXh:__ZL117GenericTypeParameterBuilder_t1988827940_CustomAttributesCacheGenerator_GenericTypeParameterBuilder_Equals_m3260957994P21CustomAttributesCache
y4b:__ZN4core8hash_mapINS_12basic_stringIcNS_20StringStorageDefaultIcEEEE10vector_setI4PPtrI11SpriteAtlasENSt3__24lessIS8_EE13stl_allocatorIS8_L18MemLabelIdentifier81ELi16EEENS_4hashIS4_EENS9_8equal_toIS4_EEEixERKS4_
zh:_glGetAttribLocation
GXi:__ZL24UnresolvedVirtualCall_47P12Il2CppObject20DateTime_t3738529785PK10MethodInfo
y1a:__Z35UnityPropertySheet_MakeSortedColorsRKNSt3__23mapIN9ShaderLab16FastPropertyNameE10ColorRGBAfNS_4lessIS2_EENS_9allocatorINS_4pairIKS2_S3_EEEEEER10vector_mapIS2_S3_S5_NS6_INS7_IS2_S3_EEEEE
r9h:__ZL72PKCS12_t4101533061_CustomAttributesCacheGenerator_U3CU3Ef__switchU24map8P21CustomAttributesCache
HHc:_UNITY_tt_face_load_os2
Yai:__ZL90Coroutine_t3829159415_CustomAttributesCacheGenerator_Coroutine_ReleaseCoroutine_m809189848P21CustomAttributesCache
mtb:__Z29Transfer_Blittable_ArrayFieldI14SafeBinaryRead8Vector4fEvRT_R9ArrayInfoRK23StaticTransferFieldInfo
oCe:_Default_check_arguments_m3882727959
Q3e:_Hashtable_get_IsSynchronized_m1426775249
_Uf:_UTF8Encoding_GetMaxCharCount_m3762459613
vDe:_ModuleBuilder_RegisterToken_m4166846047
dNb:__ZZ23InitPlayerLoopCallbacksvEN51PostLateUpdateUpdateCustomRenderTexturesRegistrator7ForwardEv
gQd:_RawImage_OnPopulateMesh_m1115858855
_0g:__Z74RuntimeInvoker_MonoFileType_t221779374_IntPtr_t_MonoIOErrorU26_t1548853198PFvvEPK10MethodInfoPvPS4_
tej:__ZN6il2cpp2vm13MetadataCache25GetStringLiteralFromIndexEi
DVe:_Hashtable_ToPrime_m33531354
kv:__ZN7mecanim9animation12EvaluateClipEPKNS0_4ClipEPKNS0_9ClipInputEPNS0_10ClipMemoryEPNS0_10ClipOutputE
GCh:_Collection_1_IsSynchronized_m1117613618_gshared
Bde:_KeyCollection_System_Collections_Generic_ICollectionU3CTKeyU3E_Remove_m2555909644_gshared
ktb:__ZN15SerializeTraitsI13dynamic_arrayI5RectTIfELj4EEE19ResizeSTLStyleArrayERS3_i
g_f:_TypeInitializationException__ctor_m3546444694
jgc:__ZNK9Transform16GetLocalRotationEv
qce:_Enumerator_System_Collections_IEnumerator_Reset_m4278714428_gshared
S5a:__ZN4PPtrI11LightProbesE8TransferI18StreamedBinaryReadILb0EEEEvRT_
dU:__ZN11UnityEngine15CloudWebService23WebRequestUploadHandler17ConsumeUploadDataEj
Mfj:__ZNSt3__214__split_bufferI6pollfdRNS_9allocatorIS1_EEEC2EjjS4_
Itd:_CrossAppDomainData_get_DomainID_m3516796532
Ahf:_MemoryStream_set_Position_m3169779190
bZb:__ZN13RenderManager29SetCurrentCameraAndStackStateEP6CameraP25CameraStackRenderingState
f7c:_ExecuteEvents_get_scrollHandler_m2659345019
JSa:__ZNSt3__26__treeINS_12__value_typeIjN4core12basic_stringIcNS2_20StringStorageDefaultIcEEEEEENS_19__map_value_compareIjS7_NS_4lessIjEELb1EEE13stl_allocatorIS7_L18MemLabelIdentifier7ELi16EEE7destroyEPNS_11__tree_nodeIS7_PvEE
Vuj:__ZN15dense_hashtableINSt3__24pairIK10KeyWrapperINS1_IP11Il2CppClassjEEES4_EES6_N6il2cpp8metadata14ArrayClassHashEN14dense_hash_mapIS6_S4_SB_NS6_14EqualsComparerINSA_17ArrayClassCompareEEENS0_9allocatorIS8_EEE9SelectKeyESF_SH_E12resize_deltaEjj
Yh:_JS_WebRequest_Release
lme:_RSAManaged_get_PublicOnly_m405847294
NS:__ZN11UnityEngine15CloudWebService14DataErrorEventD0Ev
Kyj:__ZN6il2cpp6icalls8mscorlib6System4Type20internal_from_handleEi
eai:__ZL72RequiredByNativeCodeAttribute_t4130846357_CustomAttributesCacheGeneratorP21CustomAttributesCache
ake:_ASN1_get_Tag_m2789147236
Dud:_Context__ctor_m254302079
kCj:__ZN6il2cpp8metadata15GenericMetadata7InflateEPK19Il2CppGenericMethodPK20Il2CppGenericContext
v8f:_KeyGeneratedEventHandler_EndInvoke_m3057317531
Y4a:__ZN19ShaderPropertySheet16SetArrayPropertyEN9ShaderLab16FastPropertyNameENS_12PropertyTypeEPKvj
WRd:_Selectable_FindSelectable_m2348614027
Jdd:_FloatTween_get_duration_m1227071020
TCj:__ZN15dense_hashtableINSt3__24pairIK10KeyWrapperIP12Il2CppObjectEN6il2cpp2gc9CachedCCWEEES5_NS7_5utils11PointerHashIS3_EEN14dense_hash_mapIS5_S9_SD_NS5_14EqualsComparerINS0_8equal_toIS4_EEEENS0_9allocatorISA_EEE9SelectKeyESI_SK_E16reset_thresholdsEv
Nfd:_DropdownItem_OnPointerEnter_m1492957598
sSc:__ZN2UI11CanvasGroup23VirtualRedirectTransferER19StreamedBinaryWriteILb0EE
Apd:_ParameterInfo_get_ParameterType_m4197803362
w0g:__Z91RuntimeInvoker_Void_t1185182177_Int32U26_t1369213839_Int32U26_t1369213839_Int32_t2950945753PFvvEPK10MethodInfoPvPS4_
Oej:_StaticAccessorAttribute_set_Type_m2333258271
Mqc:__ZN8GUIState8EndOnGUIEv
q_c:__ZN11UnityEngine15PlatformWrapper16GetApplicationIdEv
aKc:_UNITY_TT_Get_VMetrics
lYg:__Z49RuntimeInvoker_Char_t3634460470_Int16_t2552820387PFvvEPK10MethodInfoPvPS4_
gah:__Z69RuntimeInvoker_Color_t2555686324_Color_t2555686324_Single_t1397266774PFvvEPK10MethodInfoPvPS4_
uBg:_EqualityComparer_1__ctor_m2283513024_gshared
A1e:_SimpleEnumerator__cctor_m2844299657
Pve:_LocalDataStoreSlot__ctor_m4104083971
vph:_Array_qsort_TisVector3_t3722313464_m4117329442_gshared
WJh:_ReadOnlyCollection_1_System_Collections_Generic_IListU3CTU3E_RemoveAt_m3849058645_gshared
v0i:_AudioSource_ReadExtensionName_m725112169
hCi:_X509CertificateEnumerator_System_Collections_IEnumerator_Reset_m2039524926
l6g:__Z128RuntimeInvoker_Void_t1185182177_RuntimeObject_BooleanU26_t4125257963_SByte_t1669577662_Int32U26_t1369213839_Int32U26_t1369213839PFvvEPK10MethodInfoPvPS4_
mxa:__ZN7Texture21GetMasterTextureLimitEv
Ehe:_Enumerator_Dispose_m3503748991_AdjustorThunk
V_b:__Z12CanAddScriptR10GameObject17ScriptingClassPtrPS1_S2_
hqj:__ZN6il2cpp2vm10Reflection12HasAttributeEP12Il2CppObjectP11Il2CppClass
kch:__Z103RuntimeInvoker_Boolean_t97287965_RuntimeObject_Vector2_t2156229523_RuntimeObject_Vector3U26_t3464235976PFvvEPK10MethodInfoPvPS4_
_Mh:_Comparison_1_BeginInvoke_m3263247262_gshared
aaa:__ZN9ShaderLabL25StaticInitializeShaderLabEPv
U:Math_max
wJg:_List_1_Sort_m1293013666_gshared
xYi:__ZL24UnresolvedVirtualCall_92P12Il2CppObjectPK10MethodInfo
dsj:_il2cpp_class_get_methods
hog:_HitInfo_SendMessage_m1343099429_AdjustorThunk
_vb:__Z18Transfer_BlittableI24GenerateTypeTreeTransferLb0EN4math12int2_storageEEvRK29SerializationCommandArgumentsR31RuntimeSerializationCommandInfo
FOf:_StackTrace_get_trace_m1194606084
Spf:_Single_CompareTo_m2785801815_AdjustorThunk
nFj:__ZN6il2cpp2os6Thread16GetCurrentThreadEv
Mnh:_Array_InternalArray__Insert_TisUILineInfo_t4195266810_m3191124053_gshared
zbc:__ZN10GameObject13ComponentPair15SetComponentPtrEPN5Unity9ComponentE
Q$j:_glBlitFramebuffer__wrapper
h5b:__Z13RegisterClassI10MeshFilterEvv
qqi:__ZL75U3COnFinishSubmitU3Ec__Iterator0_t3413438900_CustomAttributesCacheGeneratorP21CustomAttributesCache
PSa:__ZN10TagManager8TransferI19StreamedBinaryWriteILb0EEEEvRT_
skb:__ZN11PreloadData23VirtualRedirectTransferER18StreamedBinaryReadILb0EE
H8a:__ZN13sorted_vectorI4PPtrI11SpriteAtlasENSt3__24lessIS2_EE13stl_allocatorIS2_L18MemLabelIdentifier1ELi16EEE21sort_clear_duplicatesEv
qkg:_PropertyNameUtils_PropertyNameFromString_Injected_m1259736140
dri:__ZL60FontData_t746620069_CustomAttributesCacheGenerator_m_MinSizeP21CustomAttributesCache
O_e:_Char_System_IConvertible_ToDateTime_m3564102661
nkj:__ZN15dense_hashtableINSt3__24pairIK10KeyWrapperINS1_IPK9FieldInfoP11Il2CppClassEEEjEES9_17ReflectionMapHashIS8_EN14dense_hash_mapIS9_jSD_NS9_14EqualsComparerINS0_8equal_toIS8_EEEENS0_9allocatorISB_EEE9SelectKeyESI_SK_E16reset_thresholdsEv
vee:_ShimEnumerator_get_Key_m317201915_gshared
A7a:__ZN6Sprite17MainThreadCleanupEv
Y$j:_glBlendFuncSeparate__wrapper
pL:__ZN10AudioMixer14UpdateMuteSoloEv
q0:__Z17GetMonoManagerPtrv
$wj:__ZN6il2cpp2vm9Exception27RaiseNullReferenceExceptionEv
aSa:__ZN9Transform35SetLocalPositionWithoutNotificationERKN4math7_float3Ey
ali:__ZL87GUIUtility_t1868551600_CustomAttributesCacheGenerator_U3CguiIsExitingU3Ek__BackingFieldP21CustomAttributesCache
U5g:__Z69RuntimeInvoker_UInt64_t4134040092_Int32_t2950945753_SByte_t1669577662PFvvEPK10MethodInfoPvPS4_
Zi:_JS_Eval_ClearTimeout
QQd:_Raycast2DCallback_Invoke_m1500574149
ZBa:__ZN7ApiGLES16SetPatchVerticesEi
tIi:_CharacterClass_Compile_m3296067317
gHj:__ZN6il2cpp2gc16GarbageCollector16InvokeFinalizersEv
b_e:_Byte_System_IConvertible_ToInt64_m285584218_AdjustorThunk
Ilg:_Rect_get_size_m477575021_AdjustorThunk
J6i:__ZN6il2cpp2vm5Class20FromGenericParameterEPK22Il2CppGenericParameter
vV:__ZN19CloudServiceHandler11FlushEventsEv
qfa:__ZN15GlobalCallbacksC2Ev
Axd:_MethodCall_System_Runtime_Remoting_Messaging_IInternalMessage_set_Uri_m1919576807
bAf:_Array_InternalArray__ICollection_Add_TisLabelData_t360167391_m1648183135_gshared
g9d:_Comparer_1_System_Collections_IComparer_Compare_m2016223770_gshared
Pvi:__ZL57BaseMeshEffect_t2440176439_CustomAttributesCacheGeneratorP21CustomAttributesCache
j5g:__Z74RuntimeInvoker_DateTime_t3738529785_DateTime_t3738529785_Int32_t2950945753PFvvEPK10MethodInfoPvPS4_
fQc:_UNITY_FT_New_Memory_Face
lzh:_Collection_1_System_Collections_IList_IndexOf_m3271188411_gshared
iOc:__ZN20TextRenderingPrivate21TextMeshGeneratorImpl5FlushEv
lhf:_MonoIO_GetFileStat_m678141354
YFc:_UNITY_FT_Load_Sfnt_Table
red:__Z15CastclassSealedP12Il2CppObjectP11Il2CppClass
B_i:__ZL25UnresolvedVirtualCall_204P12Il2CppObject19TimeSpan_t881159249S1_PK10MethodInfo
M4b:__ZN15ApplicationInfo14GetSandboxTypeEv
$tb:__Z18Transfer_BlittableI17RemapPPtrTransferLb1EhEvRK29SerializationCommandArgumentsR31RuntimeSerializationCommandInfo
rNf:_Decimal_IsZero_m4250358244_AdjustorThunk
Ave:_UnmanagedMemoryStream_get_CanRead_m3770815400
DHj:__ZNSt3__26vectorIjNS_9allocatorIjEEE26__swap_out_circular_bufferERNS_14__split_bufferIjRS2_EE
KZb:__ZN16ReflectionProbes40UpdateRealtimeReflectionProbesTimeslicedEv
c0i:__ZN23InterfaceActionInvoker1IP24SingleU5BU5D_t1444911251E6InvokeEjP11Il2CppClassP12Il2CppObjectS1_
oBj:__ZNSt3__26__treeINS_12__value_typeIP24Il2CppReflectionAssemblyPvEENS_19__map_value_compareIS3_S5_NS_4lessIS3_EELb1EEENS_9allocatorIS5_EEE16__insert_node_atEPNS_16__tree_node_baseIS4_EERSF_SF_
FEf:_Decimal_u64_m3374804932
z_f:_UInt16_System_IConvertible_ToInt32_m1950778303_AdjustorThunk
Ghb:__ZNK30RuntimeInitializeOnLoadManager22GetTypeVirtualInternalEv
Dbj:__ZN15dense_hashtableINSt3__24pairIK10KeyWrapperIN6il2cpp5utils13dynamic_arrayIPK10Il2CppTypeLj4EEEEPFvvEEESA_NS3_8metadata19Il2CppSignatureHashEN14dense_hash_mapISA_SD_SG_NSA_14EqualsComparerINSF_22Il2CppSignatureCompareEEENS0_9allocatorISE_EEE9SelectKeyESK_SM_E12resize_deltaEjj
d9b:__ZN16ReflectionProbes15InitializeClassEv
NSh:__ZL71Enum_t4135868527_CustomAttributesCacheGenerator_Enum_Format_m2588135982P21CustomAttributesCache
Vcj:__ZNK15dense_hashtableINSt3__24pairIK10KeyWrapperIPK11Il2CppClassEPKcEES6_N6il2cpp5utils11PointerHashIS3_EEN14dense_hash_mapIS6_S9_SE_NS6_14EqualsComparerINS0_8equal_toIS5_EEEENS0_9allocatorISA_EEE9SelectKeyESJ_SL_E12test_deletedEj
YTh:__ZL107ArrayReadOnlyList_1_t221793636_CustomAttributesCacheGenerator_ArrayReadOnlyList_1_GetEnumerator_m2012327150P21CustomAttributesCache
OHh:_ReadOnlyCollection_1_System_Collections_ICollection_CopyTo_m2527663815_gshared
Nrh:_Dictionary_2_Do_ICollectionCopyTo_TisKeyValuePair_2_t3699644050_m4159638770_gshared
jAj:__ZN6il2cpp2vm5Image9GetCorlibEv
Drg:_Vector3_get_left_m2428419009
rA:__ZN8Animator13BatchedFKPassERK13dynamic_arrayIP14PlayableOutputLj4EE
fZh:__ZL50Pointer_t2088917139_CustomAttributesCacheGeneratorP21CustomAttributesCache
EMj:_GC_reclaim_uninit
zjb:__ZN16LightmapSettings11UnshareDataEv
U6c:_ExecuteEvents_Execute_m113814934
Nba:__ZN13RuntimeStaticINSt3__23mapIN4core12basic_stringIcNS2_20StringStorageDefaultIcEEEES6_NS0_4lessIS6_EE13stl_allocatorINS0_4pairIKS6_S6_EEL18MemLabelIdentifier13ELi16EEEELb0EE13StaticDestroyEPv
iph:_Array_qsort_TisColor32_t2600501292_m1362211604_gshared
n9d:_Enumerator_System_Collections_IEnumerator_get_Current_m2979767597_AdjustorThunk
pMi:__ZN30GenericInterfaceActionInvoker1I17Color_t2555686324E6InvokeEPK10MethodInfoP12Il2CppObjectS0_
LId:_MD5CryptoServiceProvider_ProcessFinalBlock_m2241588515
eTd:_ScrollRect_GetBounds_m449872505
Yj:_glIsVertexArray
pUe:_SmallXmlParser_Read_m3485223434
Ebf:_Int16_Parse_m2276856944
w2d:_InternalEnumerator_1__ctor_m3443175323_AdjustorThunk
n6:__ZN5Unity9Component8TransferI18StreamedBinaryReadILb0EEEEvRT_
KYh:__ZL131CustomAttributeData_t1084486650_CustomAttributesCacheGenerator_CustomAttributeData_t1084486650____ConstructorArguments_PropertyInfoP21CustomAttributesCache
ea:invoke_fff
GUj:_mbsinit
D_j:b14
hRe:_RepeatContext_get_Expression_m255006542
DRc:__ZN2UI6Canvas17MainThreadCleanupEv
Cza:__ZN6prcoreL12RemapGenericI17TexFormatARGB155517TexFormatRGBA8888EEvPKNS_9InnerInfoE
P8i:__ZN13Il2CppHashMapIPK19Il2CppGenericMethodPK26Il2CppGenericMethodIndicesN6il2cpp8metadata23Il2CppGenericMethodHashENS7_26Il2CppGenericMethodCompareENSt3__29allocatorINSA_4pairIK10KeyWrapperIS2_ES5_EEEEEC2EjRKS8_RKS9_
eld:_TypeBuilder_HasElementTypeImpl_m1871001960
Xof:_SecurityFrame__ctor_m2140076703_AdjustorThunk
Tzg:_DefaultComparer_Equals_m2458578172_gshared
CDa:__ZN7ApiGLES13CreateProgramEv
mae:_Enumerator_VerifyState_m4003066746_gshared
Bxa:__ZN4crnd12crn_unpackerD2Ev
mk:_emscripten_glTexImage2D
a8d:_Comparer_1_System_Collections_IComparer_Compare_m2537217645_gshared
M_:__ZN18ScriptingArguments9AddStringEPKc
YMj:_setup_header
kFg:_KeyValuePair_2__ctor_m3953574590_AdjustorThunk
G$e:_Char_ToString_m3588025615
Rvf:_SetPropertyUtility_SetStruct_TisAspectMode_t3417192999_m1565063249_gshared
_Hh:_ReadOnlyCollection_1_System_Collections_IList_get_IsReadOnly_m375760151_gshared
T$h:__ZL53IEnvoyInfo_t2180778907_CustomAttributesCacheGeneratorP21CustomAttributesCache
B6f:_CryptoConvert_ToCapiKeyBlob_m3371450375
Kya:__ZL23stbir__resize_arbitraryPvPKviiiS_iiiffffPfiij14stbir_datatype12stbir_filterS4_10stbir_edgeS5_16stbir_colorspace
swb:__Z18Transfer_BlittableI24GenerateTypeTreeTransferLb1E8Vector4fEvRK29SerializationCommandArgumentsR31RuntimeSerializationCommandInfo
H_j:b18
xk:_pthread_detach
hfj:__ZN6il2cpp2vm19SocketPollingThread7RunLoopEv
tgd:_FontUpdateTracker_UntrackText_m1981515690
vQg:_List_1_System_Collections_ICollection_get_SyncRoot_m1937857346_gshared
$vi:__ZL64AnalyticsEventTracker_t2285229262_CustomAttributesCacheGeneratorP21CustomAttributesCache
bcc:__ZN15DirectorManager20ScheduleGraphDestroyERK14HPlayableGraph
kFb:__ZNSt3__213__stable_sortIRN10vector_mapI17ScriptingClassPtrPKN5Unity4TypeENS_4lessIS2_EENS_9allocatorINS_4pairIS2_S6_EEEEE13value_compareENS_11__wrap_iterIPSB_EEEEvT0_SJ_T_NS_15iterator_traitsISJ_E15difference_typeEPNSM_10value_typeEi
i3f:_SimpleCollator_FillSurrogateSortKeyRaw_m725998232
BRg:_List_1_AddEnumerable_m1284696147_gshared
zKe:_IPAddress_Equals_m1823478787
nvd:_Context_CreateNewContext_m3053563976
Rci:__ZL83RectOffset_t1369453676_CustomAttributesCacheGenerator_RectOffset_set_top_m713260669P21CustomAttributesCache
ila:__ZN9ShaderLab25SerializedTextureProperty8TransferI24GenerateTypeTreeTransferEEvRT_
srh:_Array_swap_TisVector2_t2156229523_TisVector2_t2156229523_m345092822_gshared
hwh:_Collection_1_get_Item_m1773274637_gshared
$nj:__ZN6il2cpp2gc19AppendOnlyGCHashMapINSt3__24pairIPK14Il2CppAssemblyP11Il2CppClassEEP24Il2CppReflectionAssembly17ReflectionMapHashIS9_ENS2_8equal_toIS9_EEEC2Ev
pIc:_tt_cmap14_char_next
dzb:__Z18Transfer_BlittableI19StreamedBinaryWriteILb0EELb0EdEvRK29SerializationCommandArgumentsR31RuntimeSerializationCommandInfo
lla:__ZN11NamedObject8TransferI18StreamedBinaryReadILb0EEEEvRT_
OGa:__ZNK17GPUSkinPoseBuffer12GetBoneCountEv
neg:_InvokableCall_remove_Delegate_m1376110510
_Pe:_Capture_get_Value_m3919646039
$3e:_Hashtable_Clear_m3112193608
IUf:_UTF8Encoding_InternalGetByteCount_m771565606
Qzj:__ZNK15dense_hashtableINSt3__24pairIK10KeyWrapperIP14Il2CppIUnknownEjEES5_N6il2cpp5utils11PointerHashIS3_EEN14dense_hash_mapIS5_jSB_NS5_14EqualsComparerINS0_8equal_toIS4_EEEENS0_9allocatorIS7_EEE9SelectKeyESG_SI_E12test_deletedEj
Rxc:__Z18Transfer_BlittableI8JSONReadLb1EyEvRK29SerializationCommandArgumentsR31RuntimeSerializationCommandInfo
EMg:_List_1_System_Collections_IList_Remove_m3654336679_gshared
Xci:__ZL51GUILayer_t2783472903_CustomAttributesCacheGeneratorP21CustomAttributesCache
tVh:__ZL56IDictionary_2_t3177279192_CustomAttributesCacheGeneratorP21CustomAttributesCache
Uwf:_Array_InternalArray__IEnumerable_GetEnumerator_TisUInt64_t4134040092_m1382862496_gshared
Uk:_emscripten_glMatrixMode
sPd:_MaskableGraphic_UnityEngine_UI_IClippable_get_gameObject_m1739855597
e9e:_NumberFormatInfo_get_RawPercentGroupSizes_m97703232
Ys:__ZN8Animator23VirtualRedirectTransferER18StreamedBinaryReadILb0EE
raf:_Guid__ctor_m3562600567_AdjustorThunk
lKf:_DateTime_System_IConvertible_ToInt16_m3239820399
gS:__ZN11UnityEngine15CloudWebService14DataDispatcher16PrepareDataBlockERNS0_16SessionContainerE
jIa:__ZN18GfxFramebufferGLES5ClearE13GfxClearFlagsRK10ColorRGBAffib
Czf:_MonoProperty_StaticGetterAdapterFrame_TisRuntimeObject_m4131530968_gshared
ODb:__ZL26Transfer_SimpleNativeClassI18StreamedBinaryReadILb0EE10RectOffsetLb0EEvRK29SerializationCommandArgumentsR31RuntimeSerializationCommandInfo
t1d:_InternalEnumerator_1_get_Current_m2316281569_gshared
SQb:__ZL12DepthPassJobPN21GfxDeviceAsyncCommand10ArgScratchEPKNS_3ArgE
wja:__ZNSt3__26vectorIN9ShaderLab20SerializedSubProgram16TextureParameterENS_9allocatorIS3_EEE6assignINS_11__wrap_iterIPS3_EEEENS_9enable_ifIXaasr21__is_forward_iteratorIT_EE5valuesr16is_constructibleIS3_NS_15iterator_traitsISC_E9referenceEEE5valueEvE4typeESC_SC_
phe:_Transform_1_EndInvoke_m1701794896_gshared
ktc:__ZN5Unity9rapidjson6WriterI16TempBufferWriterNS0_4UTF8IcEES4_13JSONAllocatorE11WriteDoubleEd
oWf:_Thread_SetCachedCurrentUICulture_m1729523031
EVc:__Z55Register_UnityEngine_CanvasGroup_get_ignoreParentGroupsv
iMd:_InputField_get_minHeight_m2822964544
I5b:__Z13RegisterClassI19LowerResBlitTextureEvv
rge:__ZN23GenericVirtFuncInvoker1I27DictionaryEntry_t3123975638iE6InvokeEPK10MethodInfoP12Il2CppObjecti
Roe:_ClientContext_set_ClientHelloProtocol_m4189379912
Vm:FUNCTION_TABLE_iiiiiiiiiiii
dRg:_List_1_get_Item_m1686506901_gshared
Cde:_KeyCollection_System_Collections_Generic_IEnumerableU3CTKeyU3E_GetEnumerator_m1982109872_gshared
$Ua:__ZN16GraphicsSettingsD0Ev
K1b:__Z29StdTemplateConversionFunctionIshEbPvR14SafeBinaryRead
n:cttz_i8
iDc:_UNITY_FT_GlyphLoader_Add
R0i:_AudioListener_INTERNAL_CALL_ReadExtensionPropertyName_m330480156
HZh:__ZL62ActivationArguments_t4219999170_CustomAttributesCacheGeneratorP21CustomAttributesCache
x7g:__Z53RuntimeInvoker_Interval_t1802865632_Int32_t2950945753PFvvEPK10MethodInfoPvPS4_
NIf:_Convert_ToUInt16_m867476252
Rl:_emscripten_glViewport
kJj:__ZN6il2cpp6icalls8mscorlib6System15MonoCustomAttrs17IsDefinedInternalEP12Il2CppObjectP20Il2CppReflectionType
bHg:_Enumerator__ctor_m40451936_AdjustorThunk
Eah:__Z53RuntimeInvoker_Vector3_t3722313464_Single_t1397266774PFvvEPK10MethodInfoPvPS4_
I4i:_SkeletonBone_t4134054672_marshal_pinvoke_back
i$h:__ZL115SynchronizationAttribute_t3946661254_CustomAttributesCacheGenerator_SynchronizationAttribute_IsContextOK_m324067792P21CustomAttributesCache
ECe:_CustomAttributeData_get_Constructor_m489601093
GEc:_cff_parse_font_bbox
r2f:_MSCompatUnicodeTable_Category_m1834196420
bic:__Z35Application_Get_Custom_PropIsEditorv
Xfb:__ZN14PlayerSettings23VirtualRedirectTransferER18StreamedBinaryReadILb0EE
wwi:__ZL105TrackableField_t1772682203_CustomAttributesCacheGenerator_TrackableField__ctor_m3758796351____validTypes0P21CustomAttributesCache
sPf:_Double_CompareTo_m3151899116
fSj:__ZN6il2cpp2os5Event5ResetEv
fWb:__Z26CombineDepthNormalsTextureRK17RenderLoopContextR13dynamic_arrayI16RenderObjectDataLj4EE
_Hc:_tt_name_ascii_from_other
jWi:_ToggleGroup__ctor_m3308114662
XBj:__ZN6il2cpp8metadata15GenericMetadata17InflateParametersEPK13ParameterInfohPK20Il2CppGenericContextb
rZ:__ZN18AwakeFromLoadQueue28InvokePersistentManagerAwakeEPNS_4ItemEj17AwakeFromLoadMode
aTa:__ZN6Camera13AwakeFromLoadE17AwakeFromLoadMode
Jqh:_Array_Sort_TisUILineInfo_t4195266810_m3737783007_gshared
Ljg:_PlayableAsset_Internal_CreatePlayable_m2550417712
ew:__ZNK17AnimationPlayable27GetNextCompatibleDescendantEi
j7h:__ZL59ResolveEventArgs_t1779456501_CustomAttributesCacheGeneratorP21CustomAttributesCache
ZKa:__ZN4PPtrI6SpriteE8TransferI18StreamedBinaryReadILb0EEEEvRT_
dHf:_Convert_ToInt16_m3324557887
Pzi:_TlsStream_Write_m188217214
xBb:__ZN4PPtrI9Texture2DE8TransferI18StreamedBinaryReadILb1EEEEvRT_
eXi:__ZL24UnresolvedVirtualCall_19P12Il2CppObject25DSAParameters_t1885824122PK10MethodInfo
PIb:__Z25SetNeedToPerformRenderingb
AWj:__ZN10__cxxabiv116__shim_type_infoD2Ev
pHi:_Alternation__ctor_m1629257642
p0f:_UInt64_System_IConvertible_ToInt32_m949522652_AdjustorThunk
nRa:__ZN10GameObjectD2Ev
fRb:__ZN14qsort_internal30FindAndMovePivotToLastPositionIP15RODataDepthPassi17ROSorterDepthPassEEvT_S4_T0_T1_
pwe:_MethodAccessException__ctor_m3411913042
KCg:_EqualityComparer_1__ctor_m1767308726_gshared
TYb:__ZN12CullingGroup10SendEventsEPK17CullingGroupEventj
xXc:__ZN14UnityAnalytics19ConfigChangedStaticEPS_RKN4core12basic_stringIcNS1_20StringStorageDefaultIcEEEER8JSONRead
i9e:_NumberFormatInfo_get_PerMilleSymbol_m1360140831
Ime:_EncryptedData_get_EncryptionAlgorithm_m905084934
Dwf:_Array_InternalArray__IEnumerable_GetEnumerator_TisCustomAttributeTypedArgument_t2723150157_m1333528454_gshared
u8c:_PointerInputModule__ctor_m3728889932
WX:__ZThn32_NK8Renderer8GetLayerEv
yHg:_Enumerator_System_Collections_IEnumerator_Reset_m2915500989_gshared
LEc:_cff_parse_vsindex
LAj:__ZN30dense_hashtable_const_iteratorINSt3__24pairIK10KeyWrapperINS1_IPKcS4_EEEiEES6_24NamespaceAndNamePairHashN14dense_hash_mapIS6_iS9_NS6_14EqualsComparerI26NamespaceAndNamePairEqualsEENS0_9allocatorIS8_EEE9SelectKeyESD_SF_E30advance_past_empty_and_deletedEv
Pbf:_Int32_ValidDigit_m1059003769
h4j:_emscripten_glTexParameterfv__wrapper
D7h:__ZL54MemberFilter_t426314064_CustomAttributesCacheGeneratorP21CustomAttributesCache
gNd:_LayoutGroup_get_rectTransform_m442863741
Bqb:__Z18Transfer_BlittableI14SafeBinaryReadLb1E9BoundsIntEvRK29SerializationCommandArgumentsR31RuntimeSerializationCommandInfo
i1j:b63
Wsj:_il2cpp_method_get_param_count
Pfc:__ZN10systeminfo19ISOToSystemLanguageERN4core12basic_stringIcNS0_20StringStorageDefaultIcEEEE
Tmj:__ZNK15dense_hashtableINSt3__24pairIK10KeyWrapperINS1_IPK12PropertyInfoP11Il2CppClassEEEjEES9_17ReflectionMapHashIS8_EN14dense_hash_mapIS9_jSD_NS9_14EqualsComparerINS0_8equal_toIS8_EEEENS0_9allocatorISB_EEE9SelectKeyESI_SK_E3endEv
ZMh:__ZN28GenericInterfaceFuncInvoker2Ii39CustomAttributeNamedArgument_t287865710S0_E6InvokeEPK10MethodInfoP12Il2CppObjectS0_S0_
Nsh:_LayoutGroup_SetProperty_TisAxis_t3613393006_m3591044743_gshared
c1f:_UnauthorizedAccessException__ctor_m40101894
bTh:__ZL69RuntimeArray_CustomAttributesCacheGenerator_Array_SetValue_m282347242P21CustomAttributesCache
bMc:_ps_dimension_done
rRc:__Z46Register_UnityEngine_TextGenerator_Dispose_cppv
_1g:__Z67RuntimeInvoker_GCHandle_t3351438187_RuntimeObject_Int32_t2950945753PFvvEPK10MethodInfoPvPS4_
wPf:_Double_Parse_m4153729520
xOi:_IndexedSet_1_AddUnique_m861843892_gshared
V7h:__ZL59HybridDictionary_t4070033136_CustomAttributesCacheGeneratorP21CustomAttributesCache
m5a:__ZN16LightmapSettings8TransferI14SafeBinaryReadEEvRT_
Ioa:__ZN17BufferManagerGLES13ReleaseBufferEP14DataBufferGLES
Qne:_CipherSuite_Write_m1172814058
Kue:_SynchronizedWriter_Write_m301917713
U8:__ZN9profiling6MarkerC2EPKc13ProfilerGroupNS0_5FlagsE
F7d:__ZN21InterfaceFuncInvoker1Ii22UILineInfo_t4195266810E6InvokeEjP11Il2CppClassP12Il2CppObjectS0_
Oxc:__Z18Transfer_BlittableI8JSONReadLb1EjEvRK29SerializationCommandArgumentsR31RuntimeSerializationCommandInfo
zDe:_ConstructorBuilder_get_IsCompilerContext_m3364441562
mdg:_Debug_LogWarning_m3752629331
gMh:_ReadOnlyCollection_1_System_Collections_Generic_IListU3CTU3E_RemoveAt_m4037795630_gshared
u3g:__Z117RuntimeInvoker_Void_t1185182177_RuntimeObject_Int32_t2950945753_Int32_t2950945753_Int32_t2950945753_Int32_t2950945753PFvvEPK10MethodInfoPvPS4_
tsi:__ZL81U3CMouseDragOutsideRectU3Ec__Iterator1_t3909241878_CustomAttributesCacheGeneratorP21CustomAttributesCache
gbd:_U3COnFinishSubmitU3Ec__Iterator0_Reset_m3632769946
kp:stackSave
FU:__ZN5Unity9rapidjson15GenericDocumentINS0_4UTF8IcEE13JSONAllocatorNS0_12CrtAllocatorEE6StringEPKcjb
jdd:_ColorTween_get_targetColor_m1724075482_AdjustorThunk
wMc:_ps_dimension_end
Ioc:__Z41Register_UnityEngine_Mesh_Internal_Createv
jpb:__ZN16MemoryFileSystem5TouchER13FileEntryData
adb:__ZN14SpriteRenderer23VirtualRedirectTransferER24GenerateTypeTreeTransfer
VBj:__ZNK15dense_hashtableI10KeyWrapperIP18Il2CppGenericClassES3_N6il2cpp8metadata22Il2CppGenericClassHashEN14dense_hash_setIS3_S6_NS3_14EqualsComparerINS5_25Il2CppGenericClassCompareEEENSt3__29allocatorIS3_EEE8IdentityESA_SD_E12test_deletedERK30dense_hashtable_const_iteratorIS3_S3_S6_SF_SA_SD_E
ZHg:_Enumerator_Dispose_m2498245804_AdjustorThunk
$Df:_Console_Open_m3077673205
q_b:__ZN6Camera9SetAspectEf
Cyf:_Array_InternalArray__IndexOf_TisDateTime_t3738529785_m2463359116_gshared
va:invoke_viiffiii
q0d:_InternalEnumerator_1_MoveNext_m4138204635_gshared
hIj:__ZN15dense_hashtableINSt3__24pairIK10KeyWrapperIPK19Il2CppGenericMethodEP10MethodInfoEES6_N6il2cpp8metadata23Il2CppGenericMethodHashEN14dense_hash_mapIS6_S9_SD_NS6_14EqualsComparerINSC_26Il2CppGenericMethodCompareEEENS0_9allocatorISA_EEE9SelectKeyESH_SJ_E12resize_deltaEjj
y5j:_emscripten_glBindVertexArray__wrapper
NEj:__ZN6il2cpp6icalls8mscorlib6System4Enum19get_underlying_typeEP20Il2CppReflectionType
bJi:_Parser_IsECMAScript_m674158805
yF:__ZN10ObjectPoolIN4FMOD3DSPENS0_4DSPIEE7GetFreeEi
hSa:__ZN9Transform37InitializeTransformHierarchyRecursiveER18TransformHierarchyRii
ZHa:__ZN26SinglePassStereoSupportExt23SetupStereoMatrixParamsE21MonoOrStereoscopicEye24BuiltinShaderMatrixParamRK10Matrix4x4f
Uph:_Array_Resize_TisVector2_t2156229523_m1564542050_gshared
_Ke:_ServicePointManager_get_CertificatePolicy_m1966679142
h3c:__ZNK25UnityWebRequestJavaScript16GetUploadedBytesEv
jQ:__Z46AudioListener_CUSTOM_GetNumExtensionPropertiesP12Il2CppObject
Agj:__ZN6il2cpp6icalls8mscorlib6SystemL16CheckMemberMatchI9FieldInfoNS_5utils10functional6FilterINSt3__212basic_stringIcNS8_11char_traitsIcEENS8_9allocatorIcEEEENS5_13VmStringUtils23CaseInsensitiveComparerEEEEEbPKT_PK11Il2CppClassSN_iRKT0_
m$:__Z14GetMonoManagerv
Pyf:_Array_InternalArray__IndexOf_TisMonoResource_t4103430009_m1351751258_gshared
Hnc:__Z57Register_UnityEngine_Transform_INTERNAL_set_localPositionv
rfi:__ZL105RectTransform_t3704657025_CustomAttributesCacheGenerator_RectTransform_INTERNAL_get_anchorMax_m1239315619P21CustomAttributesCache
Msa:__ZN13GfxDeviceGLES26SetRandomWriteTargetBufferEi15ComputeBufferID
XMj:_GC_split_block
Pph:_Array_Resize_TisUICharInfo_t75501106_m3903846016_gshared
TIh:_ReadOnlyCollection_1_System_Collections_Generic_ICollectionU3CTU3E_get_IsReadOnly_m3887826072_gshared
Kmj:__ZNK15dense_hashtableINSt3__24pairIK10KeyWrapperINS1_IPK12PropertyInfoP11Il2CppClassEEEjEES9_17ReflectionMapHashIS8_EN14dense_hash_mapIS9_jSD_NS9_14EqualsComparerINS0_8equal_toIS8_EEEENS0_9allocatorISB_EEE9SelectKeyESI_SK_E8min_sizeEjj
TMb:__ZZ23InitPlayerLoopCallbacksvEN49EarlyUpdateResetFrameStatsAfterPresentRegistrator7ForwardEv
bVj:_poll
VIh:_ReadOnlyCollection_1_System_Collections_IEnumerable_GetEnumerator_m1671097018_gshared
P0f:_UInt64_ToString_m1529093114_AdjustorThunk
Kti:__ZL85Selectable_t3250028441_CustomAttributesCacheGenerator_Selectable_IsPressed_m907486548P21CustomAttributesCache
Csd:_TypeLibImportClassAttribute__ctor_m2302178978
S3f:_Escape_t3294788190_marshal_pinvoke
CLd:_InputField_OnUpdateSelected_m1118869681
nAj:__ZN6il2cpp2vmL36AddNestedTypesToNametoClassHashTableEP40Il2CppNameToTypeDefinitionIndexHashTablePKcRKNSt3__212basic_stringIcNS5_11char_traitsIcEENS5_9allocatorIcEEEEP11Il2CppClass
ZDd:_SerializationException__ctor_m3131447373
Lxa:__ZN4crnd12crn_unpacker11unpack_dxt1EPPhjjj
yfc:__ZNK11ICallString6ToUTF8Ev
Rkh:__Z39RuntimeInvoker_MonoResource_t4103430009PFvvEPK10MethodInfoPvPS4_
P6i:__ZN15dense_hashtableINSt3__24pairIK10KeyWrapperIPK22Il2CppGenericParameterEP11Il2CppClassEES6_N6il2cpp5utils11PointerHashIS4_EEN14dense_hash_mapIS6_S9_SE_NS6_14EqualsComparerINS0_8equal_toIS5_EEEENS0_9allocatorISA_EEE9SelectKeyESJ_SL_E15insert_noresizeERKSA_
Ufe:_Transform_1_Invoke_m2468053724_gshared
j2g:__Z51RuntimeInvoker_Void_t1185182177_TimeSpan_t881159249PFvvEPK10MethodInfoPvPS4_
gRb:__ZNSt3__211__sift_downIR17ROSorterDepthPassP15RODataDepthPassEEvT0_S5_T_NS_15iterator_traitsIS5_E15difference_typeES5_
X0a:__ZN18UnityPropertySheet11UnityTexEnvC2Ev
Whc:__ZNSt3__214__split_bufferIPN9BlobWrite11TypeContextENS_9allocatorIS3_EEE10push_frontERKS3_
_Ve:_ArgumentException__ctor_m3200406061
MA:__ZN8Animator17ApplyOnAnimatorIKEiRNS_11AnimatorJobE
C1:__ZN12FileAccessor4ReadEyyPvPy
UEb:__Z29Transfer_Blittable_ArrayFieldI18StreamedBinaryReadILb0EE11QuaternionfEvRT_R9ArrayInfoRK23StaticTransferFieldInfo
nad:_VertexHelperExtension_AddVert_m3988754079
TZb:__ZN13RenderTexture9SetHeightEi
VEa:__ZNK6Camera20IsCurrentlyRenderingEv
vu:__ZN7mecanim9animation17ClearMotionOutputEPNS0_18AnimationNodeStateE
Coe:_CipherSuiteCollection_get_IsFixedSize_m3127823890
xYa:__ZN16LevelGameManager8TransferI24GenerateTypeTreeTransferEEvRT_
C6d:_InternalEnumerator_1_System_Collections_IEnumerator_get_Current_m3537550566_gshared
lRd:_Scrollbar_UpdateVisuals_m2492252165
Pxj:__ZN6il2cpp6icalls8mscorlib6System2IO6MonoIO17GetFileAttributesEP12Il2CppStringPi
aId:_HMACMD5__ctor_m3008609295
rFf:_DateTime__ParseAmPm_m3478436123
yLf:_DateTime_ToString_m2992030064_AdjustorThunk
TIc:_tt_cmap8_char_index
F_:__Z24scripting_class_get_name17ScriptingClassPtr
KLe:_Oid__ctor_m911618594
JWi:_VerticalLayoutGroup_CalculateLayoutInputHorizontal_m1404590745
vca:__ZN13RuntimeStaticI15GUIEventManagerLb0EE13StaticDestroyEPv
_Zi:__ZL25UnresolvedVirtualCall_175P12Il2CppObject20UICharInfo_t75501106S1_PK10MethodInfo
txe:_ShortComparer_Compare_m1881262465
HE:__ZZN8Animator15InitializeClassEvEN44FunctorImpl_427kDidChangeMotionRuntimeEvents4CallEPviR11MessageData
ukh:__Z53RuntimeInvoker_Keyframe_t4206410242_Int32_t2950945753PFvvEPK10MethodInfoPvPS4_
je:_emscripten_set_keydown_callback
pRf:_EncoderReplacementFallback__ctor_m1483565116
lRe:_Interpreter_IsWordChar_m2858055765
Z3e:_Hashtable_CopyTo_m2905447224
K1:__ZN12FileAccessorC2Ev
wjh:__Z96RuntimeInvoker_Void_t1185182177_BooleanU5BU5DU26_t3454195888_Int32_t2950945753_Int32_t2950945753PFvvEPK10MethodInfoPvPS4_
ICg:_EqualityComparer_1_System_Collections_IEqualityComparer_Equals_m3855544238_gshared
GGc:_otv_u_O_O_u_O_O
By:__ZThn152_NK26AnimatorControllerPlayable25GetStateMachineBehavioursEv
nOi:_EventFunction_1_Invoke_m2429482587_gshared
zri:__ZL74GraphicRaycaster_t2999697109_CustomAttributesCacheGenerator_m_BlockingMaskP21CustomAttributesCache
TLe:_AsnEncodedData_SubjectAltName_m4049949414
cij:__ZN6il2cpp2vm7Runtime12GetConfigDirEv
IWi:_VerticalLayoutGroup__ctor_m321345421
ir:__ZN4PPtrI13MonoBehaviourE8TransferI18StreamedBinaryReadILb0EEEEvRT_
$Gg:_Enumerator_MoveNext_m1177880931_AdjustorThunk
NUd:_Slider_UpdateVisuals_m3662961057
xki:__ZL82Event_t2956885303_CustomAttributesCacheGenerator_Event_get_commandName_m4275147343P21CustomAttributesCache
l2i:_TextGenerator_Populate_m194003733
abi:__ZL111ScriptableObject_t2528358522_CustomAttributesCacheGenerator_ScriptableObject_CreateInstanceFromType_m1997111014P21CustomAttributesCache
TYi:__ZL25UnresolvedVirtualCall_114P12Il2CppObjecttPK10MethodInfo
wEe:_DerivedType_get_FullName_m1025358827
y9e:_RegionInfo_get_ISOCurrencySymbol_m441808484
$ri:__ZL70InputField_t3762917431_CustomAttributesCacheGenerator_m_OnValueChangedP21CustomAttributesCache
OJb:__ZN13RenderManager22OnWindowSizeHasChangedEv
dHb:__Z39WriteQueueForTransferSignatureIntoCacheRK31TransferFunctionScriptingTraitsRK24TransferRequestSignature17ScriptingClassPtrR23CachedSerializationDataRb
ljb:__ZN13RenderManager18UpdateAllRenderersEv
BSf:_Encoding_get_UTF8UnmarkedUnsafe_m320312322
xWf:_Thread_Thread_free_internal_m333849022
oZd:_InternalEnumerator_1_System_Collections_IEnumerator_get_Current_m3575233890_gshared
pEi:_CostDelegate_BeginInvoke_m2828452701
rZc:__ZN22BaseUnityConnectClient30OnEnteringStatePausedOrStoppedEv
iBh:_Collection_1_ConvertItem_m1556170494_gshared
Ju:__ZN7mecanim5human12HumanPoseAddERNS0_9HumanPoseERKS1_S4_
HFf:_DateTime_ToUniversalTime_m1945318289
a$i:__ZL25UnresolvedVirtualCall_231P12Il2CppObjectPK10MethodInfo
z0e:_ArrayList_ToArray_m3827492363
dVd:_Slider_get_stepSize_m1423227661
K0f:_UInt64_Parse_m819899889
Klf:_SymmetricAlgorithm_set_IV_m3196220308
rGe:_GenericTypeParameterBuilder_GetHashCode_m852224381
dJf:_Convert_ToUInt32_m1453583008
O6e:_CompareInfo_Compare_m894311506
SRa:__Z24MergeTransformComponentsR9TransformS0_b
Waj:__ZNK15dense_hashtableI10KeyWrapperIPK19Il2CppGenericMethodES4_N6il2cpp8metadata23Il2CppGenericMethodHashEN14dense_hash_setIS4_S7_NS4_14EqualsComparerINS6_26Il2CppGenericMethodCompareEEENSt3__29allocatorIS4_EEE8IdentityESB_SE_E10test_emptyEj
d5c:_EventSystem_UpdateModules_m3643806022
dHj:__ZN6il2cpp2gc16GarbageCollector10StartWorldEv
n4i:_AnimationOffsetPlayable__cctor_m1029460816
nbi:__ZL86Camera_t4157153871_CustomAttributesCacheGenerator_Camera_get_targetTexture_m2278634983P21CustomAttributesCache
Hnf:_Evidence_get_SyncRoot_m2835084965
Qvf:_SetPropertyUtility_SetStruct_TisTouchScreenKeyboardType_t1530597702_m2455393348_gshared
Ryg:_DefaultComparer__ctor_m2280347240_gshared
r1h:__ZL59ICryptoTransform_t2733259762_CustomAttributesCacheGeneratorP21CustomAttributesCache
mJj:__ZN6il2cpp2vm13ComObjectBase19GetRuntimeClassNameEPP15Il2CppHString__
YDb:__Z35Transfer_Blittable_FixedBufferFieldI18StreamedBinaryReadILb0EEyEvRK29SerializationCommandArgumentsR31RuntimeSerializationCommandInfo
Wj:_emscripten_glVertexAttribPointer
_Wj:__ZNSt11logic_errorD0Ev
mWa:__ZNK20IntermediateRenderer12GetSceneMaskEv
ZJb:__ZN14PreloadManager26UpdatePreloadingSingleStepENS_21UpdatePreloadingFlagsEi
ZOi:_TweenRunner_1__ctor_m340723704_gshared
TTd:_ScrollRect_SetLayoutHorizontal_m3078869633
H2f:_SimpleCollator__ctor_m1587210019
Slc:__Z57Register_UnityEngine_RectTransform_INTERNAL_set_anchorMinv
WZi:__ZL25UnresolvedVirtualCall_171P12Il2CppObject19Color32_t2600501292S1_PK10MethodInfo
WIf:_Convert_ToUInt16_m1480956416
jza:__ZN6prcoreL25inner_stretch_i8_bilinearEPKNS_9InnerInfoE
Gkb:__ZL30RegisterFilteredObjectCallbackPP12Il2CppObjectiPv
ELh:_ReadOnlyCollection_1_System_Collections_Generic_IListU3CTU3E_RemoveAt_m3317217538_gshared
$ji:__ZL54AudioSource_t3935305588_CustomAttributesCacheGeneratorP21CustomAttributesCache
oKb:__Z19InitializeGfxDevicev
CS:__ZN11UnityEngine15CloudWebService16SessionContainer24GetSessionHeaderJsonDataERKN4core12basic_stringIcNS2_20StringStorageDefaultIcEEEERNS2_13StringBuilderE
$De:_DerivedType_GetEvent_m4157575360
hca:__ZN13RuntimeStaticI21AssetReferenceStorageLb0EE13StaticDestroyEPv
kFd:_SByte_System_IConvertible_ToType_m4075253447_AdjustorThunk
k3e:_Comparer__ctor_m2831654082
boh:_Array_InternalArray__set_Item_TisKeyValuePair_2_t2530217319_m258011711_gshared
Pdh:__Z72RuntimeInvoker_Bounds_t2266837910_RuntimeObject_Matrix4x4U26_t3606180965PFvvEPK10MethodInfoPvPS4_
EOh:__ZN28GenericInterfaceFuncInvoker2IbiiE6InvokeEPK10MethodInfoP12Il2CppObjectii
YEj:__ZN6il2cpp6icalls8mscorlib6System9AppDomain22InternalGetProcessGuidEP12Il2CppString
RCc:_cf2_builder_moveTo
O5h:__ZL79Convert_t2465617642_CustomAttributesCacheGenerator_Convert_ToUInt32_m3188121845P21CustomAttributesCache
iZg:__Z48RuntimeInvoker_RuntimeObject_Decimal_t2948259380PFvvEPK10MethodInfoPvPS4_
NWf:_ThreadStart_EndInvoke_m3768045394
mOa:__ZNK17FileSystemHandler10IsReadOnlyERK13FileEntryData
Hgj:__ZNSt3__214__split_bufferIP9FieldInfoRNS_9allocatorIS2_EEEC2EjjS5_
oEd:_StreamingContext__ctor_m2604757771_AdjustorThunk
Pwb:__Z18Transfer_BlittableI24GenerateTypeTreeTransferLb1EjEvRK29SerializationCommandArgumentsR31RuntimeSerializationCommandInfo
omj:__ZNK15dense_hashtableINSt3__24pairIK10KeyWrapperINS1_IPK11Il2CppImageP11Il2CppClassEEEjEES9_17ReflectionMapHashIS8_EN14dense_hash_mapIS9_jSD_NS9_14EqualsComparerINS0_8equal_toIS8_EEEENS0_9allocatorISB_EEE9SelectKeyESI_SK_E10test_emptyERK30dense_hashtable_const_iteratorISB_S9_SD_SM_SI_SK_E
N6i:__ZN6il2cpp2os12FastAutoLockD2Ev
nYh:__ZL68AssemblyCopyrightAttribute_t836190902_CustomAttributesCacheGeneratorP21CustomAttributesCache
m7:__ZN11ColorRGBA328TransferI14SafeBinaryReadEEvRT_
nxh:_Collection_1_Add_m1736908447_gshared
_Ec:_cff_vstore_done
L7g:__Z68RuntimeInvoker_Void_t1185182177_UInt16_t2177724958_SByte_t1669577662PFvvEPK10MethodInfoPvPS4_
k1f:__ZN25GenericVirtActionInvoker2IP12Il2CppObjectP39UnhandledExceptionEventArgs_t2886101344E6InvokeEPK10MethodInfoS1_S1_S3_
whb:__ZN15ResourceManager10Dependency8TransferI24GenerateTypeTreeTransferEEvRT_
zId:_MACTripleDES_HashFinal_m3613553534
e0f:_UInt64_System_IConvertible_ToChar_m2074245892
MUf:_UTF8Encoding_InternalGetBytes_m1965760031
Of:_emscripten_glClearDepth
Bac:__ZNK8GUILayer22GetTypeVirtualInternalEv
s6a:__ZN14SafeBinaryRead21TransferSTLStyleArrayINSt3__26vectorIN15QualitySettings14QualitySettingENS1_9allocatorIS4_EEEEEEvRT_17TransferMetaFlags
SLi:_UnityAction_1__ctor_m3007623985_gshared
jde:_KeyCollection__ctor_m2388548663_gshared
wgh:__Z56RuntimeInvoker_Boolean_t97287965_ILTokenInfo_t2325775114PFvvEPK10MethodInfoPvPS4_
vfb:__ZNSt3__26vectorINS_4pairIPKN5Unity4TypeE7Hash128EENS_9allocatorIS7_EEE8__appendEj
bFc:_cff_font_load
DFj:__GLOBAL__sub_I_LibraryLoader_cpp
qgc:__Z13IsPathCreatedRKN4core12basic_stringIcNS_20StringStorageDefaultIcEEEE
Mqi:__ZL99Dropdown_t2274391225_CustomAttributesCacheGenerator_Dropdown_DelayedDestroyDropdownList_m2082128994P21CustomAttributesCache
odg:_Debug_LogWarningFormat_m2535776735
Qya:__ZL22stbir__encode_scanlineP11stbir__infoiPvPfiii
nXi:__ZL24UnresolvedVirtualCall_28P12Il2CppObjectS0_iiPK10MethodInfo
Ord:_ExternalException__ctor_m2877839282
VBc:__ZN20QuadTreeNodeRenderer13StaticDestroyEPv
yT:__ZN11UnityEngine15CloudWebService20WebRequestRestClient5AbortEv
nHi:_Regex_Matches_m2080913806
o7b:__ZN9Transform12CleanupClassEv
pog:_Sprite_get_rect_m2575211689
vri:__ZL85Graphic_t1660335611_CustomAttributesCacheGenerator_Graphic_OnPopulateMesh_m2916877004P21CustomAttributesCache
$gg:_Mathf_Sin_m3411839043
iQc:_UNITY_FT_Set_Pixel_Sizes
TAe:_OperatingSystem_Clone_m1122165140
duh:_GameObject_AddComponent_TisRuntimeObject_m3469369570_gshared
rka:__ZNSt3__26vectorIN9ShaderLab19SerializedSubShaderENS_9allocatorIS2_EEE26__swap_out_circular_bufferERNS_14__split_bufferIS2_RS4_EE
qA:__ZN11UnityEngine9Animation33SetGenericTransformPropertyValuesERKNS0_30AnimatorGenericBindingConstantERKN7mecanim10ValueArrayEP9Transformy
u4h:__ZL59AttributeTargets_t1784037988_CustomAttributesCacheGeneratorP21CustomAttributesCache
Hyh:_Collection_1_System_Collections_IList_get_Item_m3426129749_gshared
hvj:__ZN6il2cpp2vmL24thread_cleanup_on_cancelEPv
$Og:_List_1_RemoveAll_m3165362277_gshared
fZf:_Type_type_is_subtype_of_m1406623598
lVf:_Thread_get_CurrentThread_m4142136012
EWa:__Z30ProcessDynamicBatchGeometryJobP25DynamicVBOGeometryJobDataj
CRb:__ZNSt3__27__sort4IRNS_6__lessI11CulledLightS2_EEPS2_EEjT0_S6_S6_S6_T_
sqj:__ZN6il2cpp2vm14TypeNameParser26ParseArrayModifierOptionalEv
h_:__Z26scripting_object_get_class18ScriptingObjectPtr
gwj:__ZN6il2cpp6icalls8mscorlib6System10Reflection8Assembly13get_code_baseEP24Il2CppReflectionAssemblyb
gib:__ZNSt3__26vectorIN4core12basic_stringIcNS1_20StringStorageDefaultIcEEEE13stl_allocatorIS5_L18MemLabelIdentifier13ELi16EEE7reserveEj
oHd:_DSASignatureDeformatter__ctor_m2889130126
$Oe:_X509ChainElementCollection_Clear_m2271223414
j6b:__ZNK28MonoBehaviourPropertyBinding15GenerateBindingERKN4core12basic_stringIcNS0_20StringStorageDefaultIcEEEEbRN11UnityEngine9Animation14GenericBindingE
Smg:_RectTransform_INTERNAL_set_pivot_m1160676233
XTg:_List_1_set_Item_m35836043_gshared
sti:__ZL70ScrollRect_t4137855814_CustomAttributesCacheGenerator_m_OnValueChangedP21CustomAttributesCache
SOe:_X509ChainElementCollection__ctor_m3424079155
wEi:_LinkStack_Push_m3081279930
xbe:_Enumerator_MoveNext_m1107569389_gshared
Igj:__ZNSt3__26vectorIP9FieldInfoNS_9allocatorIS2_EEE26__swap_out_circular_bufferERNS_14__split_bufferIS2_RS4_EE
iOi:_UnityEvent_3_GetDelegate_m1156357290_gshared
lHj:__ZN6il2cpp6icalls8mscorlib6System11Environment15internalGetHomeEv
b2d:_InternalEnumerator_1__ctor_m4200721464_gshared
Ahg:_Matrix4x4_GetHashCode_m4034747639_AdjustorThunk
Rqd:_ResourceCacheItem_t51292791_marshal_pinvoke_cleanup
AX:__ZNK5Unity9Component7GetNameEv
khj:__ZNSt3__214__split_bufferIN6il2cpp6icalls8mscorlib6System12PropertyPairERNS_9allocatorIS5_EEEC2EjjS8_
Nlf:_SymmetricAlgorithm_get_KeySize_m4185004893
_Mg:_List_1_GetEnumerator_m232588170_gshared
LNd:_U3CDelayedSetDirtyU3Ec__Iterator0_Reset_m160466733
Gcg:_Native__cctor_m1435623442
mSg:_List_1_System_Collections_IList_Remove_m1070694895_gshared
VQi:_LayoutCache__ctor_m3885940174
W6a:__ZN13ScreenManagerD0Ev
f4i:_AnimationMotionXToDeltaPlayable_GetHandle_m1319190040_AdjustorThunk
EB:__ZN7mecanim8skeleton26SkeletonPoseComputeGlobalQEPKNS0_8SkeletonEPKNS0_13SkeletonPoseTIN4math4trsXEEEPS7_ii
d0f:_UInt64_System_IConvertible_ToByte_m1501504925_AdjustorThunk
e2i:_TextGenerator_Invalidate_m1072346986
mre:_TlsClientHello_ProcessAsTls1_m2549285167
imh:__Z74RuntimeInvoker_Boolean_t97287965_UIVertex_t4057497605_UIVertex_t4057497605PFvvEPK10MethodInfoPvPS4_
zJh:_ReadOnlyCollection_1_System_Collections_IList_Clear_m3591436538_gshared
ASd:_ScrollRect_set_decelerationRate_m723367336
eB:__ZN9BlobWrite8TransferI22OffsetPtrArrayTransferIiEEEvRT_PKc17TransferMetaFlags
eRf:_EncoderExceptionFallback_Equals_m2760188920
bvb:__Z18Transfer_BlittableI17RemapPPtrTransferLb1EjEvRK29SerializationCommandArgumentsR31RuntimeSerializationCommandInfo
Wif:_RIPEMD160Managed_HashCore_m2350629432
hK:__ZN4FMOD6System7releaseEv
Nyb:__Z18Transfer_BlittableI19StreamedBinaryWriteILb0EELb1E8BitFieldEvRK29SerializationCommandArgumentsR31RuntimeSerializationCommandInfo
uZe:_Boolean_CompareTo_m3665076258
Qqf:_String_Split_m3580120853
X7f:_PrivateKeyInfo__ctor_m2811023496
f1:__Z18PathToAbsolutePathRKN4core12basic_stringIcNS_20StringStorageDefaultIcEEEE
Zjd:_PropertyBuilder_GetCustomAttributes_m2917594003
QRi:_GUILayoutUtility_LayoutFromEditorWindow_m2914699782
Cie:_BigInteger_SetBit_m1723423691
gfh:__Z78RuntimeInvoker_RuntimeObject_ObjectU26_t2146539884_RuntimeObject_RuntimeObjectPFvvEPK10MethodInfoPvPS4_
lVh:__ZL65X509ExtensionCollection_t609554708_CustomAttributesCacheGeneratorP21CustomAttributesCache
ZXc:__ZN21UnityAnalyticsManager15ThreadedCleanupEv
sya:__ZL13BlitImageImplR14ImageReferenceiiRKS_NS_10ColorSpaceENS_8BlitModeEb
hcc:__ZN15DirectorManager17AcquireOutputNodeEv
BAa:__ZN6prcoreL17RemapGenericFloatI18TexFormatRGBAFloat17TexFormatRGBFloatEEvPKNS_9InnerInfoE
guh:_GameObject_GetComponentInChildren_TisRuntimeObject_m1310240902_gshared
eme:__ZN30GenericInterfaceActionInvoker2IP12Il2CppObjectP21EventArgs_t3591816995E6InvokeEPK10MethodInfoS1_S1_S3_
thi:__ZL69PersistentCall_t3407714124_CustomAttributesCacheGenerator_m_ArgumentsP21CustomAttributesCache
oHa:__ZN16GeometryJobTasks20ScheduleGeometryJobsER9GfxDevicePFvP15GeometryJobDataEPK22GeometryJobInstructionjb
Are:_TlsServerCertificateRequest_ProcessAsSsl3_m1084200341
gZa:__ZN16ReflectionProbes28GetMinBakedCubemapResolutionEv
Nab:__ZN14BlendShapeData8TransferI14SafeBinaryReadEEvRT_
xhe:_Enumerator__ctor_m1849900510_gshared
WIj:__GLOBAL__sub_I_String_cpp
M6i:__ZN15dense_hashtableINSt3__24pairIK10KeyWrapperIPK22Il2CppGenericParameterEP11Il2CppClassEES6_N6il2cpp5utils11PointerHashIS4_EEN14dense_hash_mapIS6_S9_SE_NS6_14EqualsComparerINS0_8equal_toIS5_EEEENS0_9allocatorISA_EEE9SelectKeyESJ_SL_E6insertERKSA_
LLd:_InputField_GenerateCaret_m1459647218
Ffi:__ZL101SpriteAtlasManager_t3158462485_CustomAttributesCacheGenerator_SpriteAtlasManager_Register_m2413332465P21CustomAttributesCache
YAi:_X509CertificateEnumerator__ctor_m85694331
mua:__ZN14DataBufferGLES16RecreateWithDataEjPKv
_2:__Z29GetGlobalAllowNameConversionsv
OBf:_Array_InternalArray__Insert_TisTableRange_t3332867892_m558285859_gshared
A$b:__ZN8Material8SetColorEN9ShaderLab16FastPropertyNameERK10ColorRGBAf
toi:__ZL77ExecuteEvents_t3484638744_CustomAttributesCacheGenerator_U3CU3Ef__mgU24cacheFP21CustomAttributesCache
zIg:_Enumerator_System_Collections_IEnumerator_Reset_m3754523291_gshared
V3j:_glUniform3uiv__wrapper
F4h:__ZL77Convert_t2465617642_CustomAttributesCacheGenerator_Convert_ToByte_m2375887898P21CustomAttributesCache
fM:__ZN11AudioSource23VirtualRedirectTransferER18StreamedBinaryReadILb0EE
Skg:_RangeInt_get_end_m4128831787
kca:__ZN21AssetReferenceStorageC2Ev
cBi:_PKCS12_get_IterationCount_m3005687235
szb:__ZN10RectOffset8TransferI19StreamedBinaryWriteILb0EEEEvRT_
hYj:dynCall_iiifiii
eRg:_List_1_set_Item_m2082115010_gshared
TRf:_Encoding_GetBytes_m3735967069
wXe:_Array_Initialize_m3004991267
QDa:__ZN14GfxContextGLES43AddRenderSurfaceToDeferredFBOInvalidateListEPK17RenderSurfaceGLES
Iwj:__ZN6il2cpp6icalls8mscorlib6System9Threading6Thread15Thread_internalEP12Il2CppThreadP14Il2CppDelegate
Eoa:__ZN11NamedObject23VirtualRedirectTransferER14SafeBinaryRead
ZVd:_Text_get_resizeTextMinSize_m1002355407
ZPc:__ZNSt3__26vectorIN20TextRenderingPrivate8FontImpl13CharacterInfoE13stl_allocatorIS3_L18MemLabelIdentifier1ELi16EEE6insertENS_11__wrap_iterIPKS3_EERS9_
aMa:__ZN23PreloadManagerOperation6IsDoneEv
KNg:_List_1_GrowIfNeeded_m3796726_gshared
wlj:__ZNK15dense_hashtableINSt3__24pairIK10KeyWrapperINS1_IPK10MethodInfoP11Il2CppClassEEEjEES9_17ReflectionMapHashIS8_EN14dense_hash_mapIS9_jSD_NS9_14EqualsComparerINS0_8equal_toIS8_EEEENS0_9allocatorISB_EEE9SelectKeyESI_SK_E8min_sizeEjj
YRd:_Selectable_get_navigation_m3508916916
BIj:__ZN6il2cpp5utils11StringUtils11Utf16ToUtf8ERKNSt3__212basic_stringIDsNS2_11char_traitsIDsEENS2_9allocatorIDsEEEE
gle:_MD4Managed_Decode_m4273685594
x4g:__Z50RuntimeInvoker_Int64_t3736567304_Int16_t2552820387PFvvEPK10MethodInfoPvPS4_
Pjb:__ZN21LightProbeProxyVolume18HasHardwareSupportEv
CUb:__ZN26LightProbeProxyVolumeCacheC2ER13BatchRendererR15RenderLoopStats
eza:__ZN6prcoreL31inner_stretch_argb8888_bilinearEPKNS_9InnerInfoE
PAb:__Z18Transfer_BlittableI18StreamedBinaryReadILb1EELb1E8BitFieldEvRK29SerializationCommandArgumentsR31RuntimeSerializationCommandInfo
U5:__ZNK4PPtrI11LightProbesEcvPS0_Ev
AJc:_UNITY_FT_Outline_Decompose
edf:_Int64_System_IConvertible_ToChar_m1509243576_AdjustorThunk
iAi:_GeneralNames_get_IPAddresses_m4242915644
EGf:_Decimal_op_Implicit_m3873897383
NGg:_Enumerator_Dispose_m3500272053_AdjustorThunk
nNj:_GC_init_size_map
cUa:__Z20scripting_object_new17ScriptingClassPtr
xTh:__ZL69RuntimeArray_CustomAttributesCacheGenerator_Array_Reverse_m3714848183P21CustomAttributesCache
i8f:_KeyGeneratedEventHandler_Invoke_m2527485594
Fjd:_Image_get_layoutPriority_m1290204116
ykj:__ZN24dense_hashtable_iteratorINSt3__24pairIK10KeyWrapperINS1_IPK9FieldInfoP11Il2CppClassEEEjEES9_17ReflectionMapHashIS8_EN14dense_hash_mapIS9_jSD_NS9_14EqualsComparerINS0_8equal_toIS8_EEEENS0_9allocatorISB_EEE9SelectKeyESI_SK_E30advance_past_empty_and_deletedEv
mJi:_Repetition_get_Expression_m2673886232
AMf:_Decimal__ctor_m1925875020_AdjustorThunk
hDd:_SerializationCallbacks__ctor_m3863304525
iMa:__ZN23PreloadManagerOperation21MustCompleteNextFrameEv
G0h:__ZL59SerializationInfo_t950877179_CustomAttributesCacheGeneratorP21CustomAttributesCache
P:Math_exp
Sag:_Vector3_Min_m1803158933
No:FUNCTION_TABLE_iiifi
HEj:__ZN6il2cpp2os5posix13PosixAutoLockD2Ev
qzi:_TlsServerSettings_set_CertificateTypes_m2047242411
WSi:_SymmetricTransform_OFB_m3690147804
L5d:_InternalEnumerator_1_MoveNext_m3713722659_AdjustorThunk
yCc:_cff_get_advances
zGb:__ZN13MonoBehaviour9SetScriptERK4PPtrI10MonoScriptE18ScriptingObjectPtr
jjj:_RaycastHit2D_get_collider_m1549426026
kub:__Z18Transfer_BlittableI17RemapPPtrTransferLb0E8Vector2fEvRK29SerializationCommandArgumentsR31RuntimeSerializationCommandInfo
Izj:__ZNSt3__218uninitialized_copyIPNS_4pairIK10KeyWrapperIP14Il2CppIUnknownEjEES8_EET0_T_SA_S9_
Pjh:__Z77RuntimeInvoker_Void_t1185182177_Vector2U5BU5DU26_t476646542_Int32_t2950945753PFvvEPK10MethodInfoPvPS4_
lTe:_PKCS12_get_RNG_m2649456600
wNa:__ZNK10FileSystem16LastErrorMessageEv
Qnh:_Array_InternalArray__Insert_TisVector3_t3722313464_m3862657277_gshared
Sfi:__ZL104NativeClassAttribute_t2601352714_CustomAttributesCacheGenerator_U3CQualifiedNativeNameU3Ek__BackingFieldP21CustomAttributesCache
$nf:_SecurityException__ctor_m1631242336
Z8i:__ZN15dense_hashtableINSt3__24pairIK10KeyWrapperIPK11Il2CppClassEPKcEES6_N6il2cpp5utils11PointerHashIS3_EEN14dense_hash_mapIS6_S9_SE_NS6_14EqualsComparerINS0_8equal_toIS5_EEEENS0_9allocatorISA_EEE9SelectKeyESJ_SL_E14squash_deletedEv
e6c:_EventSystem_Update_m1662072334
L3c:__ZN22UnityWebRequestManager10InitializeEv
QFb:__ZN13MonoBehaviour13AwakeFromLoadE17AwakeFromLoadMode
bXh:__ZL51FileMode_t1183438340_CustomAttributesCacheGeneratorP21CustomAttributesCache
Wub:__ZL26Transfer_SimpleNativeClassI17RemapPPtrTransfer8GradientLb1EEvRK29SerializationCommandArgumentsR31RuntimeSerializationCommandInfo
I5c:_RaycasterManager_RemoveRaycasters_m3057093063
sdc:__ZN12CachedWriter9InitWriteER15CacheWriterBase
Ybc:__Z21UnsignedInt64ToStringy
BQd:_GetRaycastNonAllocCallback_BeginInvoke_m3984885848
r0d:_InternalEnumerator_1_MoveNext_m4138204635_AdjustorThunk
yFi:_PatternCompiler_BeginLink_m1295557963
DSa:__ZN14SafeBinaryRead21TransferSTLStyleArrayI13dynamic_arrayI17SortingLayerEntryLj4EEEEvRT_17TransferMetaFlags
v1h:__ZL46MD5_t3177620429_CustomAttributesCacheGeneratorP21CustomAttributesCache
jaf:_GuidParser_ThrowFormatException_m3223388534
MIi:_Group_GetAnchorInfo_m3730312864
nri:__ZL50Graphic_t1660335611_CustomAttributesCacheGeneratorP21CustomAttributesCache
Mde:_KeyCollection_System_Collections_Generic_ICollectionU3CTKeyU3E_Add_m454648927_gshared
yYf:_TimeSpan_op_LessThanOrEqual_m300470010
Bvd:_ContextAttribute_Freeze_m3288175579
_Re:_Interval_Merge_m3454211016_AdjustorThunk
kaj:__ZNSt3__218uninitialized_fillIPNS_4pairIK10KeyWrapperIPK19Il2CppGenericMethodEPK26Il2CppGenericMethodIndicesEESB_EEvT_SD_RKT0_
fea:__ZZN15DirectorManager15InitializeClassEvEN41FixedUpdateDirectorFixedUpdateRegistrator7ForwardEv
zhf:_MemoryStream_get_Position_m3733941202
BPi:_ListPool_1_Clear_m2587502754_gshared
Zci:__ZL96TouchScreenKeyboard_t731888065_CustomAttributesCacheGenerator_TouchScreenKeyboard_Open_m43950298P21CustomAttributesCache
T$i:_AudioClipPlayable_Equals_m3705880618
S2b:__ZL10KeyHandleriPK23EmscriptenKeyboardEventPv
uCf:_Slot_t3975888750_marshal_pinvoke
h5j:_glLinkProgram__wrapper
Nmb:__ZN18ScriptingArguments8AddInt64Ex
Oza:__ZN6prcoreL12RemapGenericI17TexFormatARGB888815TexFormatBGR888EEvPKNS_9InnerInfoE
snb:__ZN12HandlerChain4LockER13FileEntryData12FileLockMode
S9e:_TextInfo_get_ListSeparator_m1628160079
koi:__ZL77ExecuteEvents_t3484638744_CustomAttributesCacheGenerator_U3CU3Ef__mgU24cache6P21CustomAttributesCache
sUd:_Selectable_OnCanvasGroupChanged_m472903475
uVf:_EventWaitHandle_Reset_m3348053200
She:_Enumerator_get_Current_m2897627569_gshared
s1c:__ZN28UnityConnectScriptingClasses23CallSessionStateChangedEixxbP21ScriptingExceptionPtr
Qoe:_ClientContext_get_SslStream_m1583577309
azj:__ZN6il2cpp6icalls8mscorlib6System13Globalization11CultureInfo35construct_internal_locale_from_nameEP17Il2CppCultureInfoP12Il2CppString
cxb:__ZL22Transfer_ManagedObjectI24GenerateTypeTreeTransferLb1EEvRK29SerializationCommandArgumentsR31RuntimeSerializationCommandInfo
gYg:__Z100RuntimeInvoker_Boolean_t97287965_RuntimeObject_Int32_t2950945753_RuntimeObject_UInt16U26_t2814738322PFvvEPK10MethodInfoPvPS4_
jkh:__Z56RuntimeInvoker_ILTokenInfo_t2325775114_Int32_t2950945753PFvvEPK10MethodInfoPvPS4_
KHd:_HMAC_get_BlockSizeValue_m455678067
gPb:__ZN15RenderNodeQueueC2E10MemLabelId
Nqd:_ResourceEnumerator_FillCache_m1661715061
BJh:_ReadOnlyCollection_1_System_Collections_IList_IndexOf_m3664838805_gshared
H2h:__ZL72SecuritySafeCriticalAttribute_t3505979402_CustomAttributesCacheGeneratorP21CustomAttributesCache
ek:_emscripten_set_main_loop_timing
Gag:_Bounds_get_min_m3755135869
PIf:_Convert_ToUInt16_m3523269149
sag:_Bounds_get_center_m1418449258
Iva:__ZN14DataBufferGLES12RecordRenderEv
d7c:_ExecuteEvents_get_endDragHandler_m2879610446
h$b:__ZN14ImageReference10FlipImageYEv
Sej:_UsedByNativeCodeAttribute__ctor_m2647015777
uTa:__Z32TransferEnumWithNameForceIntSizeI14SafeBinaryRead13TargetEyeMaskEvRT_RT0_PKc17TransferMetaFlags
Qqc:__Z14GetDefaultSkini
vF:__ZN4FMOD3DSP9setBypassEb
O2b:__Z19NormalizeWheelInputf
hhd:_Graphic_DoMeshGeneration_m3548487693
L1b:__Z29StdTemplateConversionFunctionIsaEbPvR14SafeBinaryRead
Fy:__ZNK4PPtrI13MonoBehaviourEcvPS0_Ev
LGi:_Repetition__ctor_m1672362629
Pzc:__Z29Transfer_Blittable_ArrayFieldI8JSONReadhEvRT_R9ArrayInfoRK23StaticTransferFieldInfo
cpf:_SecurityFrame_ToString_m339310712_AdjustorThunk
Mkd:_TypeBuilder_create_runtime_class_m2581270900
v_d:_InternalEnumerator_1_get_Current_m3008260692_gshared
PRj:__ZN6il2cpp2os20ThreadLocalValueImpl8SetValueEPv
GUa:__ZN22RenderingCommandBuffer20CleanupCommandBufferEv
GGf:_Decimal_op_Implicit_m2299919277
Euc:__Z18Transfer_BlittableI9JSONWriteLb1EtEvRK29SerializationCommandArgumentsR31RuntimeSerializationCommandInfo
tve:_UnexceptionalStreamReader_ReadToEnd_m920589220
vKf:_DateTime_System_IConvertible_ToType_m1242864300
nrf:_String_IndexOf_m1298810678
zk:___syscall85
Fki:__ZL85GUI_t1624858472_CustomAttributesCacheGenerator_GUI_set_nextScrollStepTime_m1026410471P21CustomAttributesCache
xuh:_Mesh_GetAllocArrayFromChannel_TisVector3_t3722313464_m2332439905_gshared
lPb:__ZNSt3__26__sortIRPFbP10GUIElementS2_EPS2_EEvT0_S7_T_
Hac:__ZN16GraphicsSettings12CleanupClassEv
PDe:_ConstructorBuilder_GetILGenerator_m1750792206
rRf:_EncoderFallback_get_ReplacementFallback_m818398284
yFj:__ZN6il2cpp2os6Thread19DetachCurrentThreadEv
z6c:_EventTrigger_OnBeginDrag_m4203438710
g7i:__ZN6il2cpp2vmL21SetupInterfacesLockedEP11Il2CppClassRKNS_2os12FastAutoLockE
Epb:__ZN11MonoManager23VirtualRedirectTransferER24GenerateTypeTreeTransfer
Drh:_Dictionary_2_Do_CopyTo_TisRuntimeObject_TisRuntimeObject_m2344529027_gshared
Ez:__ZN23AnimationPlayableOutput17SetSourcePlayableEP8Playable
bHj:__ZN6il2cpp2gc16GarbageCollector22MakeDescriptorForArrayEv
glh:__Z37RuntimeInvoker_UILineInfo_t4195266810PFvvEPK10MethodInfoPvPS4_
Mcg:_CullingGroup_Dispose_m782801025
Gxg:_Dictionary_2_System_Collections_IDictionary_GetEnumerator_m529247385_gshared
yS:__ZN11UnityEngine15CloudWebService14DataDispatcher15SetupWebRequestEv
och:__Z64RuntimeInvoker_Boolean_t97287965_RuntimeObject_Int16_t2552820387PFvvEPK10MethodInfoPvPS4_
F_c:__ZN11UnityEngine15PlatformWrapper13GetShaderCapsEv
PWb:__ZNSt3__211__sift_downIR26RenderDeferredObjectSorterP16RenderObjectDataEEvT0_S5_T_NS_15iterator_traitsIS5_E15difference_typeES5_
$Fe:_GenericTypeParameterBuilder_IsDefined_m98179866
f7f:_KeyPairPersistence_get_MachinePath_m3812267291
PDf:_Stack_Peek_m2216191248
iKf:_DateTime_System_IConvertible_ToDecimal_m1044850612_AdjustorThunk
ubc:__ZN21FixedBehaviourManager6UpdateEv
egc:__ZN9Transform9SetParentEPS_NS_15SetParentOptionE
Y4:__ZN19ShaderPropertySheet8SetFloatEN9ShaderLab16FastPropertyNameEfNS_8SetFlagsE
Fib:__ZN19RuntimeSceneManager24BeginIntegrateMainThreadEP10UnityScene
sre:_TlsServerCertificate_ProcessAsSsl3_m1306583193
xGj:__ZNSt3__2plIcNS_11char_traitsIcEENS_9allocatorIcEEEENS_12basic_stringIT_T0_T1_EERKS9_S6_
sue:_StringReader_CheckObjectDisposedException_m3796163530
t$f:_UInt32_System_IConvertible_ToInt16_m1659441601
Uja:__ZN9ShaderLab20SerializedSubProgramaSERKS0_
JXj:_roundf
kvg:_Dictionary_2_pick_value_m4268517353_gshared
f_e:_Byte_System_IConvertible_ToSingle_m324484566_AdjustorThunk
EEf:_Decimal_op_Explicit_m2848387298
iFg:_KeyValuePair_2_ToString_m1238786018_gshared
et:__ZN8Animator15SetPrepareStageEv
XE:__ZN8AnimatorC2E10MemLabelId18ObjectCreationMode
h7i:__ZN6il2cpp2vmL24SetupTypeHierarchyLockedEP11Il2CppClassRKNS_2os12FastAutoLockE
T2b:__ZL11TextHandleriPK23EmscriptenKeyboardEventPv
azd:_SoapFieldAttribute_get_XmlElementName_m2203304026
uPc:_destroy_face
u1j:_glBlendEquationSeparate__wrapper
jBc:__ZN5physx19PxAllocatorCallbackD2Ev
KOj:__ZN6il2cpp6icalls8mscorlib6System8Security12Cryptography24RNGCryptoServiceProvider13RngInitializeEP11Il2CppArray
dai:__ZL68UsedByNativeCodeAttribute_t1703770351_CustomAttributesCacheGeneratorP21CustomAttributesCache
oM:__ZN20SoundChannelInstance7setMuteEb
nYg:__Z81RuntimeInvoker_Void_t1185182177_RuntimeObject_Int32_t2950945753_Int32_t2950945753PFvvEPK10MethodInfoPvPS4_
eZa:__ZN4PPtrI5LightE8TransferI19StreamedBinaryWriteILb0EEEEvRT_
tNg:_List_1__cctor_m972674764_gshared
AAe:_NumberFormatter_NumberToString_m3906556024
OBb:__Z19TransferField_ArrayI18StreamedBinaryReadILb1EE27Converter_SimpleNativeClassI17AnimationCurveTplIfEEEvRK23StaticTransferFieldInfoR31RuntimeSerializationCommandInfoRT0_
lwa:__ZN18GfxFramebufferGLES22MakeCurrentFramebufferENS_7BuiltinE
YJj:__ZN6il2cpp2vm12MarshalAlloc4FreeEPv
y7:__ZN12CachedReader4ReadEPvj
iqd:_TypeFilter_EndInvoke_m998903841
M9c:_StandaloneInputModule_ProcessMouseEvent_m2923582521
FFg:_KeyValuePair_2__ctor_m1794021352_gshared
N3f:_SimpleCollator_MatchesForwardCore_m850743967
BTb:__Z24CalculateLightShadowFadeRK6CamerafffR8Vector4f
Paa:__ZN19RuntimeSceneManagerD2Ev
Khi:__ZL77DeallocateOnJobCompletionAttribute_t3131681843_CustomAttributesCacheGeneratorP21CustomAttributesCache
Bma:__ZN13dynamic_arrayIPN9ShaderLab4PassELj4EE9push_backERKS2_
h6e:_CCGregorianCalendar_GetMonth_m1547203696
OT:__ZN11UnityEngine15CloudWebService25WebRequestDownloadHandler17OnCompleteContentEv
dza:__ZN6prcore17GetIntegerBlitterE13TextureFormatS0_N14ImageReference8BlitModeE
OMj:_GC_print_block_descr
rvh:_Collection_1_IndexOf_m934463944_gshared
Plj:__ZN6il2cpp2gc19AppendOnlyGCHashMapINSt3__24pairIPK11Il2CppImageP11Il2CppClassEEP22Il2CppReflectionModule17ReflectionMapHashIS9_ENS2_8equal_toIS9_EEE11TryGetValueERKS9_PSB_
x$i:__ZL25UnresolvedVirtualCall_254P12Il2CppObject20UICharInfo_t75501106PK10MethodInfo
VWh:__ZL51Directory_t828876208_CustomAttributesCacheGeneratorP21CustomAttributesCache
_Xe:_SimpleEnumerator_Reset_m2182001888
bhh:__Z86RuntimeInvoker_Int32_t2950945753_Vector2_t2156229523_Vector2_t2156229523_RuntimeObjectPFvvEPK10MethodInfoPvPS4_
_hc:__ZN9BlobWrite14ReduceCopyImplERK14ReduceCopyDataj
n9:__ZNSt3__26__treeI19RepeatingLogMessageNS_4lessIS1_EE13stl_allocatorIS1_L18MemLabelIdentifier73ELi16EEE12__find_equalIS1_EERPNS_16__tree_node_baseIPvEESD_RKT_
_P:__ZN11AudioSource18IsPlayingScriptingEv
Z6f:_KeyBuilder_IV_m2230195376
j0j:_glShaderSource__wrapper
pPa:__ZN25MultiBlocksMemoryFileData17AdjustBlocksCountEj
swj:__ZNSt3__214__split_bufferIN6il2cpp2vm22EmbeddedResourceRecordERNS_9allocatorIS3_EEED2Ev
ONc:__ZN13TextRendering4Font8TransferI24GenerateTypeTreeTransferEEvRT_
isa:__ZN9GfxDevice15EndProfileEventEPN9profiling6MarkerE
pjc:__Z27CullingGroup_CUSTOM_DisposeP12Il2CppObject
awj:__ZN6il2cpp6icalls8mscorlib6SystemL23CheckWideningConversionEjjj
ROb:__ZN13ComputeShader15SetTextureParamEjRKN9ShaderLab16FastPropertyNameE9TextureID16TextureDimension
g8d:_Comparer_1__ctor_m319670016_gshared
Hm:_glStencilMask
ZFj:__ZN6il2cpp2os10ThreadImpl16GetCurrentThreadEv
dod:_MonoMethod_GetBaseDefinition_m2844667474
P2b:__ZN15GUIEventManager10QueueEventERK10InputEvent
Fwh:_Collection_1_Clear_m1300437781_gshared
Lvi:__ZL64VertexHelperExtension_t1281316730_CustomAttributesCacheGeneratorP21CustomAttributesCache
aDh:_Collection_1_Contains_m1707523067_gshared
wrd:_DecimalConstantAttribute__ctor_m3583301917
ozh:_Collection_1_System_Collections_ICollection_get_IsSynchronized_m1640823718_gshared
oMj:_GC_push_conditional_with_exclusions
U9d:_Enumerator_System_Collections_IDictionaryEnumerator_get_Entry_m2772123357_AdjustorThunk
Hxd:_MethodCallDictionary__ctor_m2167303393
dC:__ZN12_GLOBAL__N_121ProcessAnimationBeginER35AnimationPlayableEvaluationConstantR32AnimationPlayableEvaluationInputR33AnimationPlayableEvaluationOutput
R4h:__ZL80Convert_t2465617642_CustomAttributesCacheGenerator_Convert_ToDecimal_m2858622624P21CustomAttributesCache
vwi:__ZL68TrackableField_t1772682203_CustomAttributesCacheGenerator_m_EnumTypeP21CustomAttributesCache
OUj:_strrchr
lcg:_Component_GetComponentInParent_m779177818
hud:__ZN21InterfaceFuncInvoker1IP8String_tS1_E6InvokeEjP11Il2CppClassP12Il2CppObjectS1_
Kvg:_Dictionary_2_System_Collections_ICollection_get_SyncRoot_m2069913662_gshared
mad:_UIBehaviour_IsDestroyed_m3033055982
z8g:__Z109RuntimeInvoker_Void_t1185182177_RuntimeObject_RuntimeObject_SByte_t1669577662_Int32_t2950945753_RuntimeObjectPFvvEPK10MethodInfoPvPS4_
nqg:_Enumerator_Reset_m39541243
jKd:_InputField_get_readOnly_m3111985574
rZa:__ZN14RenderSettings27UpdateIndirectSpecularColorEv
zgg:_Logger_get_logHandler_m1335645353
wgb:__ZN14PlayerSettings8TransferI18StreamedBinaryReadILb0EEEEvRT_
Sgj:__ZN6il2cpp6icalls8mscorlib6System8MonoType16GetMethodsByNameEP20Il2CppReflectionTypeP12Il2CppStringibS5_
X$h:__ZL73ObjRef_t2141158884_CustomAttributesCacheGenerator_U3CU3Ef__switchU24map26P21CustomAttributesCache
ipi:__ZL102PointerEventData_t3807901092_CustomAttributesCacheGenerator_PointerEventData_set_pointerId_m1888344330P21CustomAttributesCache
Sji:__ZL88AudioClip_t3680889665_CustomAttributesCacheGenerator_AudioClip_get_ambisonic_m3815052287P21CustomAttributesCache
GNd:_U3CDelayedSetDirtyU3Ec__Iterator0__ctor_m3936335621
a6:__ZN4PPtrI10GameObjectE8TransferI14SafeBinaryReadEEvRT_
_hi:__ZL106PlayableAsset_t3219022681_CustomAttributesCacheGenerator_PlayableAsset_Internal_CreatePlayable_m2550417712P21CustomAttributesCache
NVf:_Monitor_Monitor_wait_m3706677354
RDi:_RijndaelTransform__cctor_m2439033240
eLb:__ZNSt3__27__sort3IRNS_4lessIN22BuiltinResourceManager8ResourceEEEPS3_EEjT0_S7_S7_T_
_Th:__ZL175U3CGetEnumeratorU3Ec__Iterator0_t1202911786_CustomAttributesCacheGenerator_U3CGetEnumeratorU3Ec__Iterator0_System_Collections_Generic_IEnumeratorU3CTU3E_get_Current_m322251035P21CustomAttributesCache
jMc:_ps_hints_t2mask
Qsh:_LayoutGroup_SetProperty_TisVector2_t2156229523_m2721164497_gshared
Vuf:_Array_InternalArray__ICollection_Remove_TisMonoResource_t4103430009_m238733686_gshared
pef:_IntPtr_ToString_m1831665121
nVd:_Slider_Set_m1476104429
pqd:__ZN28GenericInterfaceFuncInvoker1IP10Assembly_tP28ResolveEventArgs_t1779456501E6InvokeEPK10MethodInfoP12Il2CppObjectS3_
Uid:_Image_set_fillClockwise_m2210525152
Vbb:__ZN10BlendShape8TransferI19StreamedBinaryWriteILb0EEEEvRT_
bG:__Z32TransferEnumWithNameForceIntSizeI14SafeBinaryReadN10SampleClip8LoadTypeEEvRT_RT0_PKc17TransferMetaFlags
gef:__Z21il2cpp_codegen_sizeofP11Il2CppClass
YCa:__Z19GetTimeSinceStartupv
sjd:_Image_AddQuad_m2161647989
u5c:_BaseInputModule_DeactivateModule_m856719157
PFj:__ZN6il2cpp2os10ThreadImpl11SetPriorityENS0_14ThreadPriorityE
oIg:_Enumerator_System_Collections_IEnumerator_Reset_m2953002685_gshared
e_g:__Z50RuntimeInvoker_Int64_t3736567304_Int32_t2950945753PFvvEPK10MethodInfoPvPS4_
FLc:_TT_Load_Composite_Glyph
lsa:__ZN9GfxDevice16DeleteTimerQueryEP13GfxTimerQuery
GUg:_List_1_Insert_m1695211546_gshared
Mje:__ZN21InterfaceFuncInvoker2IbP22BigInteger_t2902905090iE6InvokeEjP11Il2CppClassP12Il2CppObjectS1_i
_bh:__Z49RuntimeInvoker_Void_t1185182177_Color_t2555686324PFvvEPK10MethodInfoPvPS4_
f0a:__ZN9ShaderLab11shaderprops9GetTexEnvEPK19ShaderPropertySheetS3_NS_16FastPropertyNameE16TextureDimensionb
cPg:_List_1_Sort_m3232912161_gshared
bde:_KeyCollection_System_Collections_ICollection_CopyTo_m1760651091_gshared
VRb:__ZN29RenderNodeQueuePrepareContextC2Ev
Isj:_il2cpp_gc_disable
ela:__ZN9ShaderLab20SerializedSubProgram16TextureParameter8TransferI24GenerateTypeTreeTransferEEvRT_
qHd:_DSASignatureDeformatter_SetKey_m2999549245
iPj:__ZN6il2cpp2os11MutexHandle4WaitEb
wpa:__ZN9GfxDevice19SaveStereoConstantsEv
hPj:__ZN6il2cpp2os11MutexHandle4WaitEj
Sgc:__ZL34GetComponentsImplementationRecurseILb1ELi1ELi1EEbR10GameObjectbRK17CompareParametersRK39GetComponentsImplementation_ReturnValue
o$g:__Z114RuntimeInvoker_Boolean_t97287965_RuntimeObject_RuntimeObject_Int32_t2950945753_Int32_t2950945753_Int32_t2950945753PFvvEPK10MethodInfoPvPS4_
jDe:_AssemblyBuilder_GetTypes_m3415680380
YAa:__ZN6prcoreL17RemapGenericFloatI15TexFormatRGHalf18TexFormatARGBFloatEEvPKNS_9InnerInfoE
LTi:_AnalyticsEventParam_get_groupID_m569309506
xOf:_StackFrame_GetMethod_m1395840764
F_a:__ZNK13RenderTexture13GetDataHeightEv
dJb:__Z18SimulateMouseInputi
gOb:__ZN13RenderManager23AddRemoveCamerasDelayedEv
Jvc:__ZN9JSONWrite8TransferI13dynamic_arrayIdLj8EEEEvRT_PKc17TransferMetaFlags
cMa:__ZN23PreloadManagerOperation11GetPriorityEv
YMd:_LayoutElement_OnEnable_m1760066426
aYc:__ZN11UnityEngine9Analytics15AnalyticsConfigC2Ev
jtc:__ZN5Unity9rapidjson6WriterI16TempBufferWriterNS0_4UTF8IcEES4_13JSONAllocatorE11WriteUint64Ey
IYe:_BitConverter__cctor_m3841343255
lEf:_Decimal_Compare_m3062820418
bEi:_IntervalCollection_GetMetaCollection_m4029522214
u6c:_EventTrigger_OnDeselect_m1919608102
X1i:_TextGenerator_get_characterCount_m864136654
W9f:_AsyncOperation_t1445031843_marshal_pinvoke_cleanup
AXf:_TimeSpan__ctor_m2047388489_AdjustorThunk
SZb:__ZN13RenderTexture8SetWidthEi
t6b:__ZNK28RectTransformPropertyBinding12SetPPtrValueERKN11UnityEngine9Animation10BoundCurveEi
uLb:__ZN18FrameTimingManager18GetVSyncsPerSecondEv
UCb:__Z18Transfer_BlittableI18StreamedBinaryReadILb0EELb0EfEvRK29SerializationCommandArgumentsR31RuntimeSerializationCommandInfo
fcb:__ZN10MeshFilterD0Ev
HLc:_UNITY_FT_GlyphLoader_CheckSubGlyphs
QZd:_InternalEnumerator_1__ctor_m1341209356_AdjustorThunk
eUb:__Z25SetupObjectBakedOcclusionbRK15SharedLightDataRK26SharedLightmapSettingsDataRK15LightmapIndicesR17ShaderPassContext
Lxh:_Collection_1_System_Collections_ICollection_CopyTo_m1516601228_gshared
Oyh:_Collection_1_CopyTo_m4278237485_gshared
SAh:_Collection_1_Add_m3860636938_gshared
SWi:__ZL23UnresolvedVirtualCall_5P12Il2CppObjectsPK10MethodInfo
LD:__ZN4PPtrI6AvatarE8TransferI19StreamedBinaryWriteILb0EEEEvRT_
mKg:_List_1_Insert_m4050947056_gshared
e5:__ZN9ShaderLab16FastPropertyName4InitEPKc
A1d:_InternalEnumerator_1__ctor_m39232262_AdjustorThunk
J8g:__Z48RuntimeInvoker_OperatingSystemFamily_t1868066375PFvvEPK10MethodInfoPvPS4_
N3h:__ZL61Thread_t2300836069_CustomAttributesCacheGenerator_local_slotsP21CustomAttributesCache
E5b:__Z13RegisterClassIN2UI13RectTransformEEvv
hEh:_Collection_1_System_Collections_IEnumerable_GetEnumerator_m3596816767_gshared
$9b:__ZL31MeshRendererTransformChangedJobP13BoundsJobDatajPK23TransformAccessReadOnlyPKyj
h_c:__ZN11UnityEngine15PlatformWrapper19GetPhysicalMemoryMBEv
M_e:_Char_System_IConvertible_ToByte_m2347554595_AdjustorThunk
Kgi:__ZL59TooltipAttribute_t3957072629_CustomAttributesCacheGeneratorP21CustomAttributesCache
k8a:__ZN10VertexData8TransferI17RemapPPtrTransferEEvRT_
g_a:__ZN13RenderTexture9SetMipMapEb
o9i:__ZN15dense_hashtableINSt3__24pairIK10KeyWrapperIPK11Il2CppClassEPKcEES6_N6il2cpp5utils11PointerHashIS3_EEN14dense_hash_mapIS6_S9_SE_NS6_14EqualsComparerINS0_8equal_toIS5_EEEENS0_9allocatorISA_EEE9SelectKeyESJ_SL_E13set_empty_keyERKSA_
psf:_String_CreateString_m860434552
Cea:__Z18GetDirectorManagerv
Ohe:_Enumerator_System_Collections_IEnumerator_Reset_m278261807_AdjustorThunk
sxh:_Collection_1_GetEnumerator_m1824095167_gshared
EZh:__ZL107CriticalFinalizerObject_t701527852_CustomAttributesCacheGenerator_CriticalFinalizerObject__ctor_m3245424448P21CustomAttributesCache
Ncf:_Int32_Equals_m2976157357_AdjustorThunk
pnc:__Z38Transform_CUSTOM_INTERNAL_get_rotationP12Il2CppObjectP11Quaternionf
Zyd:_SoapAttribute_get_XmlNamespace_m859394681
Elj:__ZNK15dense_hashtableINSt3__24pairIK10KeyWrapperINS1_IPK10MethodInfoP11Il2CppClassEEEjEES9_17ReflectionMapHashIS8_EN14dense_hash_mapIS9_jSD_NS9_14EqualsComparerINS0_8equal_toIS8_EEEENS0_9allocatorISB_EEE9SelectKeyESI_SK_E5beginEv
cDi:_X509ExtensionCollection_System_Collections_IEnumerable_GetEnumerator_m1475785462
nua:__ZN7ApiGLES19UploadBufferSubDataEjN2gl12BufferTargetEllPKv
J4i:_SkeletonBone_t4134054672_marshal_pinvoke_cleanup
Kga:__ZNSt3__216__rotate_forwardINS_11__wrap_iterIPN4core12basic_stringIcNS2_20StringStorageDefaultIcEEEEEEEET_S9_S9_S9_
Vqg:_Vector2_GetHashCode_m3916089713
yca:__ZdaPv
Yng:_SendMouseEvents_HitTestLegacyGUI_m579942228
mUd:_Selectable_get_isPointerDown_m3518318267
Olf:_SymmetricAlgorithm_set_KeySize_m3805756466
Bwi:__ZL70ValueProperty_t1868393739_CustomAttributesCacheGenerator_m_CustomValueP21CustomAttributesCache
j_e:_Byte_System_IConvertible_ToUInt32_m1049546902_AdjustorThunk
z7g:__Z53RuntimeInvoker_Double_t594665363_Interval_t1802865632PFvvEPK10MethodInfoPvPS4_
pLb:__Z21InitializeBatchedJobsv
Y2i:_CanvasGroup_get_blocksRaycasts_m1805542303
wkf:_SHA1Internal_ProcessBlock_m1991889327
Yrb:__Z19TransferField_ArrayI14SafeBinaryRead27Converter_SimpleNativeClassI8GUIStyleEEvRK23StaticTransferFieldInfoR31RuntimeSerializationCommandInfoRT0_
Jgi:__ZL60PropertyAttribute_t3677895545_CustomAttributesCacheGeneratorP21CustomAttributesCache
nzj:__ZN15dense_hashtableINSt3__24pairIK10KeyWrapperIP14Il2CppIUnknownEjEES5_N6il2cpp5utils11PointerHashIS3_EEN14dense_hash_mapIS5_jSB_NS5_14EqualsComparerINS0_8equal_toIS4_EEEENS0_9allocatorIS7_EEE9SelectKeyESG_SI_ED2Ev
eqh:_Array_Sort_TisRuntimeObject_TisRuntimeObject_m1685639929_gshared
TOj:__ZN6il2cpp5utils10MemoryPoolC2Ev
OYa:__ZN14RenderSettings5ResetEv
A4b:__ZN6Sprite9BindAtlasERK4PPtrI11SpriteAtlasE
rsc:__ZN5Unity9rapidjson12GenericValueINS0_4UTF8IcEE13JSONAllocatorE10FindMemberIS4_EENS0_21GenericMemberIteratorILb0ES3_S4_EERKNS1_IS3_T_EE
g2d:_InternalEnumerator_1_System_Collections_IEnumerator_get_Current_m3892960115_AdjustorThunk
fxj:__ZNSt3__212basic_stringIDsNS_11char_traitsIDsEENS_9allocatorIDsEEE6appendEPKDsj
QSi:_SymmetricTransform_Finalize_m4129642865
gQe:_CaptureCollection_CopyTo_m3566922817
WHd:_HMAC_HashCore_m3684104066
PNh:__ZN28GenericInterfaceFuncInvoker2Ii20UIVertex_t4057497605S0_E6InvokeEPK10MethodInfoP12Il2CppObjectS0_S0_
Rsc:__ZN5Unity9rapidjson13GenericReaderINS0_4UTF8IcEES3_13JSONAllocatorE11ParseNumberILj1ENS0_25GenericInsituStringStreamIS3_EENS0_15GenericDocumentIS3_S4_S4_EEEEvRT0_RT1_
edb:__ZN14SpriteRenderer14OnChangeSpriteEv
sAh:_Collection_1_RemoveItem_m2911050674_gshared
eYg:__Z79RuntimeInvoker_UInt16_t2177724958_RuntimeObject_Int32_t2950945753_RuntimeObjectPFvvEPK10MethodInfoPvPS4_
JFj:__ZN6il2cpp2os10ThreadImplD2Ev
R9e:_TextInfo_System_Runtime_Serialization_IDeserializationCallback_OnDeserialization_m1492046432
Mtc:__ZN8Gradient8TransferI9JSONWriteEEvRT_
ojb:__ZN21RendererUpdateManager18OncePerFrameUpdateER13RendererScene
rCi:_X509StoreManager_get_LocalMachine_m269504582
hmi:__ZL81TextEditor_t2759855366_CustomAttributesCacheGenerator_TextEditor__ctor_m242049450P21CustomAttributesCache
qEf:_Convert_ToBoolean_m2833621053
KLa:__ZNK12TLSAllocatorI14StackAllocatorE22GetAllocatedMemorySizeEv
LKa:__ZN4core8hash_mapINSt3__24pairI9UnityGUIDxEE15SpriteAtlasData23SpriteRenderDataKeyHashNS1_8equal_toIS4_EEE6insertERKNS2_IKS4_S5_EE
l8h:__ZL62WebHeaderCollection_t1942268960_CustomAttributesCacheGeneratorP21CustomAttributesCache
o3:__ZN17RemapPPtrTransfer12PushMetaFlagE17TransferMetaFlags
LBg:_EqualityComparer_1_System_Collections_IEqualityComparer_GetHashCode_m2138064395_gshared
pN:__ZNK7WeakPtrI20SoundChannelInstanceE10SharedData9GetRawPtrEv
dnb:__ZN12HandlerChain4NameEv
Cdd:_FloatTween_t1274330004_marshal_pinvoke
qbf:_Int16_System_IConvertible_ToType_m3672347013_AdjustorThunk
Brf:_String_LastIndexOf_m578673845
Ltb:__Z29Transfer_Blittable_ArrayFieldI14SafeBinaryReadN4math12int3_storageEEvRT_R9ArrayInfoRK23StaticTransferFieldInfo
Oof:_SecurityException_ToString_m3228070608
Xbf:_Int16_ToString_m2013897809
Lhh:__Z60RuntimeInvoker_Int32_t2950945753_ResourceCacheItem_t51292791PFvvEPK10MethodInfoPvPS4_
Qof:_String_Substring_m2848979100
qWc:__Z44Register_UnityEngine_CanvasRenderer_get_cullv
i6i:__ZN15dense_hashtableINSt3__24pairIK10KeyWrapperIPK22Il2CppGenericParameterEP11Il2CppClassEES6_N6il2cpp5utils11PointerHashIS4_EEN14dense_hash_mapIS6_S9_SE_NS6_14EqualsComparerINS0_8equal_toIS5_EEEENS0_9allocatorISA_EEE9SelectKeyESJ_SL_ED2Ev
juh:_ScriptableObject_CreateInstance_TisRuntimeObject_m1552711675_gshared
Lof:_SecurityException_get_PermissionType_m2237538728
l2b:__Z29StdTemplateConversionFunctionIbbEbPvR14SafeBinaryRead
LZc:__ZN11UnityEngine7Connect17XRDeviceInfoEvent12XRDeviceInfoD2Ev
_pb:__Z44InitializeTransferFunctionScriptingTraitsForI17RemapPPtrTransferEvR31TransferFunctionScriptingTraits
mXi:__ZL24UnresolvedVirtualCall_27P12Il2CppObjectS0_aPK10MethodInfo
l6b:__ZNSt3__26vectorI16MessageForwarder13stl_allocatorIS1_L18MemLabelIdentifier7ELi8EEE6resizeEj
nOe:_X509Chain_SelectBestFromCollection_m1068759221
ZSi:_SymmetricTransform_TransformBlock_m851059707
mSh:__ZL68IntPtr_t_CustomAttributesCacheGenerator_IntPtr_ToPointer_m4157623054P21CustomAttributesCache
rEh:_Collection_1_System_Collections_IList_get_IsReadOnly_m2978442176_gshared
cWg:_Enumerator_System_Collections_IEnumerator_Reset_m2261065994_AdjustorThunk
dTd:_ScrollRect_get_verticalNormalizedPosition_m3693218937
Eib:__ZN18LoadSceneOperation21MustCompleteNextFrameEv
pVd:_Slider_UpdateDrag_m1102107039
Hod:_MonoMethodInfo_get_method_info_m88651774
pM:__ZNK12AudioManager16GetAudioListenerEv
hcf:_Int32_System_IConvertible_ToDateTime_m1824716955
Qvg:_Dictionary_2_System_Collections_Generic_ICollectionU3CSystem_Collections_Generic_KeyValuePairU3CTKeyU2CTValueU3EU3E_CopyTo_m331407443_gshared
LEd:_RuntimeTypeHandle__ctor_m3315980708_AdjustorThunk
k2h:__ZL69IIdentityPermissionFactory_t3268650966_CustomAttributesCacheGeneratorP21CustomAttributesCache
D2i:_Canvas_set_overrideSorting_m4088794420
xZb:__ZNSt3__26vectorI11CameraStackNS_9allocatorIS1_EEE8__appendEj
yzg:_DefaultComparer_Equals_m2585095694_gshared
ygg:_Logger_set_filterLogType_m3622751173
fDd:__ZN25GenericVirtActionInvoker1I28StreamingContext_t3711869237E6InvokeEPK10MethodInfoP12Il2CppObjectS0_
PNi:_UnityEvent_1_GetDelegate_m25714567_gshared
Bu:__ZN7mecanim9animation12GetHumanPoseERKNS0_18ClipMuscleConstantEPKNS0_10ValueDeltaERNS_5human9HumanPoseE
OXc:__ZN11UnityEngine9Analytics15UserCustomEvent12CustomParams6InsertEPKcRNS1_11CustomValueE
rw:__ZN22AnimationMixerPlayable17ProcessRootMotionEP35AnimationPlayableEvaluationConstantP32AnimationPlayableEvaluationInputP33AnimationPlayableEvaluationOutput
xzb:__Z29Transfer_Blittable_ArrayFieldI19StreamedBinaryWriteILb0EEjEvRT_R9ArrayInfoRK23StaticTransferFieldInfo
l1:__Z13GetFileSystemv
Bba:__ZNK5Unity4Type21FindAllDerivedClassesER13dynamic_arrayIPKS0_Lj4EENS0_17TypeFilterOptionsE
uca:__ZN13RuntimeStaticI15GUIEventManagerLb0EE16StaticInitializeEPv
aeb:__ZN14SafeBinaryRead8TransferIfEEvRT_PKc17TransferMetaFlags
cEb:__ZL12InvokeMethodI18StreamedBinaryReadILb0EEEvRK29SerializationCommandArgumentsR31RuntimeSerializationCommandInfo
N1f:_Version_CompareTo_m3146217210
Zqe:_TlsClientCertificate_FindParentCertificate_m3844441401
idb:__ZThn32_N14SpriteRenderer15AddAsRenderNodeER15RenderNodeQueueRK20DeprecatedSourceData
QAf:_Array_InternalArray__ICollection_CopyTo_TisKeyValuePair_2_t71524366_m1056941380_gshared
UYf:_Type_get_IsClass_m589177581
eZf:_Type_get_IsSystemType_m624798880
cCb:__Z29Transfer_Blittable_ArrayFieldI18StreamedBinaryReadILb1EE5RectTIfEEvRT_R9ArrayInfoRK23StaticTransferFieldInfo
$Ob:__ZN19ShaderPropertySheet9SetMatrixEN9ShaderLab16FastPropertyNameERK10Matrix4x4fNS_8SetFlagsE
p4a:__Z29GetTextureSizeAllowedMultiple13TextureFormat
jNf:_Decimal_Subtract_m835601464
MMb:__ZZ23InitPlayerLoopCallbacksvEN52InitializationAsyncUploadTimeSlicedUpdateRegistrator7ForwardEv
J6g:__Z73RuntimeInvoker_Boolean_t97287965_RuntimeObject_IPv6AddressU26_t3285609463PFvvEPK10MethodInfoPvPS4_
iib:__ZNSt3__26vectorIN4core12basic_stringIcNS1_20StringStorageDefaultIcEEEE13stl_allocatorIS5_L18MemLabelIdentifier13ELi16EEE8__appendEj
Kbc:__ZN21IntermediateRenderers3AddEP20IntermediateRenderer
Trj:_il2cpp_array_element_size
lka:__ZNSt3__26__treeINS_12__value_typeIN4core12basic_stringIcNS2_20StringStorageDefaultIcEEEEiEENS_19__map_value_compareIS6_S7_NS_4lessIS6_EELb1EEENS_9allocatorIS7_EEE12__find_equalIS6_EERPNS_16__tree_node_baseIPvEENS_21__tree_const_iteratorIS7_PNS_11__tree_nodeIS7_SH_EEiEESK_RKT_
VQh:__ZL62ComVisibleAttribute_t1362837655_CustomAttributesCacheGeneratorP21CustomAttributesCache
qPg:_List_1_System_Collections_IEnumerable_GetEnumerator_m1824431956_gshared
Omg:_RectTransform_INTERNAL_set_sizeDelta_m188783163
$f:_glCheckFramebufferStatus
oOj:__ZN6il2cpp2os11EventHandle4WaitEv
MWd:_U3CGetEnumeratorU3Ec__Iterator0_System_Collections_Generic_IEnumeratorU3CTU3E_get_Current_m9057020_gshared
q5i:_CustomEventData__ctor_m4146403782
hV:__ZN19CloudServiceHandler20StartEventDispatcherERKN11UnityEngine15CloudWebService18CloudServiceConfigERNS1_23WebRequestRestHeaderMapE
Hhd:_GraphicRaycaster__ctor_m646559428
Bne:_CipherSuite_get_CipherAlgorithmType_m137858741
w2e:_BitArrayEnumerator_get_Current_m4220391712
IBe:__Z37il2cpp_codegen_get_executing_assemblyPK10MethodInfo
qng:_Transform_get_parent_m835071599
xwh:_Collection_1_System_Collections_IList_Remove_m3686118478_gshared
Dmb:__ZN9Transform23VirtualRedirectTransferER17RemapPPtrTransfer
tKe:_IPAddress_get_ScopeId_m4237202723
Er:__ZN4core8hash_mapIN11UnityEngine9Animation14GenericBindingENS2_10BoundIndexENS2_25GenericBindingHashFunctorENS2_30GenericBindingValueArrayUniqueEE4growEi
Z$d:_InternalEnumerator_1_MoveNext_m3520556285_AdjustorThunk
PGi:_ExpressionCollection_get_Item_m3510736379
Xth:_Array_InternalArray__get_Item_TisVector3_t3722313464_m2720091419_gshared
l9c:_StandaloneInputModule_get_inputActionsPerSecond_m3946624274
RUf:_UTF8Encoding_InternalGetCharCount_m82458470
irg:_Vector2__cctor_m2108982652
Vah:__Z72RuntimeInvoker_Boolean_t97287965_Vector4_t3319028937_Vector4_t3319028937PFvvEPK10MethodInfoPvPS4_
h5d:_InternalEnumerator_1_MoveNext_m2734554195_AdjustorThunk
qzj:__ZN14dense_hash_mapI10KeyWrapperIP14Il2CppIUnknownEjN6il2cpp5utils11PointerHashIS1_EENS3_14EqualsComparerINSt3__28equal_toIS2_EEEENS9_9allocatorINS9_4pairIKS3_jEEEEE15set_deleted_keyERSF_
Oba:__ZN22BuiltinResourceManager16StaticInitializeEPv
mvj:__ZN6il2cpp2gc9AllocatorIP12Il2CppThreadE10deallocateEPvj
ioj:__ZN13Il2CppHashMapIPK14Il2CppAssemblyPK22Il2CppMonoAssemblyNameN6il2cpp5utils11PointerHashIS1_EENSt3__28equal_toIS2_EENSA_9allocatorINSA_4pairIK10KeyWrapperIS2_ES5_EEEEEC2EjRKS9_RKSC_
IVe:_DelegatePInvokeWrapper_AppDomainInitializer_t682969308
OXa:__ZN5Light9SetupHaloEv
t0:__ZN8Remapper6RemoveEi
pNi:_UnityEvent_1__ctor_m3777630589_gshared
RPa:__ZN10MemoryFile4ReadEyPvPy
SRf:_Encoding_GetBytes_m3148649984
eQc:__ZL36CleanupTextRenderingScriptingClassesv
PZb:__ZN15ReflectionProbe17UseRendererResultEP13ProbeRenderer
Coc:__Z34Mesh_CUSTOM_SetArrayForChannelImplP12Il2CppObject30InternalScriptingShaderChannel34InternalScriptingVertexChannelTypeiP11Il2CppArrayi
k$:__Z32scripting_class_get_nested_types17ScriptingClassPtrRNSt3__26vectorIS_13stl_allocatorIS_L18MemLabelIdentifier1ELi16EEEE
e3i:_CanvasRenderer_INTERNAL_CALL_EnableRectClipping_m3318097918
j0f:_UInt64_System_IConvertible_ToDecimal_m806594027_AdjustorThunk
P9d:_Enumerator_System_Collections_IEnumerator_get_Current_m361750367_AdjustorThunk
WNi:_UnityEvent_1_GetDelegate_m274387680_gshared
sAd:_RealProxy_InternalGetTransparentProxy_m1765012608
vMg:_List_1__ctor_m3395838871_gshared
QEh:_Collection_1_IsFixedSize_m3698021882_gshared
Azg:_DefaultComparer_GetHashCode_m2651362016_gshared
yAi:_PKCS12__ctor_m1854440921
Fph:_Array_Resize_TisCustomAttributeNamedArgument_t287865710_m885566878_gshared
m5g:__Z85RuntimeInvoker_RuntimeObject_RuntimeObject_SByte_t1669577662_ExceptionU26_t3600731591PFvvEPK10MethodInfoPvPS4_
hyg:_DefaultComparer__ctor_m2556554241_gshared
fE:__ZN11UnityEngine9Animation28GenericAnimationBindingCache25RegisterIAnimationBindingEPKN5Unity4TypeEiP17IAnimationBinding
OTh:__ZL66RuntimeArray_CustomAttributesCacheGenerator_Array_Sort_m2537416106P21CustomAttributesCache
uWc:__Z70RectTransformUtility_CUSTOM_INTERNAL_CALL_RectangleContainsScreenPointP12Il2CppObjectRK13Vector2fIcallS0_
zff:_DirectoryInfo__ctor_m481305441
CPe:_X509ExtensionCollection_get_SyncRoot_m2667861032
_6i:__ZN6il2cpp2vm5Class15GetElementClassEP11Il2CppClass
I9:__ZN10MemoryPoolC2E10MemLabelIdbPKciii
gBh:_Collection_1_SetItem_m941095285_gshared
vXc:__ZN14UnityAnalytics25UnregisterGlobalCallbacksEv
qYb:__Z40ProcessCameraIndexListIsNodeVisibleInOutRK22SceneCullingParametersPK9SceneNodePK4AABBR9IndexList
URi:_GUIScrollGroup_SetHorizontal_m291416666
TVa:__ZN16GraphicsSettings8TransferI17RemapPPtrTransferEEvRT_
UTc:__ZN2UI6Canvas13UpdateBatchesEb
jMe:_X509BasicConstraintsExtension_Decode_m120598446
Bz:__ZNK23AnimationPlayableOutput11DerivesFromE17ScriptingClassPtr
p3a:__ZN7Texture19SupportsAsyncUploadI19StreamedBinaryWriteILb0EEEEbRT_
Hah:__Z49RuntimeInvoker_Boolean_t97287965_Rect_t2360479859PFvvEPK10MethodInfoPvPS4_
Yei:__ZL101Transform_t3600365921_CustomAttributesCacheGenerator_Transform_INTERNAL_get_localRotation_m1111330565P21CustomAttributesCache
T4g:__Z51RuntimeInvoker_UInt32_t2560061978_Int16_t2552820387PFvvEPK10MethodInfoPvPS4_
jpa:__ZNK13GfxDeviceGLES12GetWireframeEv
fTi:_DelegatePInvokeWrapper_Action_t1264377477
yli:__ZL64EventType_t3528516131_CustomAttributesCacheGenerator_dragUpdatedP21CustomAttributesCache
d$c:__ZN11UnityEngine7Connect13ConfigHandler12GetListenersERKN4core12basic_stringIcNS2_20StringStorageDefaultIcEEEE
Tqa:__ZN9GfxDevice18AllocRenderSurfaceEb
F_e:_Char__cctor_m2787437263
q4b:__ZN10TagManager32GetSortingLayerUniqueIDFromValueEi
Bad:_AspectRatioFitter_get_rectTransform_m2996235303
Z_:__ZL27CleanupCoreScriptingClassesv
X7e:_DateTimeFormatInfo_get_IsReadOnly_m1173781646
g9e:_NumberFormatInfo_get_PercentPositivePattern_m1800841633
Ehd:_Graphic_UnregisterDirtyMaterialCallback_m2707090617
S8d:_Comparer_1_System_Collections_IComparer_Compare_m1313384821_gshared
_Nd:_LayoutRebuilder_GetHashCode_m1943075341
tGe:_GenericTypeParameterBuilder_MakeGenericType_m3048165991
vlc:__Z26AnimationCurve_CUSTOM_InitP12Il2CppObjectP11Il2CppArray
P3j:_glUniform1uiv__wrapper
Vnj:__ZN6il2cpp2vm10Reflection7IsEventEP12Il2CppObject
DRj:__ZNSt3__26__treeINS_12__value_typeIPFvvEPK10MethodInfoEENS_19__map_value_compareIS3_S7_NS_4lessIS3_EELb1EEENS_9allocatorIS7_EEE16__insert_node_atEPNS_16__tree_node_baseIPvEERSI_SI_
OZ:__ZN17PersistentManager26GetStreamNameSpaceInternalEi
kG:__ZN4FMOD6System11createSoundEPKcjP22FMOD_CREATESOUNDEXINFOPPNS_5SoundE
go:FUNCTION_TABLE_iiifiiii
l5d:_InternalEnumerator_1_System_Collections_IEnumerator_Reset_m1451164462_AdjustorThunk
aCc:__ZN13SpeedTreeWind20AdvanceWithoutUpdateEd
SEh:_ReadOnlyCollection_1_System_Collections_Generic_ICollectionU3CTU3E_Add_m1422506275_gshared
hKf:_DateTime_System_IConvertible_ToDecimal_m1044850612
cMg:_List_1_IndexOf_m2206067159_gshared
nZd:_InternalEnumerator_1_System_Collections_IEnumerator_Reset_m1318888374_AdjustorThunk
laa:__ZN9ShaderLab19CommonPropertyNames13StaticCleanupEPv
L$:__Z31scripting_method_get_returntype18ScriptingMethodPtr
hYi:__ZL24UnresolvedVirtualCall_76P12Il2CppObjectPK10MethodInfo
K5a:__ZN15SerializeTraitsI12LightmapDataE8TransferI24GenerateTypeTreeTransferEEvRS0_RT_
jnf:_SecurityElement_AddAttribute_m311510562
l0j:_glStencilOpSeparate__wrapper
uec:__ZN4Mesh5SetUvEiPKfjj
L6a:__ZN7Texture13SetAnisoLimitENS_20AnisotropicFilteringE
nO:__ZN11AudioModule16SetListenerPauseEb
yYe:_Attribute_IsDefined_m4069052474
Vh:_emscripten_glCompressedTexSubImage2D
FDa:__ZN13GfxDeviceGLES22MemoryBarrierImmediateEyN2gl17MemoryBarrierTypeE
rMd:_U3CCaretBlinkU3Ec__Iterator0_Dispose_m860898205
kBa:__ZN6prcoreL26RemapGenericFloatToIntegerI18TexFormatARGBFloat17TexFormatARGB8888EEvPKNS_9InnerInfoE
RUg:_List_1_set_Capacity_m1977188119_gshared
Mgc:__Z46GetShaderModelNumericValueFromRequirementsMask18ShaderRequirements
OFc:_cff_ps_has_glyph_names
rfd:_DropdownItem_get_rectTransform_m3147806615
Rxg:_Dictionary_2_Resize_m3287623642_gshared
SKj:_GC_write
aTh:__ZL69RuntimeArray_CustomAttributesCacheGenerator_Array_SetValue_m394135409P21CustomAttributesCache
yzd:_SoapTypeAttribute_SetReflectionObject_m1691526413
ohd:_Graphic_OnPopulateMesh_m767318148
nId:_HMACSHA512_set_ProduceLegacyHmacValues_m3961135292
CXi:__ZL24UnresolvedVirtualCall_43P12Il2CppObjectS0_PK10MethodInfo
zug:_Dictionary_2_Remove_m4193450060_gshared
S5f:_ASN1_get_Tag_m1032367219
gVi:_StandardEventPayload_set_name_m549984672
Rdf:_Int64_TryParse_m3606398488
Boh:_Array_InternalArray__set_Item_TisMark_t3471605523_m1299772331_gshared
dsc:__Z44Register_UnityEngine_GUIStyle_SetDefaultFontv
Xzb:__Z18Transfer_BlittableI18StreamedBinaryReadILb1EELb1EiEvRK29SerializationCommandArgumentsR31RuntimeSerializationCommandInfo
cB:__ZN9BlobWrite8TransferI22OffsetPtrArrayTransferIKN4math7_float3EEEEvRT_PKc17TransferMetaFlags
u$g:__Z173RuntimeInvoker_Int32_t2950945753_RuntimeObject_Int32_t2950945753_Int32_t2950945753_Int32_t2950945753_RuntimeObject_Int32_t2950945753_SByte_t1669577662_ContextU26_t3937453398PFvvEPK10MethodInfoPvPS4_
pOg:_List_1__ctor_m2576108087_gshared
Jmj:__ZN15dense_hashtableINSt3__24pairIK10KeyWrapperINS1_IPK12PropertyInfoP11Il2CppClassEEEjEES9_17ReflectionMapHashIS8_EN14dense_hash_mapIS9_jSD_NS9_14EqualsComparerINS0_8equal_toIS8_EEEENS0_9allocatorISB_EEE9SelectKeyESI_SK_E12maybe_shrinkEv
wAb:__Z18Transfer_BlittableI18StreamedBinaryReadILb1EELb1EsEvRK29SerializationCommandArgumentsR31RuntimeSerializationCommandInfo
hTf:_StringBuilder_Remove_m940064945
LGd:_DESCryptoServiceProvider_GenerateIV_m683687014
CDg:_GenericComparer_1__ctor_m1900257738_gshared
H5d:_InternalEnumerator_1_get_Current_m3792939945_gshared
oZc:__ZN22BaseUnityConnectClient17OnEnterStateReadyEv
fWd:_Text_get_fontSize_m1677872538
RKg:_List_1_System_Collections_IList_get_Item_m995551621_gshared
Vxi:_SslStreamBase_get_KeyExchangeStrength_m217695965
DUa:__ZN14GrowableBufferD2Ev
Nkc:__Z29Input_CUSTOM_GetMouseButtonUpi
KTd:_ScrollRect_CalculateLayoutInputHorizontal_m1852828502
qhj:__ZN6il2cpp6icalls8mscorlib6System8MonoType16InternalGetEventEP20Il2CppReflectionTypeP12Il2CppStringi
uKi:_UriScheme_t722425697_marshal_pinvoke_back
GHc:_UNITY_tt_face_load_maxp
$kc:__Z46Input_CUSTOM_INTERNAL_set_compositionCursorPosRK13Vector2fIcall
Ht:__ZN7mecanim5human12FullBodyMaskEv
Wvi:__ZL62Shadow_t773074319_CustomAttributesCacheGenerator_m_EffectColorP21CustomAttributesCache
u4f:_BigInteger_ToString_m3475000413
Idb:__ZN19ShaderPropertySheet11ComputeHashEv
Xaj:__ZN30dense_hashtable_const_iteratorI10KeyWrapperIPK19Il2CppGenericMethodES4_N6il2cpp8metadata23Il2CppGenericMethodHashEN14dense_hash_setIS4_S7_NS4_14EqualsComparerINS6_26Il2CppGenericMethodCompareEEENSt3__29allocatorIS4_EEE8IdentityESB_SE_EppEv
Ded:_Resources_t1597885468_marshal_pinvoke_cleanup
sBb:__ZN4PPtrI6ObjectE8TransferI18StreamedBinaryReadILb1EEEEvRT_
xT:__ZN11UnityEngine15CloudWebService20WebRequestRestClient6IsDoneEv
iIi:_Group__ctor_m2980794822
NKi:_CachedInvokableCall_1_Invoke_m502907382_gshared
Si:_llvm_fabs_f32
aT:__ZN11UnityEngine15CloudWebService16SessionContainer16GetJsonDataBlockEjRKN4core12basic_stringIcNS2_20StringStorageDefaultIcEEEERS6_PjSA_
O5f:_ASN1_Decode_m1695284166
qne:__ZN23GenericVirtFuncInvoker0IP28ValidationResult_t3834298736E6InvokeEPK10MethodInfoP12Il2CppObject
Goj:__ZN15dense_hashtableINSt3__24pairIK10KeyWrapperIPK14Il2CppAssemblyEPK22Il2CppMonoAssemblyNameEES6_N6il2cpp5utils11PointerHashIS4_EEN14dense_hash_mapIS6_SA_SF_NS6_14EqualsComparerINS0_8equal_toIS5_EEEENS0_9allocatorISB_EEE9SelectKeyESK_SM_E13set_empty_keyERKSB_
rAh:_Collection_1_RemoveAt_m2240641437_gshared
YPf:_Enum_ToString_m3248653065
c_:__ZN14SafeBinaryReadD2Ev
Uvf:_SetPropertyUtility_SetStruct_TisFillMethod_t1167457570_m4164776730_gshared
x5b:__Z13RegisterClassI7TextureEvv
vIg:_Enumerator_MoveNext_m3859993671_gshared
MBb:__ZN8Gradient8TransferI18StreamedBinaryReadILb1EEEEvRT_
Qje:_SequentialSearchPrimeGeneratorBase_IsPrimeAcceptable_m1127740833
WPe:_Capture__ctor_m3103117740
N8a:__ZN4core8hash_mapINS_12basic_stringIcNS_20StringStorageDefaultIcEEEE13dynamic_arrayI4PPtrI6SpriteELj4EENS_4hashIS4_EENSt3__28equal_toIS4_EEEixERKS4_
s_g:__Z113RuntimeInvoker_Void_t1185182177_RuntimeObject_Int64_t3736567304_RuntimeObject_Int64_t3736567304_Int64_t3736567304PFvvEPK10MethodInfoPvPS4_
Tkg:_RangeInt_get_end_m4128831787_AdjustorThunk
Oyj:__ZN6il2cpp6icalls8mscorlib6System4Type15MakeGenericTypeEP20Il2CppReflectionTypeP11Il2CppArray
sj:_SDL_PauseAudio
f4e:_Hashtable_Clone_m3078962909
osj:_il2cpp_class_from_type
yij:__ZN6il2cpp2os4File11GetStdErrorEv
Dej:_NativeHeaderAttribute__ctor_m457462113
s5h:__ZL77Convert_t2465617642_CustomAttributesCacheGenerator_Convert_ToSByte_m516918950P21CustomAttributesCache
kaa:__ZN9ShaderLab19CommonPropertyNames16StaticInitializeEPv
Kkb:__ZN13MemoryManager31DisallowAllocationsOnThisThreadEv
T7d:_Comparer_1__cctor_m2517796511_gshared
gD:__ZN7mecanim9animation18CreateAvatarOutputEPKNS0_14AvatarConstantEbbRNS_6memory9AllocatorE
zre:_TlsServerCertificateRequest_Update_m2763887540
j0i:_DelegatePInvokeWrapper_PCMSetPositionCallback_t1059417452
XUd:_Slider_set_maxValue_m2251404465
GVd:_SpriteState_get_pressedSprite_m3868967445_AdjustorThunk
hM:__ZN11AudioSource23VirtualRedirectTransferER24GenerateTypeTreeTransfer
eec:__ZN7Texture11SetWrapModeE15TextureWrapMode
lYc:__ZN14UnityAnalytics15SendCustomEventERN11UnityEngine9Analytics15UserCustomEventE
h9a:__ZN14Texture2DArray23VirtualRedirectTransferER14SafeBinaryRead
uwe:_MissingMemberException__ctor_m1220732369
wTb:__ZNK6Camera21CalculateCanDoShadowsEv
sdh:__Z52RuntimeInvoker_Void_t1185182177_Int32U26_t1369213839PFvvEPK10MethodInfoPvPS4_
D9f:_Application_InvokeOnBeforeRender_m2875673833
rFj:__ZN6il2cpp2os6Thread12SetStackSizeEj
pZi:__ZL25UnresolvedVirtualCall_138P12Il2CppObject19Vector2_t2156229523S0_PK10MethodInfo
rPd:_MaskableGraphic_RecalculateMasking_m183336762
oth:_Array_InternalArray__get_Item_TisRuntimeObject_m3347010206_gshared
rld:_TypeBuilder_IsSubclassOf_m3458909121
$dc:__ZNK8Renderer16IsVisibleInSceneEv
DZ:__Z13VFormatBufferPciPKcz
SCb:__Z18Transfer_BlittableI18StreamedBinaryReadILb0EELb1EhEvRK29SerializationCommandArgumentsR31RuntimeSerializationCommandInfo
DTe:_X509Certificate__cctor_m198658613
m1g:__Z43RuntimeInvoker_MethodAttributes_t2366443849PFvvEPK10MethodInfoPvPS4_
Vjg:_PlayableHandle_Equals_m1666612586_AdjustorThunk
oBa:__ZN6prcoreL27StretchGenericFloatBilinearI15TexFormatRFloatEEvPKNS_9InnerInfoE
k8h:__ZL139ServicePointManager_t170559685_CustomAttributesCacheGenerator_ServicePointManager_t170559685____CheckCertificateRevocationList_PropertyInfoP21CustomAttributesCache
iQf:_Enum_ToObject_m1628250250
H8i:_Main__ctor_m136889595
_Sg:_List_1_set_Item_m2057272351_gshared
rya:__Z14PadImageBorderR14ImageReferenceii
jlj:__ZN15dense_hashtableINSt3__24pairIK10KeyWrapperINS1_IPK10MethodInfoP11Il2CppClassEEEjEES9_17ReflectionMapHashIS8_EN14dense_hash_mapIS9_jSD_NS9_14EqualsComparerINS0_8equal_toIS8_EEEENS0_9allocatorISB_EEE9SelectKeyESI_SK_E4findERSA_
gej:__ZN6il2cpp2vm13MetadataCache28GetFieldDefaultValueForFieldEPK9FieldInfo
jyf:_Array_IndexOf_TisUIVertex_t4057497605_m3336763564_gshared
Iyh:__ZN21InterfaceFuncInvoker1I22OrderBlock_t1585977831iE6InvokeEjP11Il2CppClassP12Il2CppObjecti
_w:__ZN27AnimationLayerMixerPlayableD2Ev
Ncd:_ColorBlock_Equals_m518833916_AdjustorThunk
qhi:__ZL66PersistentCall_t3407714124_CustomAttributesCacheGenerator_m_TargetP21CustomAttributesCache
rI:__ZN12AudioManager39HandlePendingAudioConfigurationCallbackEv
sk:_emscripten_glIsFramebuffer
n8f:_RSAManaged_EncryptValue_m799827583
f2:__ZN12_GLOBAL__N_16qAtan2Eff
IXg:__Z61RuntimeInvoker_UInt32_t2560061978_RuntimeObject_RuntimeObjectPFvvEPK10MethodInfoPvPS4_
EWf:_ThreadAbortException__ctor_m1955533141
wk:_JS_Sound_SetLoopPoints
_ca:__ZN15dense_hashtableINSt3__24pairIKyP17VertexDeclarationEEy14GfxGenericHashIyEN14GfxDoubleCacheIyS4_S7_NS0_8equal_toIyEEN31GfxDoubleCacheConcurrencyPolicy11LocklessGetE42GfxDoubleCacheDefaultEmptyDeletedGeneratorIyEE9SelectKeyESA_13stl_allocatorIS5_L18MemLabelIdentifier24ELi16EEE14squash_deletedEv
xN:__ZN12AudioManager17ShouldSourcePauseEb
sPj:__ZN6il2cpp2vm26MetadataAllocGenericMethodEv
evf:_Array_InternalArray__ICollection_Remove_TisUInt16_t2177724958_m1766181761_gshared
pHa:__ZN19ConstantBuffersGLES12RecordRenderEv
YNi:_UnityEvent_1__ctor_m3675246889_gshared
Cvc:__ZN9JSONWrite8TransferI10RectOffsetEEvRT_PKc17TransferMetaFlags
Xxa:__ZN4crnd12symbol_codec11decode_bitsEj
ngh:__Z59RuntimeInvoker_Boolean_t97287965_KeyValuePair_2_t3842366416PFvvEPK10MethodInfoPvPS4_
Jle:_EncryptedPrivateKeyInfo__ctor_m3415744930
IDc:_cf2_doFlex
DLe:_AsnEncodedData__ctor_m3792312694
qTi:_AesManaged_GenerateIV_m1368817386
tbc:__ZN21FixedBehaviourManagerD0Ev
FSa:__ZN13dynamic_arrayI17SortingLayerEntryLj4EE6insertEPS0_jRKS0_
vI:__ZN4FMOD6System12createReverbEPPNS_6ReverbE
XIj:__ZN6il2cpp2vm6String21InitializeEmptyStringEP11Il2CppClass
Rw:__ZN7mecanim19ValueArrayBlendNodeILb1EEEvRKNS_10ValueArrayERKNS_14ValueArrayMaskERS1_RS4_RNS_16ValueArrayWeightEf
NFd:_CodeAccessPermission_GetHashCode_m880096813
Mkb:__Z16MarkDependenciesR27GarbageCollectorThreadStatej
KBe:_AssemblyConfigurationAttribute__ctor_m3236176989
NPi:_ObjectPool_1_get_countInactive_m526975942_gshared
tXi:__ZL24UnresolvedVirtualCall_34P12Il2CppObjectPK10MethodInfo
dAd:_RemotingServices_DisposeIdentity_m2605848806
r2:__ZNK9Transform11GetPositionEv
Mgf:_WriteDelegate_EndInvoke_m952736984
Cag:_Bounds_set_size_m4127623202
haf:_GuidParser_Reset_m2640004655
YWa:__ZN23SharedMeshRenderingData18UnloadVertexStreamEi
Jbc:__ZN31CanvasBatchIntermediateRenderer11AddSubBatchERK16DrawBuffersRangePK19ShaderPropertySheet
mac:__ZN19RenderEventsContextC2Ei
mR:__Z6simd4fRKf
Nei:__ZL67SceneManager_t2787271929_CustomAttributesCacheGenerator_sceneLoadedP21CustomAttributesCache
J8e:_GregorianCalendar_GetEra_m2369958449
_k:_emscripten_glEnable
c0d:_InternalEnumerator_1_System_Collections_IEnumerator_get_Current_m2982675020_gshared
ySa:__ZN10TagManager23VirtualRedirectTransferER14SafeBinaryRead
SQa:__Z15Hash128ToStringRK7Hash128
sEh:_Collection_1_System_Collections_IList_get_Item_m2931804586_gshared
Lzd:_ObjRef_get_EnvoyInfo_m1782007847
AOg:_List_1_System_Collections_ICollection_get_IsSynchronized_m3331050698_gshared
hWb:__Z15InitLightMeshesv
qnd:_MonoCMethod_ToString_m3992577062
Zij:_RaycastHit_get_collider_m1464180279
In:FUNCTION_TABLE_iifiii
y6i:__ZNK15dense_hashtableINSt3__24pairIK10KeyWrapperIPK22Il2CppGenericParameterEP11Il2CppClassEES6_N6il2cpp5utils11PointerHashIS4_EEN14dense_hash_mapIS6_S9_SE_NS6_14EqualsComparerINS0_8equal_toIS5_EEEENS0_9allocatorISA_EEE9SelectKeyESJ_SL_E10test_emptyEj
iLh:_ReadOnlyCollection_1_System_Collections_IList_Contains_m2904046095_gshared
G6a:__ZN15QualitySettings8TransferI19StreamedBinaryWriteILb0EEEEvRT_
P5e:_GC_KeepAlive_m1400443516
AOd:_LayoutUtility_U3CGetFlexibleHeightU3Em__7_m2991026842
iyb:__Z18Transfer_BlittableI19StreamedBinaryWriteILb0EELb1E8Vector2fEvRK29SerializationCommandArgumentsR31RuntimeSerializationCommandInfo
kDc:_cf2_arrstack_init
xth:_Array_InternalArray__get_Item_TisResourceCacheItem_t51292791_m1306056717_gshared
dch:__Z157RuntimeInvoker_Void_t1185182177_RuntimeObject_RuntimeObject_RuntimeObject_RuntimeObject_RuntimeObject_RuntimeObject_RuntimeObject_RuntimeObject_RuntimeObjectPFvvEPK10MethodInfoPvPS4_
O5c:_EventSystem_get_pixelDragThreshold_m1103650852
tX:__Z15CleanLogHandler7LogTypePKcz
Hze:_NumberFormatter_NumberToString_m2481532188
Nla:__ZN9ShaderLab19SerializedSubShader8TransferI19StreamedBinaryWriteILb0EEEEvRT_
gTd:_ScrollRect_InternalGetBounds_m599803667
Fce:_Enumerator_MoveNext_m76191888_gshared
RH:__ZN14AudioBehaviour15ThreadedCleanupEv
kGb:__ZN6Camera17RemoveImageFilterERK11ImageFilter
rna:__ZNSt3__218__insertion_sort_3IR25ValueParameterArraySorterPN20GpuProgramParameters14ValueParameterEEEvT0_S6_T_
cci:__ZL90Display_t1387065949_CustomAttributesCacheGenerator_Display_GetRenderingExtImpl_m2069813991P21CustomAttributesCache
_7h:__ZL67EditorBrowsableAttribute_t1475454531_CustomAttributesCacheGeneratorP21CustomAttributesCache
m3e:_Comparer__cctor_m3311686689
NUc:__ZZN2UI11CanvasGroup15InitializeClassEvEN38FunctorImpl_117kTransformParentChanged4CallEPviR11MessageData
jad:_UIBehaviour_OnDidApplyAnimationProperties_m2143584361
Tai:__ZL102SystemInfo_t3561985952_CustomAttributesCacheGenerator_SystemInfo_get_operatingSystemFamily_m4256884728P21CustomAttributesCache
AYf:_TimeZone__ctor_m1831364098
mnj:__ZNK10KeyWrapperINSt3__24pairIPK9EventInfoP11Il2CppClassEEE14EqualsComparerINS0_8equal_toIS7_EEEclERKS8_SE_
G$d:_InternalEnumerator_1_get_Current_m3500427238_AdjustorThunk
BUc:__ZN2UI26InitializeDeviceForOverlayEi
l9:__Z27LogRepeatingStringWithFlagsRKN4core12basic_stringIcNS_20StringStorageDefaultIcEEEE15LogMessageFlagsi
u0f:_UInt64_System_IConvertible_ToSingle_m925613075
ade:_KeyCollection_System_Collections_Generic_IEnumerableU3CTKeyU3E_GetEnumerator_m525473090_gshared
jQf:_Enum_IsDefined_m1442314461
dWf:_Thread__cctor_m817723615
r0i:_AudioExtensionManager_RegisterBuiltinDefinitions_m2742744104
gu:__ZN17AnimationPlayable28ComputeNeedsBindingRebuildedEv
nt:__ZN17AnimationPlayable23RequestAllocateBindingsEv
Tti:__ZL66Slider_t3903728902_CustomAttributesCacheGenerator_m_OnValueChangedP21CustomAttributesCache
ZQf:_DecoderReplacementFallbackBuffer_Fallback_m1261056214
oPb:__ZNSt3__227__insertion_sort_incompleteIRPFbP10GUIElementS2_EPS2_EEbT0_S7_T_
Cxe:_Binder_get_DefaultBinder_m950908649
K4e:_StreamReader__ctor_m1616861391
o4h:__ZL59ArgumentException_t132251570_CustomAttributesCacheGeneratorP21CustomAttributesCache
h0c:__ZN18UnityConnectClient33OnPlayerSessionStateChangedStaticEPS_jyy
Fjf:_RSA_ToXmlString_m2922661427
hU:__ZNK11UnityEngine15CloudWebService23WebRequestUploadHandler11GetProgressEv
Xua:__ZN7ApiGLES4LoadE16GfxDeviceLevelGL
X5a:__ZN18StreamedBinaryReadILb0EE21TransferSTLStyleArrayI13dynamic_arrayI31EnlightenSystemAtlasInformationLj8EEEEvRT_17TransferMetaFlags
_je:_ASN1_Add_m2431139999
Eli:__ZL61GUIContent_t3050628031_CustomAttributesCacheGenerator_m_ImageP21CustomAttributesCache
Rxa:__ZN4crnd12crn_unpacker22decode_color_endpointsEv
eCj:__ZN15dense_hashtableI10KeyWrapperIP18Il2CppGenericClassES3_N6il2cpp8metadata22Il2CppGenericClassHashEN14dense_hash_setIS3_S6_NS3_14EqualsComparerINS5_25Il2CppGenericClassCompareEEENSt3__29allocatorIS3_EEE8IdentityESA_SD_E15insert_noresizeERKS3_
t9b:__ZZL31RegisterOtherRendererPropertiesR22GenericPropertyBindingEN30Wrapper_RendererReceiveShadows13GetFloatValueEPv
Ctf:_Array_InternalArray__ICollection_Contains_TisSlot_t384495010_m688761886_gshared
o4a:__ZN17SharedTextureDataC2E10MemLabelIdii13TextureFormatjiibb
beh:__Z114RuntimeInvoker_RuntimeObject_RuntimeObject_Int32_t2950945753_Int32_t2950945753_Int32_t2950945753_Int32_t2950945753PFvvEPK10MethodInfoPvPS4_
yJb:__ZN8Material11SetPassFastEPN9ShaderLab4PassER17ShaderPassContextP6Shaderib
d7a:__ZNK13ScreenManager13GetLockCursorEv
f0c:__ZN11UnityEngine7Connect20BasePersistentValues10SaveValuesER9JSONWrite
XBh:_Collection_1_IsFixedSize_m3748602684_gshared
jKf:_DateTime_System_IConvertible_ToDouble_m2116720007
Edg:_Display_GetSystemExtImpl_m2808197389
rXf:_WaitHandle_WaitOne_m2577152516
FSe:_X509Certificate_PEM_m1177570576
d1h:__ZL46DSA_t2386879874_CustomAttributesCacheGeneratorP21CustomAttributesCache
lXd:_ArrayReadOnlyList_1_GetEnumerator_m1835926958_gshared
hfc:__Z14ScaleCurveTimeR17AnimationCurveTplIfEf
Aca:__ZN22VirtualJoystickManagerC2Ev
aca:__ZN20GlobalCachingManager7DisposeEv
uQb:__Z12SetupLODFadeR9GfxDeviceR17ShaderPassContextf
g2a:__ZNK14PlayableOutput7GetTypeEv
Sce:_KeyCollection_System_Collections_ICollection_get_IsSynchronized_m883344495_gshared
lUh:__ZL69Type_t_CustomAttributesCacheGenerator_Type_GetConstructors_m576905011P21CustomAttributesCache
WVb:__ZL24CollectForwardObjectsJobP27CollectForwardObjectsHeader
zdj:__ZNK15dense_hashtableINSt3__24pairIK10KeyWrapperIPK11Il2CppClassEPKcEES6_N6il2cpp5utils11PointerHashIS3_EEN14dense_hash_mapIS6_S9_SE_NS6_14EqualsComparerINS0_8equal_toIS5_EEEENS0_9allocatorISA_EEE9SelectKeyESJ_SL_E12test_deletedERK24dense_hashtable_iteratorISA_S6_SE_SN_SJ_SL_E
RXb:__Z13IsNodeVisibleRK9SceneNodeRK4AABBRK22SceneCullingParameters
Nyf:_Array_InternalArray__IndexOf_TisLabelFixup_t858502054_m1491765395_gshared
F_g:__Z44RuntimeInvoker_RuntimeTypeHandle_t3027515415PFvvEPK10MethodInfoPvPS4_
V6d:__ZN21InterfaceFuncInvoker1IibE6InvokeEjP11Il2CppClassP12Il2CppObjectb
Mld:__ZN30GenericInterfaceActionInvoker1IP20Delegate_t1188392813E6InvokeEPK10MethodInfoP12Il2CppObjectS1_
h3f:_SortKeyBuffer_AppendCJKExtension_m2591091991
Mri:__ZL69Image_t2670269651_CustomAttributesCacheGenerator_U3CU3Ef__mgU24cache0P21CustomAttributesCache
wWc:__Z57RectTransformUtility_CUSTOM_INTERNAL_CALL_PixelAdjustRectP12Il2CppObjectS0_R5RectTIfE
LUf:_UTF8Encoding_GetByteCount_m4153686982
QYb:__Z24ScheduleCullingAllGroupsR8JobFenceRK22SceneCullingParametersiRK13CullingOutputRK13dynamic_arrayIP12CullingGroupLj4EERKS_
L5j:_emscripten_glStencilMask__wrapper
hZg:__Z49RuntimeInvoker_Void_t1185182177_Double_t594665363PFvvEPK10MethodInfoPvPS4_
Naj:__ZN15dense_hashtableI10KeyWrapperIPK19Il2CppGenericMethodES4_N6il2cpp8metadata23Il2CppGenericMethodHashEN14dense_hash_setIS4_S7_NS4_14EqualsComparerINS6_26Il2CppGenericMethodCompareEEENSt3__29allocatorIS4_EEE8IdentityESB_SE_EC2ERKSH_j
xUa:__ZN15RenderNodeQueue7CleanupEv
iwf:_Array_InternalArray__IEnumerable_GetEnumerator_TisByte_t1134296376_m1979205379_gshared
apd:_MonoProperty_CreateGetterDelegate_m2478402519
lBc:__ZN16NovodexAllocator8allocateEjPKcS1_i
_0a:__ZN39DeprecatedFastPropertyNameSerialization8TransferI14SafeBinaryReadEEvRT_
MAi:_DeriveBytes_DeriveIV_m973925711
scf:_Int32_System_IConvertible_ToSByte_m3133688512
jLh:_ReadOnlyCollection_1_System_Collections_IList_IndexOf_m848971554_gshared
TVb:__ZN9ShaderLab10GrabPassesD2Ev
t9a:__ZN14Texture2DArray13UploadTextureEv
bPd:_MaskableGraphic_UpdateCull_m2805101913
nIc:_tt_cmap14_done
Gib:__ZN18AwakeFromLoadQueue25RegisterObjectInstanceIDsEv
Ioh:_Array_InternalArray__set_Item_TisColor32_t2600501292_m1891325855_gshared
dx:__ZNK27AnimationLayerMixerPlayable11DerivesFromE17ScriptingClassPtr
zOc:__ZN20TextRenderingPrivate19NativeTextGenerator15InsertCharacterEiPj
U$g:__Z77RuntimeInvoker_Void_t1185182177_RuntimeObject_SByte_t1669577662_RuntimeObjectPFvvEPK10MethodInfoPvPS4_
A0g:__Z81RuntimeInvoker_Void_t1185182177_RuntimeObject_SByte_t1669577662_SByte_t1669577662PFvvEPK10MethodInfoPvPS4_
wxe:_MonoType_get_attributes_m1332507727
hRi:_GUIContent_ClearStaticCache_m1205116045
wQg:_List_1_System_Collections_IList_get_IsFixedSize_m203251153_gshared
Kv:__ZN17AnimationPlayableD0Ev
azb:__Z18Transfer_BlittableI19StreamedBinaryWriteILb0EELb0EyEvRK29SerializationCommandArgumentsR31RuntimeSerializationCommandInfo
eCd:_BinaryCommon__cctor_m2978407547
L_e:_Char_System_IConvertible_ToByte_m2347554595
TKh:_ReadOnlyCollection_1_GetEnumerator_m1017886827_gshared
mVh:__ZL47ASN1_t2114160832_CustomAttributesCacheGeneratorP21CustomAttributesCache
hQc:__ZN20TextRenderingPrivate15DynamicFontData21GetFontMetricsForFaceERK13dynamic_arrayIN4core17string_with_labelILi35EEELj4EEiRKS1_I4PPtrIN13TextRendering4FontEELj4EEPfSF_
vOi:_IndexedSet_1__ctor_m2250384602_gshared
Rzg:_DefaultComparer__ctor_m1306123661_gshared
Y_f:_UInt16_TryParse_m4139137016
gFj:__ZN6il2cpp5utils13dynamic_arrayIPNS_2os6ThreadELj4EE9push_backEv
fHj:__ZN6il2cpp2gc16GarbageCollector9FreeFixedEPv
FRf:_Encoding__ctor_m2997749867
Lgg:_ManagedStreamHelpers_ManagedStreamSeek_m3158782053
GIi:_ExpressionAssertion_Compile_m2166597834
DFb:__ZN16ScriptingManagerD0Ev
Dpf:_Single_System_IConvertible_ToSByte_m1208276900_AdjustorThunk
OJj:__ZN6il2cpp6icalls8mscorlib6System7Convert24InternalFromBase64StringEP12Il2CppStringb
kBg:_EqualityComparer_1__ctor_m2241711498_gshared
N_h:__ZL58ChannelServices_t3942013484_CustomAttributesCacheGeneratorP21CustomAttributesCache
KAj:__ZN30dense_hashtable_const_iteratorINSt3__24pairIK10KeyWrapperINS1_IPKcS4_EEEiEES6_24NamespaceAndNamePairHashN14dense_hash_mapIS6_iS9_NS6_14EqualsComparerI26NamespaceAndNamePairEqualsEENS0_9allocatorIS8_EEE9SelectKeyESD_SF_EppEv
mjc:__Z44Register_UnityEngine_Component_get_transformv
fih:__Z48RuntimeInvoker_Void_t1185182177_Link_t3209266973PFvvEPK10MethodInfoPvPS4_
gC:__ZN12_GLOBAL__N_120ProcessPlayableGraphERN8Animator11AnimatorJobER35AnimationPlayableEvaluationConstantR32AnimationPlayableEvaluationInputR33AnimationPlayableEvaluationOutputPFvS4_R17AnimationPlayableEPFvS4_S6_S8_EPFvS8_S4_S6_S8_fESE_MS9_FvPS3_PS5_PS7_E
z3i:_CanvasRenderer_get_absoluteDepth_m2703237819
W9e:_TextInfo_ToLower_m2744057472
uMb:__ZN17ArchiveFileSystem12MountArchiveEPKcS1_
fDg:_EqualityComparer_1_System_Collections_IEqualityComparer_Equals_m3977314386_gshared
Huc:__Z18Transfer_BlittableI9JSONWriteLb1E8Vector4fEvRK29SerializationCommandArgumentsR31RuntimeSerializationCommandInfo
En:FUNCTION_TABLE_viififiii
a6e:_CCGregorianCalendar_year_from_fixed_m463929682
FSc:__ZN2UI13CanvasManagerD0Ev
ZX:__ZThn32_NK8Renderer14GetSubsetIndexEi
$cg:_Debug_get_unityLogger_m2239795986
VCi:_X509Extension_get_Oid_m1003388288
$Eh:_ReadOnlyCollection_1_System_Collections_IEnumerable_GetEnumerator_m2123446296_gshared
Xke:_MD2Managed_Initialize_m2341076836
gLh:_ReadOnlyCollection_1_System_Collections_IList_Add_m4240023232_gshared
Mra:__ZN9GfxDevice15ImmediateVertexEfff
f5b:__Z13RegisterClassI8MaterialEvv
g5a:__ZNK16LightmapSettings22GetTypeVirtualInternalEv
aVa:__ZN16GraphicsSettings13AwakeFromLoadE17AwakeFromLoadMode
eq:__ZN6Object13AwakeFromLoadE17AwakeFromLoadMode
cpa:__ZN13GfxDeviceGLES15SetStencilStateEPK18DeviceStencilStatei
Xgf:__ZN28GenericInterfaceFuncInvoker3IiP22ByteU5BU5D_t4116647657iiE6InvokeEPK10MethodInfoP12Il2CppObjectS1_ii
KZe:_Buffer_BlockCopyInternal_m418318694
STj:_cycle
O9f:_AssetBundleCreateRequest_t3119663542_marshal_pinvoke
EJj:__ZN6il2cpp2vm8Profiler7GCEventE13Il2CppGCEvent
U_g:__Z76RuntimeInvoker_Void_t1185182177_RuntimeObject_RuntimeFieldHandle_t1871169219PFvvEPK10MethodInfoPvPS4_
bBi:_PKCS12_Finalize_m507756088
Id:_emscripten_glUniform1iv
qDg:_EqualityComparer_1_get_Default_m1095255266_gshared
zob:__ZN16MemoryFileSystemD2Ev
j$g:__Z150RuntimeInvoker_Int32_t2950945753_RuntimeObject_Int32_t2950945753_Int32_t2950945753_RuntimeObject_Int32_t2950945753_Int32_t2950945753_Int32_t2950945753PFvvEPK10MethodInfoPvPS4_
LYe:_BitConverter_DoubleToInt64Bits_m3574395137
gFf:_DateTime_Parse_m3729096069
uOg:_List_1_System_Collections_IList_Add_m1540114404_gshared
ZXd:_InternalEnumerator_1_System_Collections_IEnumerator_Reset_m81420524_AdjustorThunk
Wic:__Z37Register_UnityEngine_Camera_get_depthv
Fmh:__Z92RuntimeInvoker_RuntimeObject_SByte_t1669577662_SByte_t1669577662_RuntimeObject_RuntimeObjectPFvvEPK10MethodInfoPvPS4_
tue:_StringReader_Read_m3322058819
Btd:_CrossAppDomainChannel_get_ChannelPriority_m3418073750
oAg:_EqualityComparer_1__ctor_m1860346363_gshared
ZLd:_Selectable_StartColorTween_m3618813981
l5c:_BaseInputModule_HandlePointerExitAndEnter_m1705532066
Bld:_EventInfo__ctor_m3033129999
sXi:__ZL24UnresolvedVirtualCall_33P12Il2CppObjectiS0_S0_PK10MethodInfo
K4b:__ZN15ApplicationInfo16GetInstallerNameEv
n2b:__Z23ConvertIntegerToTypePtrItEbPvR14SafeBinaryRead
gOf:_Delegate_CombineImpl_m3572135514
Ize:_NumberFormatter_IntegerToString_m1679294587
Rkf:_SHA256Managed_AddLength_m1060552216
yIh:_ReadOnlyCollection_1_System_Collections_IList_RemoveAt_m422909114_gshared
MC:__ZN7mecanim5human29HumanGetGoalOrientationOffsetENS0_4GoalE
Zd:_emscripten_glStencilFunc
gvi:__ZL78LayoutRebuilder_t541313304_CustomAttributesCacheGenerator_U3CU3Ef__amU24cache2P21CustomAttributesCache
Jrh:_Dictionary_2_Do_CopyTo_TisKeyValuePair_2_t3699644050_TisRuntimeObject_m2224738096_gshared
TWi:__ZL23UnresolvedVirtualCall_6P12Il2CppObjectiPK10MethodInfo
MXi:__ZL24UnresolvedVirtualCall_53P12Il2CppObjectPK10MethodInfo
XBi:_X509Certificate_GetIssuerName_m3173047029
BJd:_InputField_get_isFocused_m709836844
ee:_glGetActiveUniformBlockName
Joi:__ZL90PointerEventData_t3807901092_CustomAttributesCacheGenerator_U3CpointerIdU3Ek__BackingFieldP21CustomAttributesCache
Pf:_emscripten_glUniform1fv
$Ii:_Parser_IsIgnoreCase_m2210120858
qlc:__Z39Quaternion_CUSTOM_INTERNAL_CALL_InverseRK11QuaternionfRS_
NUa:__ZNK4PPtrI5FlareEcvPS0_Ev
rJ:__ZN4FMOD7Channel20set3DConeOrientationEP11FMOD_VECTOR
vn:FUNCTION_TABLE_iiifii
iDe:_AssemblyBuilder_not_supported_m1735277432
v4d:_InternalEnumerator_1_MoveNext_m1344185775_AdjustorThunk
kEj:__ZN6il2cpp2vm12GenericClass11SetupEventsEP11Il2CppClass
lLc:_tt_delta_interpolate
LIc:_tt_cmap12_get_info
Uzj:__ZN6il2cpp2vm15ReboxIReferenceEP14Il2CppIUnknownP11Il2CppClass
THg:_Enumerator__ctor_m2029608698_AdjustorThunk
U4i:__ZN6il2cpp6icalls8mscorlib6System7Decimal14decimalCompareEP19il2cpp_decimal_reprS5_
yug:_Dictionary_2_OnDeserialization_m4209543208_gshared
jKj:__ZThn4_N6il2cpp2vm13CachedCCWBaseINS0_13ManagedObjectEE7ReleaseEv
Cfg:_GameObject_AddComponent_m136524825
H$h:__ZL62SoapMethodAttribute_t1935009310_CustomAttributesCacheGeneratorP21CustomAttributesCache
O7g:__Z100RuntimeInvoker_Void_t1185182177_RuntimeObject_Int32_t2950945753_Int32_t2950945753_UInt16_t2177724958PFvvEPK10MethodInfoPvPS4_
a2a:__ZNSt3__26__treeINS_12__value_typeIN9ShaderLab16FastPropertyNameE10ColorRGBAfEENS_19__map_value_compareIS3_S5_NS_4lessIS3_EELb1EEENS_9allocatorIS5_EEE12__find_equalIS3_EERPNS_16__tree_node_baseIPvEENS_21__tree_const_iteratorIS5_PNS_11__tree_nodeIS5_SF_EEiEESI_RKT_
P2j:_glCopyTexImage2D__wrapper
kPf:_Double_System_IConvertible_ToUInt32_m271206838
a8:__GLOBAL__sub_I_runtime_graphics_billboard_0_cpp
JJb:__Z18ClearByDrawingQuad13GfxClearFlagsRK10ColorRGBAffjR17ShaderPassContext
NAa:__ZN6prcoreL17RemapGenericFloatI14TexFormatRHalf15TexFormatRFloatEEvPKNS_9InnerInfoE
rEc:_cf2_getBlueValues
jQb:__Z16ShouldUseShadowsb
yea:__ZN15DirectorManager21RebuildStageCallbacksEv
WJb:__ZN19RuntimeSceneManager9LoadSceneERKN4core12basic_stringIcNS0_20StringStorageDefaultIcEEEES6_S6_RK9UnityGUIDiNS_11LoadingModeE
cua:__ZN7ApiGLES10DrawArraysE16GfxPrimitiveTypejjj
wYd:_InternalEnumerator_1_MoveNext_m154749640_gshared
NG:__ZN10SampleClip13LoadBaseSoundEv
uUe:_SmallXmlParser_SkipWhitespaces_m4243606597
W6e:_CompareInfo_IndexOf_m2631915198
MDe:_ConstructorBuilder_GetCustomAttributes_m2495332786
Gwd:_MethodCall__ctor_m3669645
E6c:_TriggerEvent__ctor_m87299207
h8g:__Z48RuntimeInvoker_ExchangeAlgorithmType_t1320888206PFvvEPK10MethodInfoPvPS4_
vQ:__Z57AudioSource_CUSTOM_INTERNAL_CALL_ClearExtensionPropertiesP12Il2CppObjectRK12PropertyName
yDj:__ZN15dense_hashtableINSt3__24pairIK10KeyWrapperIP12Il2CppObjectEN6il2cpp2gc9CachedCCWEEES5_NS7_5utils11PointerHashIS3_EEN14dense_hash_mapIS5_S9_SD_NS5_14EqualsComparerINS0_8equal_toIS4_EEEENS0_9allocatorISA_EEE9SelectKeyESI_SK_E15insert_noresizeERKSA_
kne:_CertificateValidationCallback2__ctor_m1685875113
pAg:_EqualityComparer_1__cctor_m3962593840_gshared
c2a:__ZN22DeviceMVPMatricesStateC2ER9GfxDevice
PRh:__ZL48Double_t594665363_CustomAttributesCacheGeneratorP21CustomAttributesCache
fn:FUNCTION_TABLE_iifii
xgg:_Logger_set_logEnabled_m1180597166
P7a:__ZNSt3__26vectorI13dynamic_arrayI8Vector2fLj4EENS_9allocatorIS3_EEE6assignINS_11__wrap_iterIPS3_EEEENS_9enable_ifIXaasr21__is_forward_iteratorIT_EE5valuesr16is_constructibleIS3_NS_15iterator_traitsISC_E9referenceEEE5valueEvE4typeESC_SC_
n5a:__ZN21EnlightenSceneMapping8TransferI14SafeBinaryReadEEvRT_
s4b:__Z13RegisterClassI11SpriteAtlasEvv
iqj:__ZN6il2cpp2vm10Reflection12HasAttributeEP9FieldInfoP11Il2CppClass
Um:FUNCTION_TABLE_iiffi
kc:invoke_viiifi
$od:_MonoProperty_GetCustomAttributes_m3619796755
Ahj:__ZNSt3__214__split_bufferIP11Il2CppClassRNS_9allocatorIS2_EEEC2EjjS5_
Lxd:_MethodDictionary_System_Collections_IEnumerable_GetEnumerator_m4169036899
zUe:__ZN23InterfaceActionInvoker2IP8String_tP12Il2CppObjectE6InvokeEjP11Il2CppClassS3_S1_S3_
PMa:__ZNK11AssetBundle14GetPreloadDataEiR13dynamic_arrayIiLj4EE
fjf:_RIPEMD160Managed_JJJ_m4161373884
ntd:_CrossContextChannel__ctor_m3755842292
syg:_DefaultComparer_Equals_m3257444875_gshared
of:_JS_Sound_SetPosition
YZa:__ZN19RenderBufferManager13GetTempBufferEii17DepthBufferFormat19RenderTextureFormatj22RenderTextureReadWrite14VRTextureUsagei23RenderTextureMemoryless
Idj:__ZL13GetSharedInstPK17Il2CppGenericInst
lpi:__ZL98PointerEventData_t3807901092_CustomAttributesCacheGenerator_PointerEventData_get_delta_m1062010255P21CustomAttributesCache
smb:__ZNK2UI13RectTransform23CalculateLocalPosition2Ev
wZc:__ZN22BaseUnityConnectClient17SaveSessionValuesEv
JZd:_InternalEnumerator_1_get_Current_m476140818_gshared
Yrg:_WaitForEndOfFrame__ctor_m1381314187
ZVb:__Z24SetupActiveLightsContextR21ActiveLightingContextRK12ActiveLightsRK11CullResultsP14ShadowMapCacheRK10MinMaxAABB
wad:_AnimationTriggers_set_disabledTrigger_m933056574
zmc:__Z38Sprite_CUSTOM_INTERNAL_get_textureRectP12Il2CppObjectP5RectTIfE
Woj:__ZNK15dense_hashtableINSt3__24pairIK10KeyWrapperIPK22Il2CppGenericParameterEPK24MonoGenericParameterInfoEES6_N6il2cpp5utils11PointerHashIS4_EEN14dense_hash_mapIS6_SA_SF_NS6_14EqualsComparerINS0_8equal_toIS5_EEEENS0_9allocatorISB_EEE9SelectKeyESK_SM_E3endEv
AUc:__ZN2UI13CanvasManager14RenderOverlaysEi
Jgc:__ZN9TextAsset7SetTextERKN4core12basic_stringIcNS0_20StringStorageDefaultIcEEEE
vTa:__ZN6Camera8TransferI24GenerateTypeTreeTransferEEvRT_
$_i:__ZL25UnresolvedVirtualCall_230P12Il2CppObjectPK10MethodInfo
Ha:invoke_iiiiiiif
Ea:invoke_iiiiiiii
Vnh:_Array_InternalArray__set_Item_TisByte_t1134296376_m3104140039_gshared
cmg:_Rect_ToString_m447614148
oBi:_PKCS12_GetBytes_m415958948
wpe:_Context_get_HandshakeState_m2425796590
oZb:__ZN8Renderer17PendingAddToSceneEv
YCh:_Collection_1_System_Collections_IList_set_Item_m2625856224_gshared
H6j:b122
K6j:b125
J6j:b124
M6j:b127
L6j:b126
P6j:b129
Qlc:__Z52Register_UnityEngine_RectTransform_INTERNAL_get_rectv
_hg:_Mesh_SetSizedArrayForChannel_m2565120436
L_:__Z21PostprocessStacktracePKcRN4core12basic_stringIcNS1_20StringStorageDefaultIcEEEE
Mgg:_ManagedStreamHelpers_ManagedStreamLength_m2930872960
Cgb:__ZN18StreamedBinaryReadILb0EE21TransferSTLStyleArrayI13dynamic_arrayI16SplashScreenLogoLj4EEEEvRT_17TransferMetaFlags
_zi:_BasicConstraintsExtension_Encode_m2009213240
fjc:__Z47Register_UnityEngine_Camera_get_allCamerasCountv
Ybd:___clang_call_terminate
zZc:__ZN22BaseUnityConnectClient20StartEventDispatcherEv
zec:__ZNSt3__26vectorIj13stl_allocatorIjL18MemLabelIdentifier1ELi16EEE6assignIPKtEENS_9enable_ifIXaasr21__is_forward_iteratorIT_EE5valuesr16is_constructibleIjNS_15iterator_traitsIS9_E9referenceEEE5valueEvE4typeES9_S9_
yB:__ZN7mecanim9animation16EvaluateAvatarIKEPKNS0_14AvatarConstantEPKNS0_11AvatarInputEPNS0_12AvatarOutputEPNS0_12AvatarMemoryEPNS0_15AvatarWorkspaceEb
tCa:__ZL25ProgramUniformMatrix4x3fvPK7ApiGLESjiihPKv
G1b:__Z29StdTemplateConversionFunctionIsiEbPvR14SafeBinaryRead
GNb:__ZN12InputManager13InputEndFrameEv
Ngj:__ZNSt3__26__treeIP11Il2CppClassNS_4lessIS2_EENS_9allocatorIS2_EEE25__emplace_unique_key_argsIS2_JRKS2_EEENS_4pairINS_15__tree_iteratorIS2_PNS_11__tree_nodeIS2_PvEEiEEbEERKT_DpOT0_
nig:_Object_get_name_m4211327027
pvj:__ZN6il2cpp2vm6Thread5SetupEP12Il2CppThread
qGh:_ReadOnlyCollection_1_System_Collections_IList_get_IsReadOnly_m1248651675_gshared
rbe:_Enumerator_System_Collections_IDictionaryEnumerator_get_Key_m2500634048_gshared
L1i:_TextGenerator_t3211863866_marshal_pinvoke_back
WUj:___munmap
fg:_localtime_r
POb:__ZN22RenderingCommandBuffer13GetAndCheckRTE24BuiltinRenderTextureTypeRKN9ShaderLab16FastPropertyNameEPKcPP13RenderTexture
Zca:__ZN14GfxDoubleCacheIyP17VertexDeclaration14GfxGenericHashIyENSt3__28equal_toIyEEN31GfxDoubleCacheConcurrencyPolicy11LocklessGetE42GfxDoubleCacheDefaultEmptyDeletedGeneratorIyEEC2Ev
F0d:_InternalEnumerator_1_System_Collections_IEnumerator_Reset_m3619766341_AdjustorThunk
iX:__Z19free_alloc_internalPv10MemLabelId
E$h:__ZL56ReturnMessage_t1376985608_CustomAttributesCacheGeneratorP21CustomAttributesCache
lUf:_UTF32Decoder_GetChars_m1925558948
ig:_strftime
lFa:__ZN7Texture33SetStoredColorSpaceNoDirtyNoApplyE17TextureColorSpace
erd:_ResourceSet__ctor_m3618395942
RMf:_Decimal_System_IConvertible_ToDouble_m3125524987_AdjustorThunk
L1:__ZN12FileAccessorD2Ev
w7:__ZN10ColorRGBAf8TransferI18StreamedBinaryReadILb0EEEEvRT_
jXa:__ZN14VertexDataInfoC2Ev
RGj:__ZN6il2cpp2gc16GarbageCollector14CollectALittleEv
cei:__ZL87Sprite_t280657092_CustomAttributesCacheGenerator_Sprite_INTERNAL_get_border_m3728071101P21CustomAttributesCache
icc:__ZNK9HPlayable15GetPlayableTypeEv
Cjh:__Z117RuntimeInvoker_Void_t1185182177_CustomAttributeTypedArgumentU5BU5DU26_t2503877664_Int32_t2950945753_Int32_t2950945753PFvvEPK10MethodInfoPvPS4_
jBb:__ZL17Transfer_GUIStyleI18StreamedBinaryReadILb1EELb1EEvRK29SerializationCommandArgumentsR31RuntimeSerializationCommandInfo
pQd:_RectMask2D_IsRaycastLocationValid_m1652308696
ghj:__ZN6il2cpp6icalls8mscorlib6SystemL9IsPrivateEPK12PropertyInfo
Tmg:_RectTransform_add_reapplyDrivenProperties_m1374850920
iaa:__ZN9shadertag10InitializeEv
dgh:__Z69RuntimeInvoker_Void_t1185182177_Int32_t2950945753_Color32_t2600501292PFvvEPK10MethodInfoPvPS4_
wQb:__ZN13BatchRenderer20RenderSingleWithPassER17ShaderPassContextPK18SharedMaterialDataP6ShaderPN9ShaderLab4PassEiPKNS7_10GrabPassesEjib15BatchBreakCause
Q9i:__ZN15dense_hashtableINSt3__24pairIK10KeyWrapperIPK19Il2CppGenericMethodEPK26Il2CppGenericMethodIndicesEES6_N6il2cpp8metadata23Il2CppGenericMethodHashEN14dense_hash_mapIS6_SA_SE_NS6_14EqualsComparerINSD_26Il2CppGenericMethodCompareEEENS0_9allocatorISB_EEE9SelectKeyESI_SK_ED2Ev
D6a:__ZN15QualitySettings14QualitySetting8TransferI24GenerateTypeTreeTransferEEvRT_
lQj:__ZN6il2cpp5utils6Memory11AlignedFreeEPv
K_i:__ZL25UnresolvedVirtualCall_213P12Il2CppObjectS0_aPK10MethodInfo
coe:_Context_get_ClientWriteKey_m3174706656
loi:__ZL77ExecuteEvents_t3484638744_CustomAttributesCacheGenerator_U3CU3Ef__mgU24cache7P21CustomAttributesCache
GJd:_InputField_get_textComponent_m948764648
foc:__Z44Register_UnityEngine_Object_DestroyImmediatev
$Ac:__ZL34CleanupModule_PerformanceReportingv
xIf:_Convert_ToSingle_m835189399
Adc:__ZN22BlockMemoryCacheWriter14LockCacheBlockEjPPhS1_
wqc:__ZNSt3__218__insertion_sort_3IRPFbPKN5IMGUI9GUIWindowES4_EPPS2_EEvT0_SA_T_
pGd:_CryptographicUnexpectedOperationException__ctor_m69881930
Z1h:__ZL73TripleDESCryptoServiceProvider_t3595206342_CustomAttributesCacheGeneratorP21CustomAttributesCache
jwh:_Collection_1_SetItem_m1218178236_gshared
Zbe:_Enumerator_MoveNext_m1574460676_gshared
ryc:__Z22TransferField_NonArrayI8JSONRead27Converter_SimpleNativeClassI8GUIStyleEEvRK23StaticTransferFieldInfoR31RuntimeSerializationCommandInfoRT0_
Paj:__ZN15dense_hashtableI10KeyWrapperIPK19Il2CppGenericMethodES4_N6il2cpp8metadata23Il2CppGenericMethodHashEN14dense_hash_setIS4_S7_NS4_14EqualsComparerINS6_26Il2CppGenericMethodCompareEEENSt3__29allocatorIS4_EEE8IdentityESB_SE_E16reset_thresholdsEv
Pg:_llvm_eh_typeid_for
Y4b:__Z13RegisterClassI10GameObjectEvv
b3e:_CollectionBase_OnClear_m883003723
K9d:_Enumerator__ctor_m2609246966_gshared
eBd:_RemotingServices_FindInterfaceMethod_m2125212568
Az:__ZNK23AnimationPlayableOutput7GetTypeEv
Yte:_StreamWriter__cctor_m1229272693
UPf:_Enum_System_IConvertible_ToSByte_m779472798
VYf:_Type_get_IsInterface_m3284996719
sZd:_InternalEnumerator_1_MoveNext_m1543390728_gshared
xDb:__Z18Transfer_BlittableI18StreamedBinaryReadILb0EELb1E8Vector4fEvRK29SerializationCommandArgumentsR31RuntimeSerializationCommandInfo
K9e:_SortKey_get_OriginalString_m1428586816
hgh:__Z51RuntimeInvoker_Void_t1185182177_Vector4_t3319028937PFvvEPK10MethodInfoPvPS4_
dyg:_Dictionary_2_U3CCopyToU3Em__0_m2023886030_gshared
ygh:__Z64RuntimeInvoker_Boolean_t97287965_RefEmitPermissionSet_t484390987PFvvEPK10MethodInfoPvPS4_
l5j:_glBindVertexArray__wrapper
$Cd:_SerializationInfo__ctor_m2923079689
BG:__ZNK10SampleClip20GetCompressionFormatEv
F0a:__ZN8Material8TransferI14SafeBinaryReadEEvRT_
Q2a:__ZN12CubemapArray17UploadToGfxDeviceEv
uOh:_Func_2__ctor_m1150804732_gshared
Mbf:_Int32_JumpOverWhite_m208298144
Wxi:_X509CertificateCollection_get_Item_m3285563224
$hh:__Z53RuntimeInvoker_Int32_t2950945753_UIVertex_t4057497605PFvvEPK10MethodInfoPvPS4_
m4j:_emscripten_glGetUniformiv__wrapper
cKj:__ZN6il2cpp2vm13ManagedObject14QueryInterfaceERK10Il2CppGuidPPv
jH:__ZN11AudioSource4StopEb
dtb:__ZN14SafeBinaryRead21TransferSTLStyleArrayI13dynamic_arrayI10Matrix4x4fLj4EEEEvRT_17TransferMetaFlags
hUa:__ZN15LODGroupManager26CollectAllLODGroupManagersERK16CoreCameraValuesR13dynamic_arrayIPS_Lj4EEb
NOj:__ZN6il2cpp2os14WindowsRuntime13DeleteHStringEP15Il2CppHString__
H$f:_UInt32_System_IConvertible_ToUInt32_m1744564280_AdjustorThunk
MHa:__ZN18GlslGpuProgramGLESD2Ev
F$b:__ZN13RenderTexture14SetVolumeDepthEi
ES:__ZN11UnityEngine15CloudWebService14DataErrorEvent12ToJsonStringERN4core12basic_stringIcNS2_20StringStorageDefaultIcEEEEjPKc
e7g:__Z86RuntimeInvoker_Void_t1185182177_UInt16_t2177724958_SByte_t1669577662_SByte_t1669577662PFvvEPK10MethodInfoPvPS4_
ena:__Z22LoadGpuProgramFromDataPKhS0_Rj
Xyc:__ZN10Matrix4x4f8TransferI8JSONReadEEvRT_
vNc:__ZN14SafeBinaryRead21TransferSTLStyleArrayI13dynamic_arrayIN4core17string_with_labelILi35EEELj4EEEEvRT_17TransferMetaFlags
_Pd:_PositionAsUV1_ModifyMesh_m4231919476
H3e:_Hashtable__ctor_m1941859523
XQi:_WindowFunction__ctor_m2544237635
D8d:_Comparer_1_get_Default_m1947376189_gshared
QSd:_ScrollRect_set_horizontalScrollbarSpacing_m2209919081
hZ:__ZN17PersistentManager18ReadObjectThreadedEi
DEa:__ZN25TransformFeedbackSkinning31CleanupTransformFeedbackShadersEv
XTa:__Z22scripting_object_unbox18ScriptingObjectPtr
vwd:_AsyncResult_get_NextSink_m1844209137
BOc:__ZNK20TextRenderingPrivate8FontImpl19GetCharacterAdvanceEjijfPj
sAf:_Array_InternalArray__ICollection_Add_TisUriScheme_t722425697_m3142345403_gshared
tTj:_fmt_u
yrh:_Dictionary_2_Do_CopyTo_TisDictionaryEntry_t3123975638_TisDictionaryEntry_t3123975638_m1126292988_gshared
q8a:__ZN10VertexData8TransferI18StreamedBinaryReadILb0EEEEvRT_
tSj:__ZN6il2cpp8metadata25Il2CppGenericClassCompare7CompareEPK18Il2CppGenericClassS4_
yUc:__ZN2UI29ResetVRScreenSpaceWarningFlagEv
cye:_MonoType_get_Assembly_m4290914179
_Sh:__ZL70RuntimeArray_CustomAttributesCacheGenerator_Array_GetValue_m1062368071P21CustomAttributesCache
HSe:_Array_Reverse_m816310962
R$b:__ZN14PreloadManager16UpdatePreloadingEv
x2:__ZN12BaseRendererD2Ev
Erf:_String_LastIndexOf_m95398196
Roh:_Array_InternalArray__set_Item_TisUILineInfo_t4195266810_m2313892078_gshared
X3d:_InternalEnumerator_1_System_Collections_IEnumerator_Reset_m3355902602_AdjustorThunk
Jjg:_PlayableAsset__ctor_m2395156306
Lpi:__ZL79StandaloneInputModule_t2760469101_CustomAttributesCacheGenerator_m_SubmitButtonP21CustomAttributesCache
Oij:__ZN6il2cpp2os4File4ReadEPNS0_10FileHandleEPciPi
hW:__ZNK21UnityDefaultAllocatorI17LowLevelAllocatorE8ContainsEPKv
pfj:__ZNSt3__213__vector_baseI6pollfdNS_9allocatorIS1_EEED2Ev
NEd:_RuntimeTypeHandle_Equals_m2857439487
Zh:_emscripten_get_main_loop_timing
Bsd:_SafeHandle_Finalize_m3866180675
C6a:__ZN24GenerateTypeTreeTransfer21TransferSTLStyleArrayINSt3__26vectorIN15QualitySettings14QualitySettingENS1_9allocatorIS4_EEEEEEvRT_17TransferMetaFlags
Jhf:_MemoryStream_ToArray_m3911744835
Sae:_Enumerator_System_Collections_IDictionaryEnumerator_get_Entry_m859540448_AdjustorThunk
zeh:__Z72RuntimeInvoker_Boolean_t97287965_RaycastHitU26_t2429360258_RuntimeObjectPFvvEPK10MethodInfoPvPS4_
hSj:__ZN6il2cpp2os5Event4WaitEjb
xZf:_Type_GetHashCode_m1947148725
$2g:__Z91RuntimeInvoker_Void_t1185182177_RuntimeObject_RuntimeObject_RuntimeObject_SByte_t1669577662PFvvEPK10MethodInfoPvPS4_
Plb:__ZNK2UI13RectTransform22GetTypeVirtualInternalEv
dge:__ZN28GenericInterfaceFuncInvoker2IP12Il2CppObjectS1_bE6InvokeEPK10MethodInfoS1_S1_b
pp:getTempRet0
hof:_StrongName_get_Version_m4243032012
U0d:_InternalEnumerator_1_MoveNext_m2234422530_gshared
rjj:__ZN6il2cpp2gc19AppendOnlyGCHashMapINSt3__24pairIPK14Il2CppAssemblyP11Il2CppClassEEP24Il2CppReflectionAssembly17ReflectionMapHashIS9_ENS2_8equal_toIS9_EEE10CopyValuesEPv
F5c:_BaseRaycaster_OnEnable_m2678466030
cae:_Enumerator_get_CurrentKey_m627428048_AdjustorThunk
Qeg:_UnityEventBase__ctor_m1851535676
Wqh:_Array_Sort_TisVector4_t3319028937_m2797285308_gshared
yve:_UnexceptionalStreamWriter_Write_m1834931241
WCh:_Collection_1_System_Collections_IList_get_Item_m3314684800_gshared
Nwj:__ZN6il2cpp6icalls8mscorlib6System9ThreadingL21lookup_cached_cultureEP12Il2CppThreadi
leg:_NetFxCoreExtensions_CreateDelegate_m751211712
QWb:__ZN18DeferredRenderLoopD2Ev
b4i:_AnimationLayerMixerPlayable__cctor_m4086299972
W2:__ZNK16TypeTreeIterator4NameEv
nrh:_Array_swap_TisUICharInfo_t75501106_m3934244159_gshared
j1:__ZN15FileSystemEntry3SetEPKc
FDe:_ConstructorBuilder_Invoke_m3010446651
yad:_AspectRatioFitter_get_aspectMode_m3735191157
yKe:_IPv6Address_set_ScopeId_m3907190992
wFh:_ReadOnlyCollection_1_System_Collections_Generic_IListU3CTU3E_Insert_m568455025_gshared
aJ:__ZN20SoundChannelInstance15ParameterBuffer5ApplyEPN4FMOD7ChannelE
mKe:_IPv6Address__ctor_m4117281080
sci:__ZL88GameObject_t1113636619_CustomAttributesCacheGenerator_GameObject_SendMessage_m3720186693P21CustomAttributesCache
yOc:__ZN20TextRenderingPrivate19NativeTextGenerator9InsertTabEv
LXj:_sbrk
Zbh:__Z66RuntimeInvoker_Boolean_t97287965_Vector2_t2156229523_RuntimeObjectPFvvEPK10MethodInfoPvPS4_
uyh:_Collection_1_System_Collections_Generic_ICollectionU3CTU3E_get_IsReadOnly_m1032650589_gshared
FIg:_Enumerator_VerifyState_m3474272061_AdjustorThunk
sSh:__ZL70IntPtr_t_CustomAttributesCacheGenerator_IntPtr_op_Explicit_m2520637223P21CustomAttributesCache
Ji:_glIsEnabled
elb:__ZN15CacheWriterBaseD2Ev
nDe:_DerivedType__ctor_m1853298054
Urb:__Z25scripting_class_get_image17ScriptingClassPtr
Fof:_SecurityException__ctor_m836898292
mLg:_List_1_RemoveAt_m2730968292_gshared
jib:__ZNSt3__26vectorIN4core12basic_stringIcNS1_20StringStorageDefaultIcEEEE13stl_allocatorIS5_L18MemLabelIdentifier13ELi16EEEC2INS_11__wrap_iterIPS5_EEEET_SE_RKS8_PNS_9enable_ifIXaasr21__is_forward_iteratorISE_EE5valuesr16is_constructibleIS5_NS_15iterator_traitsISE_E9referenceEEE5valueEvE4typeE
Ni:_emscripten_glDrawElementsInstanced
ly:__ZN26AnimatorControllerPlayable27SetupStateMachineBehavioursEv
swf:_Array_InternalArray__IEnumerable_GetEnumerator_TisSlot_t3975888750_m1869932007_gshared
lNd:_LayoutGroup_get_preferredWidth_m3816902260
fYa:__ZN18JobBatchDispatcherD2Ev
Klb:__ZN9Transform17MainThreadCleanupEv
UMj:_GC_clear_hdr_marks
h6j:_emscripten_glCreateShader__wrapper
ICc:_cff_fd_select_get
YVd:_Text_set_resizeTextForBestFit_m4095249125
vMe:_OidEnumerator_MoveNext_m3138911739
Jgh:__Z53RuntimeInvoker_Boolean_t97287965_Keyframe_t4206410242PFvvEPK10MethodInfoPvPS4_
Yi:_emscripten_glGetShaderiv
aK:__ZN4FMOD6System10getVersionEPj
KRc:__ZN2UI6Canvas23VirtualRedirectTransferER24GenerateTypeTreeTransfer
fUd:_Selectable_set_animationTriggers_m2970345687
GBh:_Collection_1_CopyTo_m4271769704_gshared
zwc:__ZN9JSONWrite8TransferIN4math12int2_storageEEEvRT_PKc17TransferMetaFlags
hNc:__ZN13TextRendering4Font13AwakeFromLoadE17AwakeFromLoadMode
IPf:_Enum__ctor_m3602080049
qqa:__ZN9GfxDevice21ReleaseSharedMeshDataEP14SharedMeshData
v8c:_MouseState__ctor_m1467839005
RJi:_Uri_IsDomainAddress_m2867513594
sfb:__ZNSt3__27__sort5IRNS_6__lessINS_4pairIPKN5Unity4TypeE7Hash128EES8_EEPS8_EEjT0_SC_SC_SC_SC_T_
S4h:__ZL79Convert_t2465617642_CustomAttributesCacheGenerator_Convert_ToDouble_m2949593046P21CustomAttributesCache
yfd:_Dropdown_CreateItem_m2954407740
$Lj:_GC_unreachable_finalize_mark_proc
SNe:_X509Chain_ProcessCrlExtensions_m236234529
xNj:_maybe_finalize
x8i:__ZN6il2cpp2vm5Class40GetInterfaceInvokeDataFromVTableSlowPathEPK12Il2CppObjectPK11Il2CppClassj
Myf:_Array_InternalArray__IndexOf_TisLabelData_t360167391_m1826525656_gshared
Ilc:__Z43RectTransform_CUSTOM_INTERNAL_get_anchorMaxP12Il2CppObjectP13Vector2fIcall
S1i:_TextGenerator_INTERNAL_CALL_Populate_Internal_cpp_m4171649399
rAd:_RealProxy_get_ObjectIdentity_m2790771985
OAd:_RemotingConfiguration_RegisterChannelTemplate_m3105688054
kGf:_Decimal_Parse_m942471224
Z4a:__ZN8Material28UpdateHashesOnPropertyChangeEN9ShaderLab16FastPropertyNameE
lxh:_Collection_1_System_Collections_IList_get_Item_m1368877441_gshared
NXh:__ZL56MethodBuilder_t2807316753_CustomAttributesCacheGeneratorP21CustomAttributesCache
oie:_Locale_GetText_m3520169047
qmc:__Z53Register_UnityEngine_SortingLayer_GetLayerValueFromIDv
Pci:__ZL85RectOffset_t1369453676_CustomAttributesCacheGenerator_RectOffset_set_right_m807318764P21CustomAttributesCache
Mqb:__Z18Transfer_BlittableI14SafeBinaryReadLb1E8Vector4fEvRK29SerializationCommandArgumentsR31RuntimeSerializationCommandInfo
Lhj:_SessionStateChanged_EndInvoke_m3128001178
lM:__ZN11AudioSource12AddToManagerEv
Xs:__ZN8Animator23VirtualRedirectTransferER19StreamedBinaryWriteILb0EE
Wz:__ZN11UnityEngine9Animation32CreateAnimatorGenericBindingsOptERKNS0_20AnimationSetBindingsER9TransformPKN7mecanim9animation14AvatarConstantEPKNS0_21AvatarBindingConstantEbRNS6_6memory9AllocatorER8Animator
PAj:__ZN6il2cpp2vm5Image13ClassFromNameEPK11Il2CppImagePKcS6_
oYj:dynCall_vdddddd
Rka:__ZN24GenerateTypeTreeTransfer21TransferSTLStyleArrayINSt3__26vectorIN9ShaderLab14SerializedPassENS1_9allocatorIS4_EEEEEEvRT_17TransferMetaFlags
Iaa:__ZL32MarkLevelGameManagerDependenciesR27GarbageCollectorThreadState
Osa:__ZNK13GfxDeviceGLES26HasActiveRandomWriteTargetEv
fvj:__GLOBAL__sub_I_Thread_cpp
pUh:__ZL54_MemberInfo_t3922476713_CustomAttributesCacheGeneratorP21CustomAttributesCache
a1j:_glGetActiveUniformsiv__wrapper
R0a:__ZN14SafeBinaryRead8TransferINSt3__24pairIN9ShaderLab16FastPropertyNameE10ColorRGBAfEEEEvRT_PKc17TransferMetaFlags
rig:_Mesh_GetIndices_m2873123901
v_:__ZN13MonoBehaviour19SetupScriptingCacheE17ScriptingClassPtrP10MonoScript
Ifj:__ZNSt3__214__split_bufferIP12Il2CppThreadRNS_9allocatorIS2_EEED2Ev
ls:__Z20AnimationEventToMonoRK14AnimationEventR18MonoAnimationEvent
seh:__Z106RuntimeInvoker_Void_t1185182177_Single_t1397266774_Single_t1397266774_Single_t1397266774_Int32_t2950945753PFvvEPK10MethodInfoPvPS4_
Idd:_FloatTween_set_targetValue_m3604919944_AdjustorThunk
NZ:__ZN17PersistentManager29ReadAndActivateObjectThreadedEiRK26SerializedObjectIdentifierP14SerializedFilebb
c0e:_ArrayList_get_IsReadOnly_m913775115
j8c:_PointerEventData_get_dragging_m746831934
iZf:_Type_get_TypeHandle_m160082026
fLh:_ReadOnlyCollection_1_System_Collections_IEnumerable_GetEnumerator_m2781605075_gshared
lea:__ZZN15DirectorManager15InitializeClassEvEN52PreLateUpdateDirectorUpdateAnimationBeginRegistrator7ForwardEv
ctf:_Array_get_swapper_TisCustomAttributeNamedArgument_t287865710_m4254011335_gshared
Dhd:_Graphic_RegisterDirtyMaterialCallback_m106898453
mRi:_GUILayoutEntry_get_margin_m3174861737
TKa:__ZN4PPtrI6SpriteE8TransferI14SafeBinaryReadEEvRT_
GAg:_EqualityComparer_1_System_Collections_IEqualityComparer_Equals_m1672604045_gshared
duj:__ZN15dense_hashtableINSt3__24pairIK10KeyWrapperIP11Il2CppClassES4_EES5_N6il2cpp8metadata16SZArrayClassHashEN14dense_hash_mapIS5_S4_SA_NS5_14EqualsComparerINS9_19SZArrayClassCompareEEENS0_9allocatorIS7_EEE9SelectKeyESE_SG_E16reset_thresholdsEv
LRg:_List_1_GetEnumerator_m2095602005_gshared
rAj:__ZNK15dense_hashtableINSt3__24pairIK10KeyWrapperINS1_IPKcS4_EEEiEES6_24NamespaceAndNamePairHashN14dense_hash_mapIS6_iS9_NS6_14EqualsComparerI26NamespaceAndNamePairEqualsEENS0_9allocatorIS8_EEE9SelectKeyESD_SF_E13find_positionERS7_
hka:__ZNSt3__26vectorIN9ShaderLab14SerializedPassENS_9allocatorIS2_EEE8__appendEj
sja:__ZNSt3__26vectorIN9ShaderLab20SerializedSubProgram13BufferBindingENS_9allocatorIS3_EEEC2INS_11__wrap_iterIPS3_EEEET_SB_RKS5_PNS_9enable_ifIXaasr21__is_forward_iteratorISB_EE5valuesr16is_constructibleIS3_NS_15iterator_traitsISB_E9referenceEEE5valueEvE4typeE
vmh:__Z37RuntimeInvoker_Enumerator_t3436819725PFvvEPK10MethodInfoPvPS4_
fkg:_PlayableOutputHandle_op_Equality_m388301694
iSf:_Encoding_get_ISOLatin1_m2107621369
vje:_BigInteger_op_Inequality_m2697143438
Bdi:__ZL89Mathf_t3464937446_CustomAttributesCacheGenerator_Mathf_SmoothDamp_m394423605____maxSpeed4P21CustomAttributesCache
oSh:__ZL72IntPtr_t_CustomAttributesCacheGenerator_IntPtr_op_Inequality_m3063970704P21CustomAttributesCache
gBi:_SafeBag_get_ASN1_m2293701606
G4a:__ZN9Texture2D23VirtualRedirectTransferER18StreamedBinaryReadILb0EE
kKf:_DateTime_System_IConvertible_ToDouble_m2116720007_AdjustorThunk
u2e:_BitArrayEnumerator__ctor_m2359341397
_Gg:_Enumerator_MoveNext_m1177880931_gshared
J2a:__ZNK12CubemapArray12GetDataWidthEv
Z6d:_DefaultComparer__ctor_m3288720761_gshared
phh:__Z102RuntimeInvoker_Int32_t2950945753_RuntimeObject_Vector2_t2156229523_Int32_t2950945753_Int32_t2950945753PFvvEPK10MethodInfoPvPS4_
J9i:__ZN30dense_hashtable_const_iteratorINSt3__24pairIK10KeyWrapperIPKcEP11Il2CppClassEES5_N6il2cpp5utils11StringUtils12StringHasherIS4_EEN14dense_hash_mapIS5_S8_SE_NS5_14EqualsComparerINSB_13VmStringUtils21CaseSensitiveComparerEEENS0_9allocatorIS9_EEE9SelectKeyESJ_SL_E30advance_past_empty_and_deletedEv
Sii:__ZL73g_UnityEngine_TextRenderingModule_Assembly_CustomAttributesCacheGeneratorP21CustomAttributesCache
S$:__ZN16ScriptingManager27NativeTypeForScriptingClassE17ScriptingClassPtr
g0f:_UInt64_System_IConvertible_ToDateTime_m3434604642
dZf:_Type_get_IsSerializable_m1040556850
wHc:_get_sfnt_table
Sph:_Array_Resize_TisUIVertex_t4057497605_m1219201596_gshared
pXh:__ZL55StreamWriter_t1266378904_CustomAttributesCacheGeneratorP21CustomAttributesCache
Qug:_Dictionary_2_System_Collections_ICollection_get_IsSynchronized_m256515291_gshared
LX:__ZN8Renderer20RendererAddedToSceneEv
jYb:__ZL22ScheduleSceneNodesJobsP25ScheduleSceneNodesJobDataj
Rk:_emscripten_set_canvas_size
Ggd:_Graphic_SetVerticesDirty_m2124914069
d7e:_CultureInfo__ctor_m3285927757
aPd:_MaskableGraphic_get_rootCanvasRect_m3492154629
Nph:_Array_Resize_TisRaycastResult_t3360306849_m1811054291_gshared
dGh:_ReadOnlyCollection_1_System_Collections_Generic_ICollectionU3CTU3E_get_IsReadOnly_m3152485890_gshared
Nja:__ZNSt3__26vectorIN9ShaderLab20SerializedSubProgramENS_9allocatorIS2_EEE8__appendEj
RW:__ZN20DynamicHeapAllocatorI17LowLevelAllocatorE8AllocateEji
KXc:__ZN11UnityEngine9Analytics15UserCustomEvent12ToJsonStringER9JSONWrite
KSi:_Locale_GetText_m2427493201
bRb:__ZN20DynamicPropertySheet15SetVectorQueuedERKN9ShaderLab16FastPropertyNameERK8Vector4fN19ShaderPropertySheet8SetFlagsE
JA:__ZN7mecanim9animation22EvaluateAvatarRetargetEPKNS0_14AvatarConstantEPKNS0_11AvatarInputEPNS0_12AvatarOutputEPNS0_12AvatarMemoryEPNS0_15AvatarWorkspaceEb
f4d:_InternalEnumerator_1_System_Collections_IEnumerator_Reset_m996811230_AdjustorThunk
QYa:__ZN14RenderSettings23VirtualRedirectTransferER19StreamedBinaryWriteILb0EE
xDe:_ConstructorBuilder_get_TypeBuilder_m2755629087
Yuc:__ZL26Transfer_SimpleNativeClassI9JSONWrite10RectOffsetLb0EEvRK29SerializationCommandArgumentsR31RuntimeSerializationCommandInfo
tMj:_GC_push_conditional
XXc:__ZN21UnityAnalyticsManager23VirtualRedirectTransferER24GenerateTypeTreeTransfer
Rwa:__ZN17GenericDynamicVBO10AllocateVBEjR21DynamicVBOChunkHandle
tMf:_DBNull_ToString_m3638608738
SBj:__ZN30dense_hashtable_const_iteratorI10KeyWrapperIP18Il2CppGenericClassES3_N6il2cpp8metadata22Il2CppGenericClassHashEN14dense_hash_setIS3_S6_NS3_14EqualsComparerINS5_25Il2CppGenericClassCompareEEENSt3__29allocatorIS3_EEE8IdentityESA_SD_EppEv
r2e:_BitArray_Clone_m3537018332
DCd:_ObjectRecord_UnchainFixup_m3191243952
vzi:_TlsStream_get_CanWrite_m16389328
a9g:__Z65RuntimeInvoker_RuntimeObject_RuntimeObject_Vector3U26_t3464235976PFvvEPK10MethodInfoPvPS4_
ol:_glMapBufferRange
y4a:__ZN9Texture2D8TransferI18StreamedBinaryReadILb0EEEEvRT_
Mkc:__Z31Input_CUSTOM_GetMouseButtonDowni
qcc:__ZN13PlayableGraph4PlayEv
Lbc:__Z29AddCanvasIntermediateRendererPN2UI6CanvasEPNS_13CanvasBuffersEP17VertexDeclarationjRK10Matrix4x4ftRK4AABB4PPtrI8MaterialEi17ShadowCastingModebP6Camerab
Vrf:_String_Format_m3339413201
hRf:_EncoderExceptionFallbackBuffer_get_Remaining_m1573636148
fye:_MonoType_get_BaseType_m1098640416
gMa:__ZN13LoadOperation19IntegrateTimeSlicedEi
Ozi:_TlsStream_Read_m3392972801
Zsa:__ZN13GfxDeviceGLES22DispatchComputeProgramE12ObjectHandleI18ComputeProgram_TagPvE15ComputeBufferIDj
bng:_Transform_get_localToWorldMatrix_m4155710351
fMb:__ZN20DefaultGfxDeviceImpl32InitStereoGlobalsBuffersPlatformEiijPKv
RSf:_Latin1Encoding_GetString_m254210343
Ojb:__Z17TransformAABBSlowRK4AABBRK10Matrix4x4fRS_
FXe:_Array_combsort_m4052486289
XK:__ZN24AudioScriptBufferManager27InitialCompleteDomainReloadEv
KLg:_List_1_System_Collections_ICollection_get_SyncRoot_m314215814_gshared
iia:__ZN9ShaderLab21SerializedShaderState8TransferI14SafeBinaryReadEEvRT_
E4e:_Environment_GetWindowsFolderPath_m1738399646
AWg:_Queue_1_System_Collections_Generic_IEnumerableU3CTU3E_GetEnumerator_m2263220760_gshared
QTg:_List_1_Sort_m378918663_gshared
JDc:_cf2_stack_pushInt
TD:__ZN7mecanim9animation20DestroyLayerConstantEPNS0_13LayerConstantERNS_6memory9AllocatorE
NWd:_U3CGetEnumeratorU3Ec__Iterator0_System_Collections_IEnumerator_get_Current_m3208659014_gshared
Qmd:_Module_GetCustomAttributes_m76573271
hGd:_CryptoConfig_EncodeOID_m2635914623
Tka:__ZN15SerializeTraitsINSt3__24pairIN4core12basic_stringIcNS2_20StringStorageDefaultIcEEEES6_EEE8TransferI24GenerateTypeTreeTransferEEvRS7_RT_
KEi:_Match_get_Groups_m841244970
w3j:b89
v3j:b88
V2j:b81
U2j:b80
wFa:__ZN7ApiGLES19CreateSparseTextureEjj14GraphicsFormatiiiiRiS1_S1_
C0:__ZN18ResourceImageGroup7CleanupEv
j3j:b85
i3j:b84
u3j:b87
t3j:b86
Lp:__ZN11Quaternionf8TransferI24GenerateTypeTreeTransferEEvRT_
Ayd:_RemotingSurrogateSelector_GetSurrogate_m3900875713
b7g:__Z69RuntimeInvoker_Boolean_t97287965_UInt16_t2177724958_Int16_t2552820387PFvvEPK10MethodInfoPvPS4_
CIh:_ReadOnlyCollection_1_System_Collections_IList_get_IsReadOnly_m3626439112_gshared
bne:_CertificateValidationCallback_Invoke_m1014111289
OZa:__ZN8Playable19SetOutputConnectionEPS_i
gDh:__ZN23InterfaceActionInvoker2Ii19Vector2_t2156229523E6InvokeEjP11Il2CppClassP12Il2CppObjectiS0_
_8i:__ZN15dense_hashtableINSt3__24pairIK10KeyWrapperIPK11Il2CppClassEPKcEES6_N6il2cpp5utils11PointerHashIS3_EEN14dense_hash_mapIS6_S9_SE_NS6_14EqualsComparerINS0_8equal_toIS5_EEEENS0_9allocatorISA_EEE9SelectKeyESJ_SL_EC2ERKSO_j
cm:_glDeleteShader
VAa:__ZN6prcoreL17RemapGenericFloatI15TexFormatRGHalf16TexFormatRGFloatEEvPKNS_9InnerInfoE
Hqh:_Array_Sort_TisUICharInfo_t75501106_m128665067_gshared
aGc:_otv_GSUB_validate
gkf:_RSAPKCS1SignatureDeformatter_SetHashAlgorithm_m1602190713
MPf:_Enum_System_IConvertible_ToByte_m1219166845
nug:_Dictionary_2_CopyToCheck_m45332585_gshared
rRg:_List_1_System_Collections_ICollection_get_IsSynchronized_m3630704857_gshared
RZd:_InternalEnumerator_1_System_Collections_IEnumerator_Reset_m4239728915_AdjustorThunk
Pgc:__Z27scripting_add_internal_callPKcPKv
cCh:__ZN21InterfaceFuncInvoker1Ib20UIVertex_t4057497605E6InvokeEjP11Il2CppClassP12Il2CppObjectS0_
Cpj:__ZN13Il2CppHashMapINSt3__24pairIPK9EventInfoP11Il2CppClassEEj17ReflectionMapHashIS7_ENS0_8equal_toIS7_EENS0_9allocatorINS1_IK10KeyWrapperIS7_EjEEEEEC2EjRKS9_RKSB_
efi:__ZL106Transform_t3600365921_CustomAttributesCacheGenerator_Transform_INTERNAL_get_localToWorldMatrix_m1917635696P21CustomAttributesCache
q5:__Z17GetPlayerSettingsv
hB:__ZN34BlobWriteTransferSTLStyleArrayImplI22OffsetPtrArrayTransferIiEEclERS1_17TransferMetaFlagsR9BlobWrite
Ind:_MonoField_get_FieldHandle_m3729647377
nSd:_ScrollRect_get_content_m2477524320
_ae:_Enumerator_MoveNext_m1556953412_AdjustorThunk
st:__ZN26AnimatorControllerPlayable18SetLayerAutoWeightEv
bXc:__Z44Register_UnityEngine_Canvas_get_pixelPerfectv
QIi:_Literal_GetAnchorInfo_m810577400
yfi:__ZL101RectTransform_t3704657025_CustomAttributesCacheGenerator_RectTransform_INTERNAL_set_pivot_m1160676233P21CustomAttributesCache
kUc:__ZN2UI14CanvasRenderer12SyncMaterialENS0_8SyncFlagE
jue:_StreamWriter_Write_m1660535366
Mih:__Z66RuntimeInvoker_Void_t1185182177_Int32_t2950945753_Link_t3209266973PFvvEPK10MethodInfoPvPS4_
rQj:__ZN6il2cpp2vm9Parameter30GetDefaultParameterValueObjectEPK10MethodInfoPK13ParameterInfoPb
KUf:_UTF8Encoding_GetByteCount_m4152118078
oih:__Z71RuntimeInvoker_Void_t1185182177_CustomAttributeNamedArgument_t287865710PFvvEPK10MethodInfoPvPS4_
v7f:_KeyPairPersistence__CanSecure_m3516574278
hvg:_Dictionary_2_make_pair_m3116882385_gshared
K3g:__Z95RuntimeInvoker_Void_t1185182177_RuntimeObject_RuntimeObject_Int32_t2950945753_SByte_t1669577662PFvvEPK10MethodInfoPvPS4_
HId:_MD5CryptoServiceProvider_Dispose_m3502499818
szh:_Collection_1_System_Collections_IList_get_Item_m2422562729_gshared
Kah:__Z87RuntimeInvoker_Void_t1185182177_RuntimeObject_StringU26_t181565287_StringU26_t181565287PFvvEPK10MethodInfoPvPS4_
T8d:_Comparer_1_get_Default_m1596450988_gshared
kTh:__ZL74RuntimeArray_CustomAttributesCacheGenerator_Array_BinarySearch_m3171087170P21CustomAttributesCache
LSh:__ZL72Enum_t4135868527_CustomAttributesCacheGenerator_Enum_ToObject_m122225012P21CustomAttributesCache
jIc:_UNITY_tt_face_done_kern
hoe:_SecurityParameters_get_ServerWriteMAC_m3430427271
Zki:__ZL90GUIStyle_t3956901511_CustomAttributesCacheGenerator_GUIStyle_get_stretchHeight_m4172805773P21CustomAttributesCache
Uni:__ZL68g_UnityEngine_StandardEvents_Assembly_CustomAttributesCacheGeneratorP21CustomAttributesCache
pXd:_ArrayReadOnlyList_1_RemoveAt_m2104218585_gshared
rbb:__ZN12BoneWeights48TransferI24GenerateTypeTreeTransferEEvRT_
Jwf:_Array_InternalArray__IEnumerable_GetEnumerator_TisParameterModifier_t1461694466_m3675077728_gshared
cde:_KeyCollection_System_Collections_IEnumerable_GetEnumerator_m4039044666_gshared
Osi:__ZL60RawImage_t3182918964_CustomAttributesCacheGenerator_m_UVRectP21CustomAttributesCache
FIb:__Z19scripting_gc_enablev
B4d:_InternalEnumerator_1_get_Current_m2907722321_gshared
NMb:__ZZ23InitPlayerLoopCallbacksvEN41InitializationPlayerUpdateTimeRegistrator7ForwardEv
zgc:__ZN11UTF16StringC2ERKS_10MemLabelId
j1b:__Z29StdTemplateConversionFunctionIihEbPvR14SafeBinaryRead
M5d:_InternalEnumerator_1_get_Current_m3792939945_AdjustorThunk
cWc:__Z55Register_UnityEngine_CanvasRenderer_DisableRectClippingv
Sab:__ZN14SafeBinaryRead21TransferSTLStyleArrayI13dynamic_arrayI11ColorRGBA32Lj4EEEEvRT_17TransferMetaFlags
Hwb:__ZL26Transfer_SimpleNativeClassI24GenerateTypeTreeTransfer8GradientLb0EEvRK29SerializationCommandArgumentsR31RuntimeSerializationCommandInfo
ssi:__ZL118U3CCaretBlinkU3Ec__Iterator0_t2589889038_CustomAttributesCacheGenerator_U3CCaretBlinkU3Ec__Iterator0_Reset_m1547565867P21CustomAttributesCache
ZIa:__ZN9GfxDevice22UploadTextureCubeArrayE9TextureIDPKhjii14GraphicsFormati18TextureUploadFlags
q$d:_InternalEnumerator_1_System_Collections_IEnumerator_get_Current_m888718134_gshared
E$g:__Z175RuntimeInvoker_Void_t1185182177_SByte_t1669577662_SByte_t1669577662_SByte_t1669577662_SByte_t1669577662_SByte_t1669577662_SByte_t1669577662_SByte_t1669577662_SByte_t1669577662PFvvEPK10MethodInfoPvPS4_
hZi:__ZL25UnresolvedVirtualCall_130P12Il2CppObjectixxaPK10MethodInfo
ejg:_Object_Destroy_m3118546832
YEh:_ReadOnlyCollection_1_System_Collections_Generic_IListU3CTU3E_set_Item_m519295790_gshared
IKf:_DateTime_FromTicks_m4059645178_AdjustorThunk
oUh:__ZL67ICustomAttributeProvider_t1530824137_CustomAttributesCacheGeneratorP21CustomAttributesCache
rud:_ConfigHandler_ParseTime_m1787834288
GBe:_Assembly_Load_m3487507613
IXa:__ZNSt3__27__sort4IRNS_6__lessIN4core12basic_stringIcNS2_20StringStorageDefaultIcEEEES6_EEPS6_EEjT0_SA_SA_SA_T_
VYj:dynCall_viiiifii
eoj:__ZN6il2cpp2gc19AppendOnlyGCHashMapINSt3__24pairIPK11Il2CppImageP11Il2CppClassEEP22Il2CppReflectionModule17ReflectionMapHashIS9_ENS2_8equal_toIS9_EEEC2Ev
eZ:__Z20GetPersistentManagerv
zLc:_UNITY_TT_Set_Var_Design
y8:__ZN21SystemInfoStringCache16StaticInitializeEPv
Q4h:__ZL80Convert_t2465617642_CustomAttributesCacheGenerator_Convert_ToDecimal_m1695757674P21CustomAttributesCache
gUd:_Selectable_get_targetGraphic_m559777690
xFh:_ReadOnlyCollection_1_System_Collections_Generic_ICollectionU3CTU3E_Remove_m1100818788_gshared
PCj:__ZNK10KeyWrapperIP12Il2CppObjectE14EqualsComparerINSt3__28equal_toIS1_EEEclERKS2_S9_
mja:__ZNSt3__26vectorIN9ShaderLab20SerializedSubProgram15StructParameterENS_9allocatorIS3_EEE6assignIPS3_EENS_9enable_ifIXaasr21__is_forward_iteratorIT_EE5valuesr16is_constructibleIS3_NS_15iterator_traitsISA_E9referenceEEE5valueEvE4typeESA_SA_
cEh:_Collection_1_IsSynchronized_m2291009199_gshared
UFb:__ZNK13MonoBehaviour7GetNameEv
Skb:__ZN19ScriptingInvocation28AdjustArgumentsToMatchMethodEv
COi:_IndexedSet_1_Contains_m1525966688_gshared
MG:__Z15_CheckFMODError11FMOD_RESULTPKciS1_
Zvj:__ZN6il2cpp6icalls8mscorlib6SystemL16ThrowInvalidCastEPK11Il2CppClassS5_
pWa:__Z20RenderMultipleMeshesRK15RenderNodeQueueRK18RenderMultipleData17ShaderChannelMask
fCg:_EqualityComparer_1_get_Default_m79107703_gshared
H1c:__ZN11UnityEngine15PlatformWrapper20GetPlayerPrefsStringERKN4core12basic_stringIcNS1_20StringStorageDefaultIcEEEES5_
YOd:_MaskableGraphic_get_maskable_m1260382606
lSf:_Latin1Encoding__ctor_m498920120
orj:__ZN6il2cpp2vm4Type19GetGenericParameterEPK10Il2CppType
Nif:_StreamReader_Peek_m2272511193
w8e:_DateTimeFormatInfo_FillAllDateTimePatterns_m2683124783
DVc:__Z51Register_UnityEngine_CanvasGroup_get_blocksRaycastsv
vze:_NumberFormatter_get_IsFloatingSource_m3714711779
GAh:_Collection_1_System_Collections_IList_Add_m1403891193_gshared
X_d:_InternalEnumerator_1_System_Collections_IEnumerator_Reset_m169899350_AdjustorThunk
NZf:_Type_GetConstructor_m1195697116
xd:_glBeginQuery
GWh:__ZL104RegionInfo_t1090270226_CustomAttributesCacheGenerator_RegionInfo_t1090270226____DisplayName_PropertyInfoP21CustomAttributesCache
w2i:_Canvas_get_scaleFactor_m3314757802
pOb:__ZN6Camera12RenderStereoENS_10RenderFlagE8CullFlagPNS_24PerformEyeRenderFunctionE
Wnb:__ZN20LocalFileSystemPosix10ToAbsoluteEPKc
cWa:__ZN20TierGraphicsSettings8TransferI19StreamedBinaryWriteILb0EEEEvRT_
w6j:b111
d8:__GLOBAL__sub_I_runtime_input_0_cpp
uJj:__ZN6il2cpp2vm13ComObjectBase16DisconnectObjectEj
IDg:_GenericComparer_1__ctor_m3652072706_gshared
Jm:f0
dq:__ZN6Object17MainThreadCleanupEv
EVa:__Z32TransferEnumWithNameForceIntSizeI14SafeBinaryRead7HDRModeEvRT_RT0_PKc17TransferMetaFlags
tUj:_getcwd
rLa:__ZN25ThreadsafeLinearAllocatorD2Ev
djb:__Z21SendMessageToEveryoneRK17MessageIdentifier11MessageData
Tca:__ZN21BillboardBatchManager16StaticInitializeEPv
PFf:_DateTime_AbsoluteDays_m4235097773
L9:__ZN12_GLOBAL__N_138ArchiveRedirectFileSystemStaticDestroyEPv
aUh:__ZL126U3CGetEnumeratorU3Ec__Iterator0_t1202911786_CustomAttributesCacheGenerator_U3CGetEnumeratorU3Ec__Iterator0_Dispose_m2078994225P21CustomAttributesCache
QWg:__Z74RuntimeInvoker_RuntimeObject_RuntimeObject_RuntimeObject_SByte_t1669577662PFvvEPK10MethodInfoPvPS4_
kUh:__ZL69Type_t_CustomAttributesCacheGenerator_Type_GetConstructor_m1195697116P21CustomAttributesCache
zed:_DefaultControls_CreateScrollView_m3842770629
N2a:__ZN12CubemapArray34UpdateFileTextureUploadInstructionEP26FileAssetUploadInstructionj
AXh:__ZL94EnumBuilder_t2400448213_CustomAttributesCacheGenerator_EnumBuilder_GetConstructors_m3294436155P21CustomAttributesCache
Vjh:__Z55RuntimeInvoker_TableRange_t3332867892_Int32_t2950945753PFvvEPK10MethodInfoPvPS4_
i2d:_InternalEnumerator_1_MoveNext_m1020308708_gshared
vFa:__Z23CreateSparseTextureGLES9TextureIDii14GraphicsFormati
IGc:_otv_Anchor_validate
waf:_Guid_CompareTo_m243656946_AdjustorThunk
Y5e:_CCMath_mod_m3631663509
nYf:_TimeSpan_Negate_m1889505500_AdjustorThunk
UIh:_ReadOnlyCollection_1_System_Collections_ICollection_CopyTo_m2715087453_gshared
wmi:__ZL84Canvas_t3310196443_CustomAttributesCacheGenerator_Canvas_get_scaleFactor_m3314757802P21CustomAttributesCache
Nee:_Transform_1__ctor_m2810088858_gshared
hPc:__ZNSt3__23mapIN20TextRenderingPrivate7FontRefEP11FT_FaceRec_NS_4lessIS2_EENS_9allocatorINS_4pairIKS2_S4_EEEEEixERS9_
ONa:__ZN17ArchiveFileSystem10AddStorageEP20ArchiveStorageReader
iej:__ZN6il2cpp2vm13MetadataCache37GetParameterDefaultValueDataFromIndexEi
tsj:_il2cpp_class_get_assemblyname
A4g:__Z50RuntimeInvoker_SByte_t1669577662_SByte_t1669577662PFvvEPK10MethodInfoPvPS4_
mhd:_Graphic_OnFillVBO_m1026749972
$6i:__ZN6il2cpp2vm5Class15GetEnumBaseTypeEP11Il2CppClass
oqe:_Context_set_WriteSequenceNumber_m942577065
ae:_glVertexAttrib4fv
NJj:__ZNK6il2cpp5utils13VmStringUtils23CaseInsensitiveComparerclERKNSt3__212basic_stringIcNS3_11char_traitsIcEENS3_9allocatorIcEEEEPKc
Ebd:_CanvasScaler_SetScaleFactor_m3006968999
dmh:__Z78RuntimeInvoker_Boolean_t97287965_Navigation_t3049316579_Navigation_t3049316579PFvvEPK10MethodInfoPvPS4_
P3a:__ZNK9Texture2D16GetNpotTexelSizeEv
jze:_NumberFormatter_Init_m3576155222
kNa:__ZL33FileEntryInfoListToFolderContentsRKN4core12basic_stringIcNS_20StringStorageDefaultIcEEEERK19dynamic_block_arrayI13FileEntryInfoLj32EERNSt3__23setIS3_NSB_4lessIS3_EENSB_9allocatorIS3_EEEE
U0e:_ArrayListWrapper_IndexOf_m3692065720
o1f:__ZN23InterfaceActionInvoker1IP39UnhandledExceptionEventArgs_t2886101344E6InvokeEjP11Il2CppClassP12Il2CppObjectS1_
N5c:_EventSystem_set_sendNavigationEvents_m983981895
eqa:__ZN9GfxDevice22GetDefaultVertexBufferE26GfxDefaultVertexBufferTypej
Itf:_Array_InternalArray__ICollection_Contains_TisInt64_t3736567304_m2911357929_gshared
kOb:__ZNK6Camera16GetTargetDisplayEv
Fzh:_Collection_1_Remove_m3022471627_gshared
KUj:___fseeko_unlocked
KAe:_Object_ToString_m1740002499
CUj:_sscanf
k7c:_ExecuteEvents_GetEventChain_m2404658789
LJb:__Z17BeginSplashScreenv
Rph:_Array_Resize_TisUILineInfo_t4195266810_m3763058392_gshared
DFd:_SByte_ToString_m3584531119_AdjustorThunk
Kla:__ZN9ShaderLab16SerializedShader8TransferI19StreamedBinaryWriteILb0EEEEvRT_
qVi:_TrackableProperty_GetHashCode_m3407865350
dD:__ZN7mecanim9animation18CreateAvatarMemoryEPKNS0_14AvatarConstantERNS_6memory9AllocatorE
xHf:_Convert_ToInt32_m1876369743
Vie:_ModulusRing__ctor_m2420310199
UFf:_Convert_ToDateTime_m626620011
tbe:_Enumerator_System_Collections_IDictionaryEnumerator_get_Key_m2500634048_AdjustorThunk
SB:__ZN7mecanim8skeleton16SkeletonPoseCopyIN4math4trsXENS2_7affineXEEEvPKNS0_13SkeletonPoseTIT_EEPNS5_IT0_EE
Wyb:__Z18Transfer_BlittableI19StreamedBinaryWriteILb0EELb0EaEvRK29SerializationCommandArgumentsR31RuntimeSerializationCommandInfo
oKg:_List_1_Remove_m3037048099_gshared
zwa:__ZN18GfxFramebufferGLES18GetFramebufferNameERK20GfxRenderTargetSetup
Dqj:__ZN6il2cpp2vm14TypeNameParser12ParseVersionERKNSt3__212basic_stringIcNS2_11char_traitsIcEENS2_9allocatorIcEEEERtSB_SB_SB_
zLd:_InputField_MoveDown_m1455948167
krc:__Z30Event_Get_Custom_PropCharacterP12Il2CppObject
Hea:__ZN13PlayableGraph27SchedulePlayableDestructionERK9HPlayable
TFc:_cff_get_mm_var
c0j:_glGetFramebufferAttachmentParameteriv__wrapper
ktd:_ChannelServices_GetCurrentChannelInfo_m3041604116
a2c:__Z13RegisterClassI20UnityConnectSettingsEvv
a5d:_InternalEnumerator_1__ctor_m2635640285_AdjustorThunk
Rrb:__Z22scripting_array_length17ScriptingArrayPtr
zue:_SynchronizedReader_Peek_m148942882
y_g:__Z95RuntimeInvoker_Void_t1185182177_RuntimeObject_Int32_t2950945753_Int32_t2950945753_RuntimeObjectPFvvEPK10MethodInfoPvPS4_
_2a:__ZN14SafeBinaryRead20TransferTypelessDataEjPvi
fdb:__ZN14SpriteRenderer18UpdateCachedSpriteEb
RMc:_Horizontal_Sweep_Init
GN:__ZN13dynamic_arrayI12SoundChannelLj4EE9push_backERKS0_
n5:__Z19GetActiveColorSpacev
LHc:_UNITY_tt_face_load_kern
knd:_MonoMethodInfo_GetDeclaringType_m2924452727
XKb:__ZN13sorted_vectorINSt3__24pairIiN17InstancingBatcher12PropertyTypeEEEN10vector_mapIiS3_NS0_4lessIiEE13stl_allocatorIS4_L18MemLabelIdentifier1ELi16EEE13value_compareESA_E21sort_clear_duplicatesEv
P$:__Z6StrCmpPKcS0_
dSd:_Scrollbar_OnInitializePotentialDrag_m3588541308
_na:__Z21CheckGpuProgramUsable20ShaderGpuProgramType
w7b:__ZN13ProduceHelperI14Texture2DArrayLb0EE7ProduceE10MemLabelId18ObjectCreationMode
uGj:__ZN6il2cpp2os9Directory20GetFileSystemEntriesERKNSt3__212basic_stringIcNS2_11char_traitsIcEENS2_9allocatorIcEEEESA_iiPi
rWe:_Array_System_Collections_IList_Add_m1063688101
Hsi:__ZL66Navigation_t3049316579_CustomAttributesCacheGenerator_m_SelectOnUpP21CustomAttributesCache
qOc:__ZN20TextRenderingPrivate19NativeTextGenerator5SetupEv
xVb:__ZNK15SharedLightData24GetFinalShadowResolutionEv
UFi:_PatternCompiler_EmitAlternationEnd_m2444359097
qci:__ZL91GameObject_t1113636619_CustomAttributesCacheGenerator_GameObject_get_activeSelf_m1767405923P21CustomAttributesCache
zgb:__ZN12AspectRatios8TransferI18StreamedBinaryReadILb0EEEEvRT_
Ebc:__ZN10GameObject14CopyPropertiesERS_
_rc:__Z44Register_UnityEngine_GUIStyle_get_fixedWidthv
Fuf:_Array_InternalArray__ICollection_Remove_TisLink_t544317964_m1280781374_gshared
SFj:__ZNSt3__214__split_bufferIN6il2cpp2os10ThreadImpl10APCRequestERNS_9allocatorIS4_EEEC2EjjS7_
JYe:_BitConverter_DoubleWordsAreSwapped_m1474345095
q7a:__ZNK13ScreenManager12IsFullScreenEv
l1e:_FixedSizeArrayListWrapper_set_Capacity_m4221053039
dVj:_rand
G0j:_emscripten_glFramebufferRenderbuffer__wrapper
Lec:__ZN13MeshScripting10CreateMeshE21ScriptingObjectOfTypeI4MeshE
APi:_ListPool_1__cctor_m3480273184_gshared
Bah:__Z56RuntimeInvoker_Void_t1185182177_PropertyName_t3749835189PFvvEPK10MethodInfoPvPS4_
S6c:__ZN23InterfaceActionInvoker1IP25BaseEventData_t3903027533E6InvokeEjP11Il2CppClassP12Il2CppObjectS1_
Nsb:__ZN14SafeBinaryRead21TransferSTLStyleArrayINSt3__26vectorI17AnimationCurveTplIfE13stl_allocatorIS4_L18MemLabelIdentifier1ELi16EEEEEEvRT_17TransferMetaFlags
Q1e:_SynchronizedArrayListWrapper_Contains_m3809499313
Suf:_Array_InternalArray__ICollection_Remove_TisLabelData_t360167391_m3556246844_gshared
jmj:__ZN15dense_hashtableINSt3__24pairIK10KeyWrapperINS1_IPK11Il2CppImageP11Il2CppClassEEEjEES9_17ReflectionMapHashIS8_EN14dense_hash_mapIS9_jSD_NS9_14EqualsComparerINS0_8equal_toIS8_EEEENS0_9allocatorISB_EEE9SelectKeyESI_SK_E12expand_arrayEjN21dense_hash_map_traits17integral_constantIbLb0EEE
fId:_HMACSHA256__ctor_m346174875
Qbg:_Color_op_Multiply_m2887457390
MYi:__ZL25UnresolvedVirtualCall_107P12Il2CppObjectS0_S0_iiPK10MethodInfo
UXb:__Z22PrepareOptimizedPlanesPK5PlaneiPKN4math7_float4E
d$d:_InternalEnumerator_1__ctor_m1559487635_gshared
EV:__ZN11UnityEngine15CloudWebService17WebFileDownloaderINS0_20WebRequestRestClientENS0_23WebRequestRestHeaderMapEE10InitializeERKN4core12basic_stringIcNS5_20StringStorageDefaultIcEEEE
Rca:__ZN17UniqueIDGenerator15CreatePureIndexEv
Ir:__ZN11UnityEngine9Animation28GenericAnimationBindingCache15DidReloadDomainEv
F6b:__Z48InitializeRectTransformAnimationBindingInterfacev
udb:__Z23PrepareSpriteTilingDataP14SharedMeshData8Vector2f14SpriteDrawModebfPK6SpriteR19SpriteTilingJobData
phb:__ZNSt3__26vectorIN15ResourceManager10DependencyE13stl_allocatorIS2_L18MemLabelIdentifier52ELi16EEE6assignINS_11__wrap_iterIPS2_EEEENS_9enable_ifIXaasr21__is_forward_iteratorIT_EE5valuesr16is_constructibleIS2_NS_15iterator_traitsISC_E9referenceEEE5valueEvE4typeESC_SC_
o6i:__ZN15dense_hashtableINSt3__24pairIK10KeyWrapperIPK22Il2CppGenericParameterEP11Il2CppClassEES6_N6il2cpp5utils11PointerHashIS4_EEN14dense_hash_mapIS6_S9_SE_NS6_14EqualsComparerINS0_8equal_toIS5_EEEENS0_9allocatorISA_EEE9SelectKeyESJ_SL_E14squash_deletedEv
U$a:__ZN9ShaderLabL27GetDesiredRenderTextureDescEPK6Camera
E1h:__ZL131RSACryptoServiceProvider_t2683512874_CustomAttributesCacheGenerator_RSACryptoServiceProvider_t2683512874____PublicOnly_PropertyInfoP21CustomAttributesCache
wnh:_Array_InternalArray__Insert_TisMark_t3471605523_m2854535880_gshared
kza:__ZN6prcoreL29inner_stretch_rgb565_bilinearEPKNS_9InnerInfoE
upc:__Z14GUIClipTextureP9Texture2DPhiiii
zji:__ZL52HumanBone_t2465339518_CustomAttributesCacheGeneratorP21CustomAttributesCache
hyd:_MethodReturnDictionary__cctor_m278392388
OY:__ZNK9Transform18TransformDirectionERK8Vector3f
zyi:_SslStreamBase_get_CanWrite_m1622082918
AOa:__ZNK17ArchiveFileSystem12GetAssetGUIDERK13FileEntryData
Sna:__ZNSt3__26vectorIN9ShaderLab20SerializedSubProgram15MatrixParameterENS_9allocatorIS3_EEE21__push_back_slow_pathIKS3_EEvRT_
nui:__ZL80CanvasScaler_t2767979955_CustomAttributesCacheGenerator_m_ReferencePixelsPerUnitP21CustomAttributesCache
tGc:_otv_MarkLigPos_validate
nWf:_Thread_GetSerializedCurrentUICulture_m3681656498
EGg:_Enumerator_MoveNext_m2114485647_gshared
bGe:_GenericTypeParameterBuilder_GetCustomAttributes_m580748276
EUi:_AnalyticsTracker_get_TP_m2800669040
Scj:__ZN15dense_hashtableINSt3__24pairIK10KeyWrapperIPK11Il2CppClassEPKcEES6_N6il2cpp5utils11PointerHashIS3_EEN14dense_hash_mapIS6_S9_SE_NS6_14EqualsComparerINS0_8equal_toIS5_EEEENS0_9allocatorISA_EEE9SelectKeyESJ_SL_E12resize_deltaEjj
OWj:__ZNK10__cxxabiv120__si_class_type_info27has_unambiguous_public_baseEPNS_19__dynamic_cast_infoEPvi
_ie:_Kernel_LeftShift_m4140742987
tBe:_Assembly_GetManifestResourceInternal_m1224391897
Vwa:__Z30AddDefaultStreamsToMeshBuffersR9GfxDeviceR11MeshBuffersj17ShaderChannelMaskS3_
u9:__ZL16GetInterfaceImpl18UnityInterfaceGUID
s7i:__ZN6il2cpp2vmL17SetupFieldOffsetsENS0_15FieldLayoutKindEP11Il2CppClassjRKNSt3__26vectorIjNS4_9allocatorIjEEEE
jJj:__ZN6il2cpp6icalls8mscorlib6System15MonoCustomAttrs27GetCustomAttributesInternalEP12Il2CppObjectP20Il2CppReflectionTypeb
Yb:invoke_viifi
WLc:_UNITY_TT_Set_MM_Blend
e8:__GLOBAL__sub_I_runtime_math_random_0_cpp
Bxi:_InternalAsyncResult_get_FromWrite_m4228047810
O1g:__Z53RuntimeInvoker_MonoEventInfo_t346866618_RuntimeObjectPFvvEPK10MethodInfoPvPS4_
qCh:_Collection_1_CopyTo_m955200729_gshared
YJb:__ZN14PreloadManager35WaitForAllAsyncOperationsToCompleteEv
TBg:_EqualityComparer_1__ctor_m1138336971_gshared
Q_:__ZNK18ScriptingObjectPtr17ToScriptingStringEv
tI:__ZL31InitializeAudioScriptingClassesv
kPb:__Z14SortGUIByDepthP10GUIElementS0_
Q8:__ZN13RuntimeStaticI13dynamic_arrayIPK31TransferFunctionScriptingTraitsLj4EELb0EE16StaticInitializeEPv
Y7g:__Z69RuntimeInvoker_UInt32_t2560061978_Int32_t2950945753_SByte_t1669577662PFvvEPK10MethodInfoPvPS4_
CC:__ZN12_GLOBAL__N_120ProcessRootMotionMixER33AnimationPlayableEvaluationOutputR35AnimationPlayableEvaluationConstantR32AnimationPlayableEvaluationInputS1_f
AKi:_UriParser__cctor_m3655686731
bOd:_LayoutRebuilder_U3Cs_RebuildersU3Em__0_m589488547
Blh:__Z53RuntimeInvoker_KeyValuePair_2_t71524366_RuntimeObjectPFvvEPK10MethodInfoPvPS4_
wob:__ZNK20LocalFileSystemPosix21GetAvailableDiskSpaceEPKcRy
E8:__ZNSt3__26__treeIiNS_4lessIiEENS_9allocatorIiEEE7destroyEPNS_11__tree_nodeIiPvEE
zpa:__ZNK9GfxDevice14GetWorldMatrixEv
qyc:__ZN8JSONRead8TransferI8Vector2fEEvRT_PKc17TransferMetaFlagsb
Xpg:_Transform_set_parent_m786917804
bIj:__ZN15dense_hashtableINSt3__24pairIK10KeyWrapperIPK19Il2CppGenericMethodEP10MethodInfoEES6_N6il2cpp8metadata23Il2CppGenericMethodHashEN14dense_hash_mapIS6_S9_SD_NS6_14EqualsComparerINSC_26Il2CppGenericMethodCompareEEENS0_9allocatorISA_EEE9SelectKeyESH_SJ_E13set_empty_keyERKSA_
_Ud:_Slider_get_value_m739683640
Mmb:__Z19scripting_array_new17ScriptingClassPtrjj
FHf:_Convert_ToInt32_m2128774575
uN:__ZN11SoundHandle13CreateChannelEb
IWf:_WaitCallback_BeginInvoke_m3012509827
p5a:__ZN14SafeBinaryRead21TransferSTLStyleArrayI13dynamic_arrayI12LightmapDataLj4EEEEvRT_17TransferMetaFlags
Vja:__ZNSt3__26vectorIN9ShaderLab20SerializedSubProgram16TextureParameterENS_9allocatorIS3_EEE6assignIPS3_EENS_9enable_ifIXaasr21__is_forward_iteratorIT_EE5valuesr16is_constructibleIS3_NS_15iterator_traitsISA_E9referenceEEE5valueEvE4typeESA_SA_
tbj:__ZN13Il2CppHashMapIN6il2cpp5utils13dynamic_arrayIPK10Il2CppTypeLj4EEEPFvvENS0_8metadata19Il2CppSignatureHashENS9_22Il2CppSignatureCompareENSt3__29allocatorINSC_4pairIK10KeyWrapperIS6_ES8_EEEEEC2EjRKSA_RKSB_
Z_g:__Z122RuntimeInvoker_Void_t1185182177_RuntimeObject_RuntimeObject_ContractionU5BU5DU26_t2277527001_Level2MapU5BU5DU26_t359320357PFvvEPK10MethodInfoPvPS4_
Moj:__ZN15dense_hashtableINSt3__24pairIK10KeyWrapperIPK22Il2CppGenericParameterEPK24MonoGenericParameterInfoEES6_N6il2cpp5utils11PointerHashIS4_EEN14dense_hash_mapIS6_SA_SF_NS6_14EqualsComparerINS0_8equal_toIS5_EEEENS0_9allocatorISB_EEE9SelectKeyESK_SM_E15set_deleted_keyERKSB_
BFd:_SByte_TryParse_m2431806379
c7h:__ZL64ObjectDisposedException_t21392786_CustomAttributesCacheGeneratorP21CustomAttributesCache
$3b:__ZN6prcoreL11inner_clearILj2EEEvPhjjj
Ybi:__ZL92Debug_t3317548046_CustomAttributesCacheGenerator_Debug_LogWarningFormat_m1153215311____args2P21CustomAttributesCache
dHd:_DSACryptoServiceProvider_get_KeySize_m786836990
N9i:__ZNSt3__218uninitialized_fillIPNS_4pairIK10KeyWrapperIPKcEP11Il2CppClassEES9_EEvT_SB_RKT0_
Ng:_emscripten_exit_fullscreen
Xoh:_Array_qsort_TisBoolean_t97287965_TisBoolean_t97287965_m214793583_gshared
QFg:_Enumerator_System_Collections_IEnumerator_Reset_m1564381721_gshared
K6b:__ZZL31RegisterRectTransformPropertiesR22GenericPropertyBindingEN39Wrapper_RectTransformAnchoredPositiony113GetFloatValueEPv
EAe:_Object_MemberwiseClone_m1474068832
aFj:__ZN6il2cpp6icalls8mscorlib6System6String19InternalAllocateStrEi
xzc:__Z29Transfer_Blittable_ArrayFieldI8JSONRead11QuaternionfEvRT_R9ArrayInfoRK23StaticTransferFieldInfo
dob:__ZN20LocalFileSystemPosix8SetFlagsER13FileEntryDatajj
ajc:__Z45Register_UnityEngine_Camera_get_targetDisplayv
K9b:__ZNK24RendererAnimationBinding15GenerateBindingERKN4core12basic_stringIcNS0_20StringStorageDefaultIcEEEEbRN11UnityEngine9Animation14GenericBindingE
CKe:_IPv6Address__ctor_m3704187391
FPb:__Z15GetFlareManagerv
I4b:__ZN15ApplicationInfo24GetApplicationIdentifierEv
jKa:__ZN9Behaviour8TransferI18StreamedBinaryReadILb0EEEEvRT_
Uz:__ZN8Animator13GetAvatarRootEv
hAf:_Array_InternalArray__ICollection_Add_TisResourceCacheItem_t51292791_m3851804827_gshared
eTj:___toread
YHb:__ZNSt3__26vectorI10vector_mapIiiNS_4lessIiEE13stl_allocatorINS_4pairIiiEEL18MemLabelIdentifier38ELi16EEES4_IS9_LS7_38ELi16EEE26__swap_out_circular_bufferERNS_14__split_bufferIS9_RSA_EE
wie:_BigInteger_get_Rng_m3283260184
pXj:___cxa_is_pointer_type
dF:__ZN8Animator22ScriptingStringToCRC32ERK11ICallString
M7h:__ZL55EventHandler_t1348719766_CustomAttributesCacheGeneratorP21CustomAttributesCache
EC:__ZN7mecanim9animation16EvaluateAvatarDXEPKNS0_14AvatarConstantEPKNS0_11AvatarInputEPNS0_12AvatarMemoryEPNS0_15AvatarWorkspaceEPNS0_12AvatarOutputE
e9c:_RaycastResult_ToString_m2678663776_AdjustorThunk
dth:_Array_InternalArray__get_Item_TisKeyValuePair_2_t2530217319_m2886833132_gshared
tTd:_ScrollRect_OnEndDrag_m3202230060
Cnc:__Z34Transform_CUSTOM_SetAsFirstSiblingP12Il2CppObject
Ajj:__ZNK15dense_hashtableINSt3__24pairIK10KeyWrapperINS1_IPK14Il2CppAssemblyP11Il2CppClassEEEjEES9_17ReflectionMapHashIS8_EN14dense_hash_mapIS9_jSD_NS9_14EqualsComparerINS0_8equal_toIS8_EEEENS0_9allocatorISB_EEE9SelectKeyESI_SK_E10test_emptyEj
S_g:__Z63RuntimeInvoker_Void_t1185182177_RuntimeObject_SByte_t1669577662PFvvEPK10MethodInfoPvPS4_
jgi:__ZL57SetupCoroutine_t2062820429_CustomAttributesCacheGeneratorP21CustomAttributesCache
oLd:_InputField_Delete_m3471899192
d6h:__ZL79Convert_t2465617642_CustomAttributesCacheGenerator_Convert_ToUInt64_m1627266664P21CustomAttributesCache
M_h:__ZL91UrlAttribute_t221584584_CustomAttributesCacheGenerator_UrlAttribute_IsContextOK_m1228378186P21CustomAttributesCache
AAd:_RemotingConfiguration_get_ProcessId_m2180277012
L_i:__ZL25UnresolvedVirtualCall_214P12Il2CppObjectS0_iPK10MethodInfo
y3:__ZN17PersistentManager40GlobalToLocalSerializedFileIndexInternalERK26SerializedObjectIdentifier
uS:__ZN11UnityEngine15CloudWebService17SessionEventQueue14ParseEventDataERKN4core12basic_stringIcNS2_20StringStorageDefaultIcEEEE
sJg:_List_1_Remove_m2605758101_gshared
Zua:__ZN13TranslateGLES4InitERK12GraphicsCaps16GfxDeviceLevelGL
SEb:__Z29Transfer_Blittable_ArrayFieldI18StreamedBinaryReadILb0EE10ColorRGBAfEvRT_R9ArrayInfoRK23StaticTransferFieldInfo
Jej:_NativeTypeAttribute_set_CodegenOptions_m3839252515
RAg:_EqualityComparer_1_get_Default_m180770000_gshared
ydf:_Int64_System_IConvertible_ToUInt16_m848637338_AdjustorThunk
JYc:__Z32CustomEventData_CUSTOM_AddUInt32P12Il2CppObjectP12Il2CppStringj
zyf:_Array_InternalArray__IndexOf_TisLink_t544317964_m455584088_gshared
jWg:_Enumerator_get_Current_m2282646120_AdjustorThunk
IIh:_ReadOnlyCollection_1_IndexOf_m2539022912_gshared
t8f:_KeyGeneratedEventHandler__ctor_m1990062371
vti:__ZL66Selectable_t3250028441_CustomAttributesCacheGenerator_m_TransitionP21CustomAttributesCache
XQj:__ZN6il2cpp2os6Memory12AlignedAllocEjj
ZFg:_Enumerator_get_Current_m2305210644_AdjustorThunk
eWd:_Text_set_alignByGeometry_m3828822280
GKj:__ZN6il2cpp8metadataL7CompareEPK10Il2CppTypeS3_
Nub:__Z18Transfer_BlittableI17RemapPPtrTransferLb0E11ColorRGBA32EvRK29SerializationCommandArgumentsR31RuntimeSerializationCommandInfo
IHe:_HybridDictionary__ctor_m1681134385
k2:__ZN21ScalableBufferManager11GetInstanceEv
iDb:__Z18Transfer_BlittableI18StreamedBinaryReadILb0EELb1E10ColorRGBAfEvRK29SerializationCommandArgumentsR31RuntimeSerializationCommandInfo
F2a:__ZN12CubemapArray23VirtualRedirectTransferER17RemapPPtrTransfer
xYf:_TimeSpan_op_LessThan_m1594498345
Vgc:__ZL27GetComponentsImplementationILb0ELi0EEbR10GameObjectbRK17CompareParametersRK39GetComponentsImplementation_ReturnValue
GGb:__ZN9Scripting36IsSystemCollectionsGenericDictionaryE17ScriptingClassPtr
GNi:_UnityEvent_1_FindMethod_Impl_m322741469_gshared
o$h:__ZL92ConstructionCallDictionary_t686578562_CustomAttributesCacheGenerator_U3CU3Ef__switchU24map24P21CustomAttributesCache
Rti:__ZL64Slider_t3903728902_CustomAttributesCacheGenerator_m_WholeNumbersP21CustomAttributesCache
lqg:_Enumerator_get_Current_m2591725252
d1:__ZL16ReadTypeTreeImplILb0EEbR8TypeTreeRK16TypeTreeIteratorRPKhS6_i
WRe:_Interval_Contains_m110351300_AdjustorThunk
yHf:_Convert_ToInt32_m3048308591
vvi:__ZL77LayoutUtility_t2745813735_CustomAttributesCacheGenerator_U3CU3Ef__amU24cache6P21CustomAttributesCache
tQd:_RectMask2D_OnCanvasHierarchyChanged_m3195492255
RLf:_DateTimeOffset_Equals_m3030958070
fZa:__ZNK22BuiltinResourceManager21GetResourceInstanceIDEPKN5Unity4TypeERKN4core12basic_stringIcNS4_20StringStorageDefaultIcEEEE
asa:__ZN9GfxDevice15BeginFrameStatsEv
Fkc:__Z42Register_UnityEngine_RectOffset_set_bottomv
IUi:_AnalyticsTracker_BuildParameters_m43920649
Jrc:__Z28GUIStyleState_CUSTOM_CleanupP12Il2CppObject
a8e:_DateTimeFormatInfo_GetMonthName_m2034512315
pRb:__ZN28LightProbeProxyVolumeContext8CopyFromERKS_
WBb:__ZN18StreamedBinaryReadILb1EE8TransferI13dynamic_arrayI8BitFieldLj4EEEEvRT_PKc17TransferMetaFlags
qJh:_ReadOnlyCollection_1_System_Collections_Generic_IListU3CTU3E_Insert_m2489506856_gshared
Q6:__ZN23TransformChangeDispatch32QueueTransformChangeIfHasChangedER18TransformHierarchy
V2f:_SimpleCollator_ToDashTypeValue_m6184468
TDa:__ZN7ApiGLES18DeleteRenderbufferERj
uCa:__ZL23ProgramUniformMatrix4fvPK7ApiGLESjiihPKv
aEa:__ZN7ApiGLES13CreateTextureEjj14GraphicsFormatiiiii
KXe:_Array_new_gap_m262136975
zja:__ZN9ShaderLab20SerializedSubProgram15MatrixParameter8TransferI14SafeBinaryReadEEvRT_
Xgc:__ZL27GetComponentsImplementationILb0ELi1EEbR10GameObjectbRK17CompareParametersRK39GetComponentsImplementation_ReturnValue
XNe:_X509Store__ctor_m275383717
A3f:_SimpleCollator_LastIndexOfOrdinalIgnoreCase_m2984667899
FKc:_Round_Down_To_Grid
PEa:__ZN13RenderTexture7ReleaseEv
Wwc:__Z18Transfer_BlittableI8JSONReadLb1EN4math12int3_storageEEvRK29SerializationCommandArgumentsR31RuntimeSerializationCommandInfo
mcb:__ZN10MeshFilter23VirtualRedirectTransferER14SafeBinaryRead
Wui:__ZL64LayoutGroup_t2436138090_CustomAttributesCacheGenerator_m_PaddingP21CustomAttributesCache
LLe:_AsnEncodedData_get_Oid_m402887164
wcb:__ZN12MeshRenderer17MainThreadCleanupEv
d7i:__ZN6il2cpp2vmL10InitLockedEP11Il2CppClassRKNS_2os12FastAutoLockE
HHa:__ZN22CreateGpuProgramOutput12CreateParamsEv
FJ:__ZN10ObjectPoolIN4FMOD7ChannelENS0_8ChannelIEE7GetFreeEi
uA:__ZN8Animator9BuildJobsERK13dynamic_arrayIP14PlayableOutputLj4EERS0_INS_11AnimatorJobELj8EEPS7_PS0_IbLj1EESB_bb
Umh:__Z96RuntimeInvoker_RuntimeObject_CustomAttributeNamedArgument_t287865710_RuntimeObject_RuntimeObjectPFvvEPK10MethodInfoPvPS4_
Tfd:_FontData_get_font_m2720086288
U$d:_InternalEnumerator_1_System_Collections_IEnumerator_get_Current_m548105685_gshared
Pua:__ZNK14GfxContextGLES13GetDefaultFBOEv
Mjh:__Z99RuntimeInvoker_Void_t1185182177_UILineInfoU5BU5DU26_t2468919161_Int32_t2950945753_Int32_t2950945753PFvvEPK10MethodInfoPvPS4_
LZe:_Byte_System_IConvertible_ToType_m2251112646
FBh:_Collection_1_Contains_m692247505_gshared
zdh:__Z81RuntimeInvoker_Char_t3634460470_RuntimeObject_Int32_t2950945753_Int16_t2552820387PFvvEPK10MethodInfoPvPS4_
MKf:_DateTime_get_Hour_m4153505178_AdjustorThunk
L0i:_AudioExtensionManager_WriteExtensionProperties_m3028464154
Lnf:_Evidence_Equals_m1478353107
oEi:_CostDelegate__ctor_m4027655829
Odc:__Z13GetImagePixelI10ColorRGBAfET_PKhii13TextureFormat15TextureWrapModeS5_ii
CPg:_List_1_System_Collections_IList_set_Item_m1842844683_gshared
JPi:_ObjectPool_1__ctor_m2535233435_gshared
mOi:_EventFunction_1__ctor_m4292798223_gshared
vvj:__ZN6il2cpp2vm6Thread49CheckCurrentThreadForInterruptAndThrowIfNecessaryEv
dFf:_Convert_ToChar_m3757390865
v5:__ZNSt3__23mapIN9ShaderLab16FastPropertyNameEN18UnityPropertySheet11UnityTexEnvENS_4lessIS2_EENS_9allocatorINS_4pairIKS2_S4_EEEEEixERS9_
VCa:__ZNK13TranslateGLES25GetTextureTargetDimensionEj
hBe:_RankException__ctor_m3453633632
aNh:_Comparison_1__ctor_m533218197_gshared
Sjh:__Z96RuntimeInvoker_Void_t1185182177_Vector3U5BU5DU26_t3038522815_Int32_t2950945753_Int32_t2950945753PFvvEPK10MethodInfoPvPS4_
PGh:_ReadOnlyCollection_1_System_Collections_IList_Remove_m1842121503_gshared
I0g:__Z32RuntimeInvoker_Double_t594665363PFvvEPK10MethodInfoPvPS4_
M4e:_File_OpenRead_m2936789020
Vmc:__Z47Texture2D_CUSTOM_INTERNAL_CALL_GetPixelBilinearP12Il2CppObjectffR10ColorRGBAf
C_:__ZN9Scripting12LogExceptionE21ScriptingExceptionPtriPKcb
cbh:__Z94RuntimeInvoker_Void_t1185182177_RuntimeObject_PlayableGraph_t3515989261_RuntimeObject_IntPtr_tPFvvEPK10MethodInfoPvPS4_
Oi:_emscripten_glVertexAttrib4f
Z5d:_InternalEnumerator_1_System_Collections_IEnumerator_Reset_m4072625129_AdjustorThunk
vna:__ZNSt3__26vectorIN20GpuProgramParameters14ConstantBufferENS_9allocatorIS2_EEE8__appendEj
FOe:_X509CertificateCollection_AddRange_m3683116910
V2d:_InternalEnumerator_1_Dispose_m1837758743_AdjustorThunk
M5i:_CustomEventData_t317522481_marshal_pinvoke_cleanup
Mtd:_SinkProviderData__ctor_m1624738837
BSb:__ZN11HaloManager21ReleaseGeometryJobMemEP25DynamicVBOGeometryJobData
Dff:_DirectoryNotFoundException__ctor_m1689636868
Vch:__Z88RuntimeInvoker_RuntimeObject_RuntimeObject_SByte_t1669577662_RuntimeObject_RuntimeObjectPFvvEPK10MethodInfoPvPS4_
hHh:_ReadOnlyCollection_1_System_Collections_Generic_IListU3CTU3E_get_Item_m978644313_gshared
ACh:_Collection_1_get_Item_m2253972692_gshared
kkd:_RefEmitPermissionSet_t484390987_marshal_pinvoke_cleanup
RCe:_CustomAttributeTypedArgument_Equals_m2261980307
Rx:__ZN7mecanim12statemachine24CreateStateMachineMemoryEPKNS0_20StateMachineConstantERNS_6memory9AllocatorE
fsa:__ZN9GfxDevice18SetGlobalDepthBiasEff
fgj:__ZN6il2cpp6icalls8mscorlib6System8MonoType12get_AssemblyEP20Il2CppReflectionType
qhf:_IsolatedStorageException__ctor_m3386787868
mld:_TypeBuilder_MakeGenericType_m2799607032
Co:FUNCTION_TABLE_vi
_Lh:_ReadOnlyCollection_1_IndexOf_m3669095250_gshared
aj:_emscripten_glGetPointerv
Urh:_Dictionary_2_Do_CopyTo_TisKeyValuePair_2_t3842366416_TisRuntimeObject_m1564656153_gshared
sC:__ZN8Animator22ApplyBuiltinRootMotionEv
MBj:__ZN15dense_hashtableI10KeyWrapperIP18Il2CppGenericClassES3_N6il2cpp8metadata22Il2CppGenericClassHashEN14dense_hash_setIS3_S6_NS3_14EqualsComparerINS5_25Il2CppGenericClassCompareEEENSt3__29allocatorIS3_EEE8IdentityESA_SD_E5clearEv
zJb:__Z26ApplyMaterialPassWithCacheRK18SharedMaterialDataR17ShaderPassContextP6ShaderPN9ShaderLab4PassEibPKNS6_10GrabPassesEPNS6_11SubProgramsEPK22DeviceRenderStateBlock
f5g:__Z55RuntimeInvoker_DateTime_t3738529785_TimeSpan_t881159249PFvvEPK10MethodInfoPvPS4_
Bye:_MulticastDelegate_KPM_m22863605
A3d:_InternalEnumerator_1_get_Current_m1897120917_AdjustorThunk
_xe:_MonoType_ReorderParamArrayArguments_m2458683451
aCd:_FormatterConverter_ToInt16_m4282804414
P2g:__Z81RuntimeInvoker_Void_t1185182177_Int64_t3736567304_RuntimeObject_Int64_t3736567304PFvvEPK10MethodInfoPvPS4_
K9c:_StandaloneInputModule_ProcessTouchPress_m4019232747
P4e:_FileStream__ctor_m3151488352
JXe:_Array_swap_m547389985
L3:__ZN8Renderer23VirtualRedirectTransferER14SafeBinaryRead
Z$f:_UInt32_ToString_m2420423038
AMg:_List_1_System_Collections_IList_Add_m634558835_gshared
TLh:_ReadOnlyCollection_1_System_Collections_IList_get_IsFixedSize_m1923250479_gshared
bni:__ZL105CanvasRenderer_t2598313366_CustomAttributesCacheGenerator_CanvasRenderer_set_popMaterialCount_m1224846275P21CustomAttributesCache
dgf:_FileStream_get_Length_m426703983
Vhe:_Enumerator__ctor_m1558933899_AdjustorThunk
i9h:__ZL88BigInteger_t2902905090_CustomAttributesCacheGenerator_BigInteger_op_Implicit_m3414367033P21CustomAttributesCache
n7i:__ZN6il2cpp2vmL15GetBitmapNoInitEP11Il2CppClassPjRjj
M_i:__ZL25UnresolvedVirtualCall_215P12Il2CppObjectS0_iPK10MethodInfo
LTg:_List_1_Remove_m2092085040_gshared
M2b:__ZL13MotionHandleriPK27EmscriptenDeviceMotionEventPv
$H:__ZN12AudioManager5ResetEv
YXg:__Z67RuntimeInvoker_Boolean_t97287965_RuntimeObject_SByteU26_t3619038962PFvvEPK10MethodInfoPvPS4_
bZg:__Z143RuntimeInvoker_Boolean_t97287965_RuntimeObject_Int32_t2950945753_RuntimeObject_SByte_t1669577662_DoubleU26_t1739162597_ExceptionU26_t3600731591PFvvEPK10MethodInfoPvPS4_
$bc:__ZN15DirectorManager18ScheduleGraphStartERK14HPlayableGraph
$Gh:_ReadOnlyCollection_1_get_Count_m1336304542_gshared
Dvi:__ZL111LayoutUtility_t2745813735_CustomAttributesCacheGenerator_LayoutUtility_U3CGetPreferredHeightU3Em__6_m3049688934P21CustomAttributesCache
fBa:__ZN6prcoreL17RemapGenericFloatI17TexFormatRGBAHalf15TexFormatRGHalfEEvPKNS_9InnerInfoE
E$i:__ZL25UnresolvedVirtualCall_261P12Il2CppObjectiPK10MethodInfo
zoj:__ZNK15dense_hashtableINSt3__24pairIK10KeyWrapperIPK14Il2CppAssemblyEPK22Il2CppMonoAssemblyNameEES6_N6il2cpp5utils11PointerHashIS4_EEN14dense_hash_mapIS6_SA_SF_NS6_14EqualsComparerINS0_8equal_toIS5_EEEENS0_9allocatorISB_EEE9SelectKeyESK_SM_E10test_emptyEj
kHj:__ZN6il2cpp6icalls8mscorlib6System11Environment20GetWindowsFolderPathEi
sEf:_Convert_ToBoolean_m2833752130
Fw:__ZN7mecanim5human18HumanPoseBlendNodeERNS0_9HumanPoseEPS1_f
OEc:_UNITY_FT_RoundFix
GR:__ZN23CloudWebServicesManager23VirtualRedirectTransferER17RemapPPtrTransfer
UNj:_GC_is_heap_ptr
P5f:_ASN1_DecodeTLV_m1200977460
Xeg:_UnityEventBase_PrepareInvoke_m1785382128
uJh:_ReadOnlyCollection_1_System_Collections_Generic_IListU3CTU3E_set_Item_m1584697503_gshared
Lld:__ZN23InterfaceActionInvoker2IP12Il2CppObjectP20Delegate_t1188392813E6InvokeEjP11Il2CppClassS1_S1_S3_
ycb:__ZNK12MeshRenderer22GetTypeVirtualInternalEv
e$e:_Char_System_IConvertible_ToUInt32_m3901815580
yRd:_Scrollbar_set_onValueChanged_m346467699
n5g:__Z157RuntimeInvoker_Int32_t2950945753_RuntimeObject_Int32_t2950945753_Int32_t2950945753_Int32_t2950945753_SByte_t1669577662_SByte_t1669577662_Int32U26_t1369213839PFvvEPK10MethodInfoPvPS4_
nPi:_ListPool_1_Release_m957266927_gshared
a0h:__ZL105ConfigHandler_t4192437216_CustomAttributesCacheGenerator_ConfigHandler_ValidatePath_m3895556516____paths1P21CustomAttributesCache
IK:__ZN4FMOD6System17setSoftwareFormatEi17FMOD_SOUND_FORMATii18FMOD_DSP_RESAMPLER
aia:__ZN14SafeBinaryRead19TransferSTLStyleMapINSt3__23mapIN4core12basic_stringIcNS3_20StringStorageDefaultIcEEEES7_NS1_4lessIS7_EE13stl_allocatorINS1_4pairIKS7_S7_EEL18MemLabelIdentifier1ELi16EEEEEEvRT_17TransferMetaFlags
OTc:__ZN2UI6Canvas27UpdateEventIndexesRecursiveERi
lv:__ZN7mecanim9animation18EvaluateRootMotionERKNS0_18ClipMuscleConstantERKNS0_15ClipMuscleInputEPKfS8_RNS0_12MotionOutputEb
AS:__ZN11UnityEngine15CloudWebService16SessionContainer21PrepareDataErrorEventERN4core12basic_stringIcNS2_20StringStorageDefaultIcEEEE
_6c:_ExecuteEvents_get_pointerUpHandler_m3515704212
Z$e:_ArrayList_set_Item_m2003485935
$Hj:__ZNSt3__218uninitialized_copyIPNS_4pairIK10KeyWrapperIPK19Il2CppGenericMethodEP10MethodInfoEESB_EET0_T_SD_SC_
trd:_SatelliteContractVersionAttribute__ctor_m3630863995
a6h:__ZL79Convert_t2465617642_CustomAttributesCacheGenerator_Convert_ToUInt64_m3102114524P21CustomAttributesCache
T8c:_MouseButtonEventData_PressedThisFrame_m1060658845
z4c:_AxisEventData_get_moveVector_m270528189
qzb:__Z19TransferField_ArrayI19StreamedBinaryWriteILb0EE27Converter_SimpleNativeClassI8GUIStyleEEvRK23StaticTransferFieldInfoR31RuntimeSerializationCommandInfoRT0_
gHh:_ReadOnlyCollection_1_System_Collections_Generic_IListU3CTU3E_RemoveAt_m3969985996_gshared
VSi:_SymmetricTransform_CFB_m1755507252
T2j:_emscripten_glCopyTexSubImage2D__wrapper
j7a:__ZNK13ScreenManager12GetIsFocusedEv
Qhd:_GraphicRegistry_GetGraphicsForCanvas_m4219276355
fhf:__ZN23InterfaceActionInvoker3IP22ByteU5BU5D_t4116647657iiE6InvokeEjP11Il2CppClassP12Il2CppObjectS1_ii
Vye:_NumberFormatter_FastToDecHex_m699829267
oFi:_PatternCompiler_MakeFlags_m1977119795
Kwc:__Z35Transfer_Blittable_FixedBufferFieldI8JSONReadiEvRK29SerializationCommandArgumentsR31RuntimeSerializationCommandInfo
gma:__ZN15SerializeTraitsIN9ShaderLab16FastPropertyNameEE8TransferI19StreamedBinaryWriteILb0EEEEvRS1_RT_
J0h:__ZL59StreamingContext_t3711869237_CustomAttributesCacheGeneratorP21CustomAttributesCache
afj:__ZNSt3__213__vector_baseIN6il2cpp2os19SocketHandleWrapperENS_9allocatorIS3_EEED2Ev
rUh:__ZL48_Type_t3588564251_CustomAttributesCacheGeneratorP21CustomAttributesCache
lri:__ZL81FontUpdateTracker_t1839077620_CustomAttributesCacheGenerator_U3CU3Ef__mgU24cache0P21CustomAttributesCache
fc:invoke_viiffi
IWh:__ZL103RegionInfo_t1090270226_CustomAttributesCacheGenerator_RegionInfo_t1090270226____NativeName_PropertyInfoP21CustomAttributesCache
w0b:__ZN13sorted_vectorINSt3__24pairIN4core12basic_stringIcNS2_20StringStorageDefaultIcEEEEPK17MessageIdentifierEEN10vector_mapIS6_S9_NS0_4lessIS6_EENS0_9allocatorISA_EEE13value_compareESF_E10insert_oneERKSA_
rC:__ZNSt3__227__insertion_sort_incompleteIRPFbPKN8Animator11AnimatorJobES4_EPS4_EEbT0_S9_T_
lS:__ZNSt3__26__treeINS_12__value_typeIN4core12basic_stringIcNS2_20StringStorageDefaultIcEEEEjEENS_19__map_value_compareIS6_S7_NS_4lessIS6_EELb1EEE13stl_allocatorIS7_L18MemLabelIdentifier88ELi16EEE4findIS6_EENS_15__tree_iteratorIS7_PNS_11__tree_nodeIS7_PvEEiEERKT_
Asc:__ZN5Unity9rapidjson13GenericReaderINS0_4UTF8IcEES3_13JSONAllocatorE10ParseFalseILj0ENS0_19GenericStringStreamIS3_EENS0_15GenericDocumentIS3_S4_S4_EEEEvRT0_RT1_
lhg:_Mathf_CeilToInt_m432108984
C2a:__ZNK12CubemapArray20GetRuntimeMemorySizeEv
gYf:_TimeSpan_FromHours_m1109641064
xka:__Z14resize_trimmedINSt3__26vectorIN9ShaderLab18SerializedPropertyENS0_9allocatorIS3_EEEEEvRT_j
iub:__Z18Transfer_BlittableI17RemapPPtrTransferLb0EN4math12int3_storageEEvRK29SerializationCommandArgumentsR31RuntimeSerializationCommandInfo
Aai:__ZL92StaticAccessorAttribute_t2432663902_CustomAttributesCacheGenerator_U3CNameU3Ek__BackingFieldP21CustomAttributesCache
H4d:_InternalEnumerator_1__ctor_m4124630986_gshared
zcj:__ZN6il2cpp2vm13MetadataCache38GetMethodInfoFromMethodDefinitionIndexEi
L5c:_EventSystem_set_current_m38955169
oDd:_TypeMetadata__ctor_m646635308
qEi:_CostDelegate_EndInvoke_m2797921932
h8a:__ZN10VertexData8TransferI24GenerateTypeTreeTransferEEvRT_
IEf:_Double_IsInfinity_m820013146
KGf:__ZN21InterfaceFuncInvoker1I19Decimal_t2948259380P12Il2CppObjectE6InvokeEjP11Il2CppClassS2_S2_
GHj:__ZN13Il2CppHashMapIPK19Il2CppGenericMethodP10MethodInfoN6il2cpp8metadata23Il2CppGenericMethodHashENS6_26Il2CppGenericMethodCompareENSt3__29allocatorINS9_4pairIK10KeyWrapperIS2_ES4_EEEEEC2EjRKS7_RKS8_
oMg:_List_1_TrimExcess_m440552561_gshared
Qng:_Screen_get_dpi_m495672463
JUf:_UTF8Encoding_InternalGetByteCount_m2120178851
oXb:__ZL10CullLightsRK22SceneCullingParametersR11CullResults
DJf:_Convert_ToUInt64_m3170916409
Mx:__ZN7mecanim12statemachine20GetBlendTreeConstantERKNS0_13StateConstantEi
mdf:_Int64_System_IConvertible_ToInt16_m4062196970_AdjustorThunk
vye:_MonoType_GetGenericTypeDefinition_m3201894896
W3b:__Z40GetTemporaryCachePathApplicationSpecificv
lqa:__ZN9GfxDevice16EndAsyncJobFrameEv
Eeh:__Z99RuntimeInvoker_Int32_t2950945753_Ray_t3785851493_RuntimeObject_Single_t1397266774_Int32_t2950945753PFvvEPK10MethodInfoPvPS4_
Wmj:__ZNK15dense_hashtableINSt3__24pairIK10KeyWrapperINS1_IPK12PropertyInfoP11Il2CppClassEEEjEES9_17ReflectionMapHashIS8_EN14dense_hash_mapIS9_jSD_NS9_14EqualsComparerINS0_8equal_toIS8_EEEENS0_9allocatorISB_EEE9SelectKeyESI_SK_E10test_emptyERK30dense_hashtable_const_iteratorISB_S9_SD_SM_SI_SK_E
EHc:_UNITY_tt_face_load_hhea
WK:__ZN12AudioManager27InitialCompleteDomainReloadEv
$k:___syscall3
cl:___syscall6
Ira:__ZN9GfxDevice15GetNextCPUFenceEv
el:___syscall4
zT:__ZN11UnityEngine15CloudWebService20WebRequestRestClient17GetResponseStatusEv
Cyd:_ReturnMessage__ctor_m2352989078
q0g:__Z99RuntimeInvoker_Void_t1185182177_RuntimeObject_Int32_t2950945753_SByte_t1669577662_SByte_t1669577662PFvvEPK10MethodInfoPvPS4_
rpb:__ZNSt3__26__treeINS_12__value_typeIN4core12basic_stringIcNS2_20StringStorageDefaultIcEEEEPN16MemoryFileSystem4NodeEEENS_19__map_value_compareIS6_SA_NS_4lessIS6_EELb1EEE13stl_allocatorISA_L18MemLabelIdentifier55ELi16EEE7destroyEPNS_11__tree_nodeISA_PvEE
HWe:_Array_GetLongLength_m561139708
QSh:__ZL70RuntimeArray_CustomAttributesCacheGenerator_Array_get_Length_m21610649P21CustomAttributesCache
uDj:__ZN6il2cpp2vm3RCW14QueryInterfaceILb1EEEP14Il2CppIUnknownP15Il2CppComObjectRK10Il2CppGuid
Ape:_TlsServerCertificateRequest__ctor_m1334974076
$zc:__ZN27PerformanceReportingManager23VirtualRedirectTransferER14SafeBinaryRead
BHf:_Convert_ToInt32_m1613163543
skh:__Z52RuntimeInvoker_TimeSpan_t881159249_Int32_t2950945753PFvvEPK10MethodInfoPvPS4_
TOd:_MatEntry__ctor_m1949610076
IGh:_ReadOnlyCollection_1_System_Collections_ICollection_CopyTo_m3127175806_gshared
tl:_emscripten_glShaderBinary
lii:__ZL80Logger_t274032455_CustomAttributesCacheGenerator_U3ClogEnabledU3Ek__BackingFieldP21CustomAttributesCache
NT:__ZN15DownloadHandler19OnFinishReceiveDataEv
e$f:_UInt16_ToString_m760649087
oob:__ZNK20LocalFileSystemPosix6ExistsERK13FileEntryData
Q5g:__Z21RuntimeInvoker_Guid_tPFvvEPK10MethodInfoPvPS4_
f8g:__Z46RuntimeInvoker_CipherAlgorithmType_t1174400495PFvvEPK10MethodInfoPvPS4_
obg:_Camera_GetAllCameras_m668492922
mXc:__Z58Register_UnityEngine_Canvas_GetETC1SupportedCanvasMaterialv
wYf:_TimeSpan_op_Inequality_m2467851530
PBb:__ZN17AnimationCurveTplIfE8TransferI18StreamedBinaryReadILb1EEEEvRT_
kxd:__ZN28GenericInterfaceFuncInvoker1IP12Il2CppObjectP23HeaderU5BU5D_t204812840E6InvokeEPK10MethodInfoS1_S3_
Mqh:_Array_Sort_TisUIVertex_t4057497605_m3996333845_gshared
Zlf:_ToBase64Transform_get_CanReuseTransform_m702204640
D$c:__ZN18UnityConnectClientD2Ev
zah:__Z53RuntimeInvoker_PropertyName_t3749835189_RuntimeObjectPFvvEPK10MethodInfoPvPS4_
bYe:_Swapper_BeginInvoke_m1688449973
Adg:_Display_get_renderingWidth_m1970428952
rUi:_U3CTimedTriggerU3Ec__Iterator0_MoveNext_m825792986
YQa:__ZN16LevelGameManager23VirtualRedirectTransferER19StreamedBinaryWriteILb0EE
j8g:__Z81RuntimeInvoker_Void_t1185182177_RuntimeObject_Int32_t2950945753_Int64_t3736567304PFvvEPK10MethodInfoPvPS4_
c8a:__Z32TransferEnumWithNameForceIntSizeI14SafeBinaryRead16GfxPrimitiveTypeEvRT_RT0_PKc17TransferMetaFlags
b1:__ZN13dynamic_arrayIcLj1EE6insertEPcPKcS3_
SYi:__ZL25UnresolvedVirtualCall_113P12Il2CppObjecttaaPK10MethodInfo
Fgi:__ZL92Mesh_t3648964284_CustomAttributesCacheGenerator_Mesh_SetTriangles_m2205169959____baseVertex3P21CustomAttributesCache
Yhh:__Z52RuntimeInvoker_Int32_t2950945753_HitInfo_t3229609740PFvvEPK10MethodInfoPvPS4_
r3g:__Z86RuntimeInvoker_Boolean_t97287965_Int16_t2552820387_Int16_t2552820387_Int32_t2950945753PFvvEPK10MethodInfoPvPS4_
z4h:__ZL80Convert_t2465617642_CustomAttributesCacheGenerator_Convert_ToBoolean_m2807110707P21CustomAttributesCache
ySh:__ZL72Enum_t4135868527_CustomAttributesCacheGenerator_Enum_GetName_m2151614395P21CustomAttributesCache
GOi:_IndexedSet_1_IndexOf_m241693686_gshared
iEh:_Collection_1_System_Collections_IList_Add_m1802516464_gshared
E_c:__ZN11UnityEngine15PlatformWrapper30GetGraphicsDriverLibraryStringEv
HEd:_RuntimeMethodHandle_Equals_m3301340296_AdjustorThunk
v0f:_UInt64_System_IConvertible_ToSingle_m925613075_AdjustorThunk
zXi:__ZL24UnresolvedVirtualCall_40P12Il2CppObjectS0_PK10MethodInfo
IPi:_ListPool_1__cctor_m704263611_gshared
jDb:__Z18Transfer_BlittableI18StreamedBinaryReadILb0EELb0E4AABBEvRK29SerializationCommandArgumentsR31RuntimeSerializationCommandInfo
uhb:__ZN24GenerateTypeTreeTransfer19TransferSTLStyleMapINSt3__28multimapIN4core12basic_stringIcNS3_20StringStorageDefaultIcEEEE4PPtrI6ObjectENS1_4lessIS7_EE13stl_allocatorINS1_4pairIKS7_SA_EEL18MemLabelIdentifier52ELi16EEEEEEvRT_17TransferMetaFlags
aE:__ZN16MecanimAnimation24DeleteAnimatedPropertiesERP26IAnimatedPropertyEvaluator
j3i:_CanvasRenderer_SetMaterial_m824577244
SNb:__Z14DrawGUITextureRK5RectTIfEP7Texture11ColorRGBA32P8Materiali
Lci:__ZL84RectOffset_t1369453676_CustomAttributesCacheGenerator_RectOffset_Cleanup_m2552807639P21CustomAttributesCache
cHh:_ReadOnlyCollection_1_System_Collections_Generic_ICollectionU3CTU3E_Add_m2686599243_gshared
dB:__ZN9BlobWrite8TransferI22OffsetPtrArrayTransferIKN4math7_float4EEEEvRT_PKc17TransferMetaFlags
IOb:__ZN22RenderingCommandBuffer20ExecuteCommandBufferER17ShaderPassContextR15RenderNodeQueuejP13dynamic_arrayINSt3__24pairIN9ShaderLab16FastPropertyNameEP13RenderTextureEELj4EE16ComputeQueueTypeSA_
hqg:_Transform_IsChildOf_m224006092
X_a:__ZN15TextureSettings8TransferI24GenerateTypeTreeTransferEEvRT_
twc:__ZN9JSONWrite8TransferI4AABBEEvRT_PKc17TransferMetaFlags
mPa:__ZN25MultiBlocksMemoryFileData9SetLengthEy
cKg:_List_1_Clear_m2154023298_gshared
SXi:__ZL24UnresolvedVirtualCall_59P12Il2CppObjectiPK10MethodInfo
u4c:_AbstractEventData_get_used_m2991176710
Weh:__Z94RuntimeInvoker_Void_t1185182177_ObjectU5BU5DU26_t712384779_Int32_t2950945753_Int32_t2950945753PFvvEPK10MethodInfoPvPS4_
Prh:_Dictionary_2_Do_ICollectionCopyTo_TisRuntimeObject_m1855083806_gshared
oTi:_Aes__ctor_m178909601
F3a:__ZNK9Texture2D20GetRuntimeMemorySizeEv
Fxd:_MethodCall_get_MethodSignature_m2407904958
zsc:__ZN5Unity9rapidjson13GenericReaderINS0_4UTF8IcEES3_13JSONAllocatorE9ParseTrueILj0ENS0_19GenericStringStreamIS3_EENS0_15GenericDocumentIS3_S4_S4_EEEEvRT0_RT1_
FRg:_List_1_Clear_m2003943277_gshared
Cm:_emscripten_glUniform2iv
DEg:_Enumerator_Dispose_m1204547613_AdjustorThunk
jCc:_UNITY_FT_Outline_Transform
Ene:_CipherSuite_get_ExchangeAlgorithmType_m1633709183
rai:__ZL118NativeMethodAttribute_t4187428193_CustomAttributesCacheGenerator_NativeMethodAttribute_set_HasExplicitThis_m2961870915P21CustomAttributesCache
G7i:__ZN6il2cpp2vm5Class10GetMethodsEP11Il2CppClassPPv
uDg:_EqualityComparer_1_System_Collections_IEqualityComparer_Equals_m477570191_gshared
g3c:__ZNK25UnityWebRequestJavaScript17GetUploadProgressEv
kTb:__Z30AddDefaultStreamsToMeshBuffersR9GfxDeviceR11MeshBuffersRK16DrawBuffersRange17ShaderChannelMaskS6_
XNg:_List_1_GetEnumerator_m1430071802_gshared
eDa:__ZN7ApiGLES17DeleteFramebufferERN2gl6HandleILNS0_10ObjectTypeE9EEES3_
JGa:__ZN15UniformTFMethod13MapBoneBufferEj
ISc:__ZN2UI14CanvasRendererD2Ev
wth:_Array_InternalArray__get_Item_TisParameterModifier_t1461694466_m29553316_gshared
Edf:_Int64_CompareTo_m1928360444_AdjustorThunk
qIb:__Z9SetupArgviPPKc
WHf:_Convert_ToInt64_m2075031821
akb:__ZN13dynamic_arrayIP10UnitySceneLj4EE9push_backERKS1_
p1d:_InternalEnumerator_1__ctor_m236665673_gshared
nUi:_AnalyticsEventTracker_OnDisable_m1553012800
L3j:_glTexParameteri__wrapper
u3:__ZN12ImmediatePtrI10GameObjectE8TransferI19StreamedBinaryWriteILb0EEEEvRT_
G2a:__ZN12CubemapArray23VirtualRedirectTransferER24GenerateTypeTreeTransfer
J1:__ZN12FileAccessor4OpenER15FileSystemEntry14FilePermission16FileAutoBehavior
MVa:__ZNSt3__26vectorI4PPtrI6ShaderE13stl_allocatorIS3_L18MemLabelIdentifier53ELi16EEE8__appendEj
tGj:__ZN6il2cpp2os9Directory6CreateERKNSt3__212basic_stringIcNS2_11char_traitsIcEENS2_9allocatorIcEEEEPi
nla:__ZN4PPtrI6ShaderE8TransferI18StreamedBinaryReadILb0EEEEvRT_
P6:__ZN23TransformChangeDispatch32QueueTransformChangeIfHasChangedERK15TransformAccess
O1a:__ZNSt3__26vectorINS_4pairIN9ShaderLab16FastPropertyNameEN18UnityPropertySheet11UnityTexEnvEEENS_9allocatorIS6_EEE21__push_back_slow_pathIKS6_EEvRT_
WOa:__ZN15ArchiveReadFile5WriteEyPKvPy
pBe:_Assembly_get_FullName_m293988418
uAc:__ZN27PerformanceReportingManager18ActiveSceneChangedEPS_P10UnitySceneS2_
B:tempValue
Y1b:__Z29StdTemplateConversionFunctionIaiEbPvR14SafeBinaryRead
HRj:__ZN6il2cpp8metadata24Il2CppGenericContextHash4HashEPK20Il2CppGenericContext
I1d:_InternalEnumerator_1_get_Current_m356936020_AdjustorThunk
s7c:_PhysicsRaycaster_ComputeRayAndDistance_m1226857851
Tcf:_Int32_ToString_m141394615_AdjustorThunk
a1e:_ArrayListWrapper_CopyTo_m498486826
a5e:_Directory_GetCurrentDirectory_m219218555
xUe:_SmallXmlParser_UnexpectedEndError_m1914362401
Gfi:__ZL87SpriteAtlas_t646931412_CustomAttributesCacheGenerator_SpriteAtlas_CanBindTo_m1041932703P21CustomAttributesCache
jy:__ZN26AnimatorControllerPlayable18DeallocateBindingsEv
o0h:__ZL61FormatterTypeStyle_t3400733584_CustomAttributesCacheGeneratorP21CustomAttributesCache
Wva:__ZN14DelayedDeletorI15dense_hashtableINSt3__24pairIK9TextureIDiEES3_14GfxGenericHashIS3_EN14GfxDoubleCacheIS3_iS7_NS1_8equal_toIS3_EEN31GfxDoubleCacheConcurrencyPolicy11LocklessGetE42GfxDoubleCacheDefaultEmptyDeletedGeneratorIS3_EE9SelectKeyESA_13stl_allocatorIS5_L18MemLabelIdentifier24ELi16EEEEclEv
b_i:__ZL25UnresolvedVirtualCall_178P12Il2CppObject22UILineInfo_t4195266810PK10MethodInfo
LN:__ZN11AudioSource19CreateOpenALRolloffEfff
yHc:_UNITY_FT_Stream_ReadAt
vXf:_TimeSpan__ctor_m1896986612_AdjustorThunk
Ibj:__ZN15dense_hashtableINSt3__24pairIK10KeyWrapperIN6il2cpp5utils13dynamic_arrayIPK10Il2CppTypeLj4EEEEPFvvEEESA_NS3_8metadata19Il2CppSignatureHashEN14dense_hash_mapISA_SD_SG_NSA_14EqualsComparerINSF_22Il2CppSignatureCompareEEENS0_9allocatorISE_EEE9SelectKeyESK_SM_E9set_valueEPSE_RKSE_
zSe:_ArgumentException__ctor_m1216717135
alg:_Ray_ToString_m1732834890_AdjustorThunk
rd:_glReadBuffer
sPg:_List_1_System_Collections_IList_Contains_m3860993176_gshared
zO:__ZN11AudioModule22CreateAudioClipFromWWWEP10IWWWStreamPKcbbi
X8b:__ZN9Texture2DC2E10MemLabelId18ObjectCreationMode
Xi:_emscripten_glRotatef
i$f:_UInt32_System_IConvertible_ToBoolean_m1763673183_AdjustorThunk
Reg:_UnityEvent_AddListener_m2276267359
QUc:__Z13RegisterClassIN2UI11CanvasGroupEEvv
e9g:__Z35RuntimeInvoker_RangeInt_t2094684618PFvvEPK10MethodInfoPvPS4_
b4b:__ZN6prcoreL11inner_clearILj4EEEvPhjjj
tf:_emscripten_glClear
Cxd:_MethodCall_get_Args_m148309537
eyd:_DictionaryEnumerator_get_Value_m2166220004
h0i:_PCMReaderCallback_BeginInvoke_m3391809637
L6h:__ZL72LoaderOptimization_t1484956347_CustomAttributesCacheGenerator_DomainMaskP21CustomAttributesCache
QZg:__Z74RuntimeInvoker_Void_t1185182177_RuntimeObject_StreamingContext_t3711869237PFvvEPK10MethodInfoPvPS4_
mNj:_GC_initialize_offsets
Gea:__ZNK8Playable6HandleEv
NJd:_SetPropertyUtility_SetColor_m2229203028
mXj:___cxa_guard_abort
O$:__ZN14MessageHandler28MessageIDToMessageIdentifierEi
D8a:__ZNK11SpriteAtlas20GetRuntimeRenderDataEPK6Sprite
pff:_FileSystemInfo__ctor_m3035148496
Q9f:_AssetBundleCreateRequest_t3119663542_marshal_pinvoke_cleanup
kcf:_Int32_System_IConvertible_ToDecimal_m2190376994_AdjustorThunk
fFg:_KeyValuePair_2_set_Key_m2121548577_AdjustorThunk
Skh:__Z46RuntimeInvoker_RefEmitPermissionSet_t484390987PFvvEPK10MethodInfoPvPS4_
Dah:__Z57RuntimeInvoker_PropertyName_t3749835189_Int32_t2950945753PFvvEPK10MethodInfoPvPS4_
aPc:__ZN20TextRenderingPrivate15DynamicFontData36GetFaceForCharacterIfAvailableInFontERKNS_7FontRefERK13dynamic_arrayI4PPtrIN13TextRendering4FontEELj4EEj
fw:__ZN7mecanim14ValueArrayCopyILb0EEEvPKNS_10ValueArrayEPS1_
qF:__Z51Register_UnityEngine_Animator_get_hasBoundPlayablesv
byh:_Collection_1_CopyTo_m3142835220_gshared
Jd:emscriptenWebGLGetUniform
Do:FUNCTION_TABLE_iiiiiiiiiii
BQi:_GUI_CallWindowDelegate_m3309453386
Tsg:_ValueCollection_System_Collections_IEnumerable_GetEnumerator_m2535969909_gshared
RFc:_cff_set_mm_blend
XLb:__ZN19GfxThreadableDevice15OnDeviceCreatedEb
WYb:__ZL10CleanUpJobP20CullingGroupsJobData
jTb:__Z20IsRunningNativeTestsv
mff:_DirectoryInfo_get_Exists_m3142069876
Veb:__ZN11TimeManager23VirtualRedirectTransferER17RemapPPtrTransfer
JNb:__ZN13RenderManager15BatchModeUpdateEv
pPh:_Predicate_1__ctor_m327447107_gshared
UNe:_X509Chain_get_CertificateAuthorities_m804805415
N7a:__ZN14SafeBinaryRead21TransferSTLStyleArrayI13dynamic_arrayI8Vector2fLj4EEEEvRT_17TransferMetaFlags
EXh:__ZL123GenericTypeParameterBuilder_t1988827940_CustomAttributesCacheGenerator_GenericTypeParameterBuilder_IsSubclassOf_m2266644074P21CustomAttributesCache
x3:__ZN17PersistentManager51InstanceIDToLocalSerializedObjectIdentifierInternalEiR31LocalSerializedObjectIdentifier
eng:_Vector2_get_one_m738793577
Qdc:__ZNK4Mesh14GetIndexFormatEv
pEg:_GenericEqualityComparer_1__ctor_m4072188982_gshared
EKi:_UriParser_set_DefaultPort_m4007715058
MCj:__ZN14dense_hash_mapI10KeyWrapperIP12Il2CppObjectEN6il2cpp2gc9CachedCCWENS4_5utils11PointerHashIS1_EENS3_14EqualsComparerINSt3__28equal_toIS2_EEEENSB_9allocatorINSB_4pairIKS3_S6_EEEEE13set_empty_keyERSH_
rVi:_FieldWithTarget__ctor_m583221563
md:_glVertexAttribIPointer
fTf:_StringBuilder_ToString_m3317489284
xCa:__ZN13dynamic_arrayI21ComputeShaderResourceLj4EE9push_backERKS0_
bec:__ZNK6Sprite10GetPaddingE20SpriteRenderDataMode
fvf:_Array_InternalArray__ICollection_Remove_TisUInt32_t2560061978_m733727733_gshared
WFd:_CryptographicException__ctor_m503735289
Pwd:_ConstructionCall_get_CallSiteActivationAttributes_m3498917408
xgf:_Stream_EndRead_m1896469262
hXg:__Z93RuntimeInvoker_Boolean_t97287965_Int32_t2950945753_SByte_t1669577662_ExceptionU26_t3600731591PFvvEPK10MethodInfoPvPS4_
eRb:__ZN14qsort_internal5QSortIP15RODataDepthPassi17ROSorterDepthPassEEvT_S4_T0_T1_
iIc:_UNITY_ft_glyphslot_alloc_bitmap
aFh:_ReadOnlyCollection_1_System_Collections_IList_Add_m3642938800_gshared
_se:_RSASslSignatureDeformatter_SetHashAlgorithm_m895570787
GCi:_X509CrlEntry__ctor_m4013514048
vaj:__ZN15dense_hashtableI10KeyWrapperIPK17Il2CppGenericInstES4_N6il2cpp8metadata21Il2CppGenericInstHashEN14dense_hash_setIS4_S7_NS4_14EqualsComparerINS6_24Il2CppGenericInstCompareEEENSt3__29allocatorIS4_EEE8IdentityESB_SE_E16reset_thresholdsEv
iah:__Z87RuntimeInvoker_Color_t2555686324_Color_t2555686324_Color_t2555686324_Single_t1397266774PFvvEPK10MethodInfoPvPS4_
bNc:_ft_raster1_render
Ulc:__Z57Register_UnityEngine_RectTransform_INTERNAL_set_anchorMaxv
yqa:__ZN9GfxDevice27UpdateComputeSkinPoseBufferEP9GfxBufferP12SkinMeshInfo
SHg:_Enumerator_get_Current_m3382684163_AdjustorThunk
dZd:_InternalEnumerator_1_System_Collections_IEnumerator_Reset_m3677481164_AdjustorThunk
YVj:__ZNKSt3__221__basic_string_commonILb1EE20__throw_length_errorEv
xBg:_EqualityComparer_1_System_Collections_IEqualityComparer_Equals_m245992594_gshared
_4g:__Z52RuntimeInvoker_UInt64_t4134040092_Single_t1397266774PFvvEPK10MethodInfoPvPS4_
Ryf:_Array_InternalArray__IndexOf_TisParameterModifier_t1461694466_m1227120810_gshared
hEa:__ZN18GfxFramebufferGLES13ReadbackImageER14ImageReferenceiiiiii
btc:__ZN5Unity9rapidjson6WriterI16TempBufferWriterNS0_4UTF8IcEES4_13JSONAllocatorE11WriteStringEPKcj
aEd:_SerializationInfo_SetType_m3923964808
Kza:__ZN6prcoreL12RemapGenericI17TexFormatARGB888815TexFormatRGB565EEvPKNS_9InnerInfoE
nJ:__ZN4FMOD7Channel19setReverbPropertiesEPK29FMOD_REVERB_CHANNELPROPERTIES
kVi:_StandardEventPayload_GetParameters_m2672427676
Kif:_StreamReader_Dispose_m156389394
y_:__ZN13MonoBehaviour22GetScriptFullClassNameEv
_sj:_il2cpp_object_get_class
Slf:_SymmetricAlgorithm_get_Padding_m1011382560
Y5b:__ZN13ProduceHelperI11MonoManagerLb0EE7ProduceE10MemLabelId18ObjectCreationMode
ejf:_RIPEMD160Managed_JJ_m112143231
CQb:__ZN13BatchRendererC2ER15RenderLoopStatsRK15RenderNodeQueuebb
E8d:_Comparer_1__ctor_m191896560_gshared
W3f:_PreviousInfo_t2148130204_marshal_pinvoke_back
ipb:__ZNK16MemoryFileSystem9EnumerateEPKcP19dynamic_block_arrayI13FileEntryInfoLj32EEbPPv19FileEnumerationFlag
oGb:__ZN13MonoBehaviour9CallAwakeEv
zZa:__ZN20SphericalHarmonicsL211AddWeightedERKS_f
j_g:__Z82RuntimeInvoker_RuntimeObject_Int64_t3736567304_Int64_t3736567304_Int64_t3736567304PFvvEPK10MethodInfoPvPS4_
vvb:__Z19TransferField_ArrayI17RemapPPtrTransfer27Converter_SimpleNativeClassI8GUIStyleEEvRK23StaticTransferFieldInfoR31RuntimeSerializationCommandInfoRT0_
eha:__ZL22StaticInitializeShaderPv
Ntc:__ZN9JSONWrite8TransferI10ColorRGBAfEEvRT_PKc17TransferMetaFlags
k5d:_InternalEnumerator_1__ctor_m3913006324_AdjustorThunk
I$:__Z25scripting_method_get_name18ScriptingMethodPtr
jte:_SslCipherSuite_ComputeKeys_m661027754
N5d:_InternalEnumerator_1__ctor_m3322594868_gshared
ijg:_Object_set_name_m291480324
wEf:_Convert_ToBoolean_m481380807
DNf:_Decimal_Equals_m2486655999
oNj:_GC_exit_check
bCe:_AssemblyName_SetPublicKeyToken_m582470133
wah:__Z52RuntimeInvoker_Boolean_t97287965_HitInfo_t3229609740PFvvEPK10MethodInfoPvPS4_
rM:__ZNK4PPtrI9AudioClipEcvPS0_Ev
nZ:__Z20UnlockObjectCreationv
qNh:__ZN16VirtFuncInvoker2Ii19Color32_t2600501292S0_E6InvokeEjP12Il2CppObjectS0_S0_
Wnd:_MonoField_ToString_m2518484388
K6f:_DSAManaged_get_Random_m923751780
wfe:_Transform_1_Invoke_m2385719192_gshared
qrg:_Vector3_set_Item_m1772472431_AdjustorThunk
NQe:_Interpreter_PopulateGroup_m4042796257
psb:__ZN15SerializeTraitsI13dynamic_arrayIyLj8EEE19ResizeSTLStyleArrayERS1_i
DZf:_Type_GetProperty_m3414567179
qyj:__ZN6il2cpp2vm13LivenessState25FieldCanContainReferencesEP9FieldInfo
O0b:__ZNSt3__26vectorINS_4pairIN4core12basic_stringIcNS2_20StringStorageDefaultIcEEEES6_EE13stl_allocatorIS7_L18MemLabelIdentifier38ELi16EEE6insertENS_11__wrap_iterIPKS7_EERSD_
qfg:_RenderPipelineManager_DoRenderLoop_Internal_m3799666479
bei:__ZL78Sprite_t280657092_CustomAttributesCacheGenerator_Sprite_get_packed_m1179604684P21CustomAttributesCache
WA:__ZN9BlobWrite8TransferI22OffsetPtrArrayTransferI9OffsetPtrIN7mecanim12statemachine18StateMachineMemoryEEEEEvRT_PKc17TransferMetaFlags
yZ:__ZN4core8hash_mapIiP6ObjectNS_4hashIiEENSt3__28equal_toIiEEE4growEi
kf:_emscripten_glStencilOpSeparate
Yzh:_Collection_1_System_Collections_IList_IndexOf_m3894953546_gshared
vIe:_NameObjectCollectionBase_Init_m2525481323
Yqh:_Array_swap_TisBoolean_t97287965_m2293774148_gshared
qJg:_List_1_Insert_m1582252370_gshared
$Ij:__ZN6il2cpp2vm6String8NewUtf16EPKDsi
TEd:_SByte_System_IConvertible_ToByte_m2268214252_AdjustorThunk
QFj:__ZN6il2cpp2os10ThreadImpl12QueueUserAPCEPFvPvES2_
cG:__Z32TransferEnumWithNameForceIntSizeI14SafeBinaryReadN10SampleClip17CompressionFormatEEvRT_RT0_PKc17TransferMetaFlags
VIi:_RegularExpression__ctor_m119502265
o$c:__ZN22BaseUnityConnectClient10QueueEventERN11UnityEngine15CloudWebService17CloudServiceEventEPKcjb
dHh:_ReadOnlyCollection_1_System_Collections_Generic_ICollectionU3CTU3E_Clear_m522482168_gshared
jEe:_DerivedType_IsByRefImpl_m2585680005
H0a:__ZN13dynamic_arrayI11ShaderTagIDLj4EE9push_backERKS0_
Rwd:_ConstructionCall_InitMethodProperty_m2021094586
_Kc:_UNITY_FT_Hypot
vZd:_InternalEnumerator_1__ctor_m2636293838_gshared
kji:__ZL95TextGenerator_t3211863866_CustomAttributesCacheGenerator_TextGenerator_get_lineCount_m916872812P21CustomAttributesCache
uui:__ZL74CanvasScaler_t2767979955_CustomAttributesCacheGenerator_m_DefaultSpriteDPIP21CustomAttributesCache
lsj:_il2cpp_class_is_abstract
Df:_emscripten_glGetError
poj:__ZN15dense_hashtableINSt3__24pairIK10KeyWrapperIPK14Il2CppAssemblyEPK22Il2CppMonoAssemblyNameEES6_N6il2cpp5utils11PointerHashIS4_EEN14dense_hash_mapIS6_SA_SF_NS6_14EqualsComparerINS0_8equal_toIS5_EEEENS0_9allocatorISB_EEE9SelectKeyESK_SM_E14squash_deletedEv
_J:__Z14FMOD_FILE_SeekPvjS_
mPd:_MaskableGraphic_OnDisable_m1757789159
j_a:__ZN7TextureC2E10MemLabelId18ObjectCreationMode
bNd:_LayoutGroup__ctor_m2162961217
PYc:__Z56Register_UnityEngine_Analytics_CustomEventData_AddStringv
t1f:_ValueType_t3640485471_marshal_pinvoke_cleanup
XZb:__ZNK13RenderTexture32CalculateNeedsInvertedProjectionEv
Y2b:__ZN10systeminfo18GetOperatingSystemEv
Lf:emscriptenWebGLGet
Zaa:__Z19CanReplaceComponentRN5Unity9ComponentEPKNS_4TypeEPN4core12basic_stringIcNS5_20StringStorageDefaultIcEEEE
Lve:_UnmanagedMemoryStream_Flush_m1540584491
Pyh:_Collection_1_GetEnumerator_m3986802482_gshared
iaf:_GuidParser_ParseGuid2_m1914838819
Q8b:__ZN12CubemapArray11InitTextureEiii13TextureFormatb
KMg:_List_1_System_Collections_IList_get_Item_m1112579679_gshared
DIf:_Convert_ToSingle_m3983149863
iYd:_InternalEnumerator_1_System_Collections_IEnumerator_get_Current_m55999184_gshared
NOe:_X509CertificateEnumerator_get_Current_m364341970
Bsg:_ValueCollection_System_Collections_Generic_ICollectionU3CTValueU3E_Contains_m1842955046_gshared
dlj:__ZN24dense_hashtable_iteratorINSt3__24pairIK10KeyWrapperIPK10Il2CppTypeEjEES6_N6il2cpp8metadata14Il2CppTypeHashEN14dense_hash_mapIS6_jSB_NS6_14EqualsComparerINSA_26Il2CppTypeEqualityComparerEEENS0_9allocatorIS8_EEE9SelectKeyESF_SH_E30advance_past_empty_and_deletedEv
Rgd:_Graphic_get_depth_m815589653
dQi:_Event_set_displayIndex_m1342258734
Ucd:_ContentSizeFitter_get_horizontalFit_m2773126143
TOi:_U3CStartU3Ec__Iterator0__ctor_m2366347741_gshared
DB:__ZN7mecanim5human13HumanFixTwistEPKNS0_5HumanEPNS_8skeleton13SkeletonPoseTIN4math4trsXEEES9_iiRKf
VTb:__ZL24AssignProjectorQueuesJobP30AssignProjectorQueuesJobHeader
Hwg:_KeyValuePair_2_get_Key_m1218836954_gshared
Opd:_ParameterModifier_t1461694466_marshal_pinvoke
Pbj:__ZN15dense_hashtableINSt3__24pairIK10KeyWrapperIN6il2cpp5utils13dynamic_arrayIPK10Il2CppTypeLj4EEEEPFvvEEESA_NS3_8metadata19Il2CppSignatureHashEN14dense_hash_mapISA_SD_SG_NSA_14EqualsComparerINSF_22Il2CppSignatureCompareEEENS0_9allocatorISE_EEE9SelectKeyESK_SM_E4swapERSP_
tbf:_Int16_System_IConvertible_ToUInt32_m3410279543
Dna:__ZN9ShaderLab20SerializedSubProgram14SetConstBufferEPKci
Kij:__ZN6il2cpp2os4File5CloseEPNS0_10FileHandleEPi
obj:__ZNSt3__27__sort5IRN6il2cpp5utils11collections13ArrayValueMapIPK10Il2CppType17Il2CppInteropData26InteropDataToTypeConverterNS1_8metadata14Il2CppTypeLessENSA_26Il2CppTypeEqualityComparerEE12SortComparerEPS8_EEjT0_SH_SH_SH_SH_T_
epg:_Touch_get_fingerId_m859576425_AdjustorThunk
pgh:__Z48RuntimeInvoker_Boolean_t97287965_Link_t544317964PFvvEPK10MethodInfoPvPS4_
HPd:_Navigation_get_selectOnDown_m1912812616_AdjustorThunk
sOg:_List_1_System_Collections_ICollection_CopyTo_m2688165607_gshared
Zfh:__Z53RuntimeInvoker_UIVertex_t4057497605_Int32_t2950945753PFvvEPK10MethodInfoPvPS4_
O_f:_UInt16_CompareTo_m2664746316_AdjustorThunk
Ksg:_ValueCollection_GetEnumerator_m616748621_gshared
rX:__Z40DebugStringToFilePostprocessedStacktraceRK21DebugStringToFileData
zyc:__Z29Transfer_Blittable_ArrayFieldI8JSONReadjEvRT_R9ArrayInfoRK23StaticTransferFieldInfo
WKh:_ReadOnlyCollection_1_get_Item_m679165083_gshared
uNj:_GC_check_finalizer_nested
rg:__setLetterbox
$1a:__ZNSt3__26__treeINS_12__value_typeIN9ShaderLab16FastPropertyNameEfEENS_19__map_value_compareIS3_S4_NS_4lessIS3_EELb1EEENS_9allocatorIS4_EEE12__find_equalIS3_EERPNS_16__tree_node_baseIPvEENS_21__tree_const_iteratorIS4_PNS_11__tree_nodeIS4_SE_EEiEESH_RKT_
oTd:_ScrollRect_OnScroll_m3861066534
Ttf:_Array_InternalArray__ICollection_Contains_TisResourceCacheItem_t51292791_m2991582559_gshared
Kii:__ZL72FormerlySerializedAsAttribute_t2859083114_CustomAttributesCacheGeneratorP21CustomAttributesCache
ssc:__ZN8JSONRead32GetValueForKeyWithNameConversionEPKN5Unity9rapidjson12GenericValueINS1_4UTF8IcEE13JSONAllocatorEEPKc
KFi:_PatternCompiler_EmitFastRepeat_m3012952683
ibb:__ZNSt3__26vectorI17BlendShapeChannelNS_9allocatorIS1_EEE6assignINS_11__wrap_iterIPS1_EEEENS_9enable_ifIXaasr21__is_forward_iteratorIT_EE5valuesr16is_constructibleIS1_NS_15iterator_traitsISA_E9referenceEEE5valueEvE4typeESA_SA_
R2b:__ZN11TimeManager11GetRealtimeEv
Uci:__ZL91RectOffset_t1369453676_CustomAttributesCacheGenerator_RectOffset_get_horizontal_m2663785949P21CustomAttributesCache
kjg:_Object_GetHashCode_m1944636947
gff:_BinaryReader_ReadUInt32_m2210658763
sK:__ZN29AudioEffectInternalDefinitionC2EP26UnityAudioEffectDefinitionb
PLh:_ReadOnlyCollection_1_System_Collections_IList_Remove_m2434650390_gshared
f$f:_UInt16_ToString_m3056878594_AdjustorThunk
ID:__ZN4PPtrI6AvatarE8TransferI18StreamedBinaryReadILb0EEEEvRT_
Axg:_Dictionary_2_System_Collections_Generic_ICollectionU3CSystem_Collections_Generic_KeyValuePairU3CTKeyU2CTValueU3EU3E_Contains_m2803718146_gshared
JQj:__ZN6il2cpp2os9FastMutexD2Ev
VUi:_EventTrigger_set_repeatTime_m1188543944
KRe:_Interval_get_IsSingleton_m3386290029
Grj:__ZNSt3__2plIcNS_11char_traitsIcEENS_9allocatorIcEEEENS_12basic_stringIT_T0_T1_EERKS9_PKS6_
apg:_Time_get_unscaledDeltaTime_m4270080131
Lcb:__ZN4Mesh14GetMeshBuffersER11MeshBuffers17ShaderChannelMaskPS_b
jvg:_Dictionary_2_pick_key_m3282382413_gshared
Wkf:_SHA384Managed__ctor_m3220477113
Jya:_stbir_resize
cyf:_Array_IndexOf_TisCustomAttributeTypedArgument_t2723150157_m3158556463_gshared
ZAg:_EqualityComparer_1_System_Collections_IEqualityComparer_GetHashCode_m360549782_gshared
A4e:_Environment_GetOSVersionString_m407782784
Zsf:_DecoderExceptionFallback_Equals_m1082173956
WCg:_EqualityComparer_1_System_Collections_IEqualityComparer_GetHashCode_m345188086_gshared
kYh:__ZL69Assembly_t_CustomAttributesCacheGenerator_Assembly_GetName_m981771927P21CustomAttributesCache
ygi:__ZL93Mesh_t3648964284_CustomAttributesCacheGenerator_Mesh_GetAllocArrayFromChannelImpl_m3084065604P21CustomAttributesCache
rcb:__ZN4PPtrI4MeshE8TransferI14SafeBinaryReadEEvRT_
sPa:__Z37ReadDirectoryInfo_UnityWebAndUnityRawR12FileAccessorRKN20ArchiveStorageHeader6HeaderERNS1_13DirectoryInfoE
eBi:_PKCS12_get_Keys_m3893933360
gaa:__ZNSt3__26__treeINS_12__value_typeIPKciEENS_19__map_value_compareIS3_S4_15compare_tstringIS3_ELb1EEENS_9allocatorIS4_EEE7destroyEPNS_11__tree_nodeIS4_PvEE
hCf:_Array_InternalArray__Insert_TisIntPtr_t_m189626842_gshared
ZMe:_X509Certificate2_get_IssuerName_m1277209535
V1f:_Locale_GetText_m3374010885
wDh:_Collection_1_System_Collections_IEnumerable_GetEnumerator_m1598238343_gshared
LDi:_RijndaelManaged_CreateEncryptor_m263736311
cXf:_WaitCallback__ctor_m1893321019
cRb:__ZN20DynamicPropertySheet14SetValueQueuedEN9ShaderLab16FastPropertyNameEN19ShaderPropertySheet12PropertyTypeEjNS2_8SetFlagsE
wTc:__ZN2UI6Canvas26MarkAllNestedCanvasesDirtyEv
weg:_InvokableCallList_ClearPersistent_m1904264973
QHb:__ZN25PathNamePersistentManagerD2Ev
gZ:__ZN17PersistentManager48IntegrateObjectAndUnlockIntegrationMutexInternalEi
Vga:__ZZ29InitializeSortingGroupManagerPvEN44PostLateUpdateSortingGroupsUpdateRegistrator7ForwardEv
boi:__ZL55EventTrigger_t1076084509_CustomAttributesCacheGeneratorP21CustomAttributesCache
Cof:_SecurityElement_SearchForChildByTag_m900466299
xp:__ZN6Object12SetHideFlagsENS_9HideFlagsE
wIf:_Convert_ToSingle_m3227075028
H0j:_emscripten_glGetFramebufferAttachmentParameteriv__wrapper
mOb:__ZN13RendererScene15InitializeUmbraEv
zge:__ZN21InterfaceFuncInvoker2I26KeyValuePair_2_t2401056908P12Il2CppObjectiE6InvokeEjP11Il2CppClassS2_S2_i
pYa:__Z28CalculateGlobalMatrixInverse23TransformAccessReadOnly
zig:_MonoBehaviour__ctor_m1579109191
dmi:__ZL59GUITargetAttribute_t25796337_CustomAttributesCacheGeneratorP21CustomAttributesCache
cEg:_GenericEqualityComparer_1_Equals_m3457564127_gshared
Qie:_BigInteger_ModInverse_m2426215562
$Zd:_InternalEnumerator_1_System_Collections_IEnumerator_Reset_m2386791007_AdjustorThunk
Xsf:_DecoderExceptionFallback__ctor_m4044614564
T$d:_InternalEnumerator_1_System_Collections_IEnumerator_Reset_m3011999097_AdjustorThunk
Hvj:__ZN6il2cpp2vm6Thread17FullMemoryBarrierEv
Qve:_LocalDataStoreSlot__cctor_m644942532
FRj:__ZN6il2cpp6icalls8mscorlib6System6Object7GetTypeEP12Il2CppObject
Lod:_MonoProperty_CachePropertyInfo_m2968057423
y_c:__ZN11UnityEngine15PlatformWrapper18GetWin8ScalingModeEv
f3c:__ZNK25UnityWebRequestJavaScript18GetDownloadedBytesEv
_kg:_Ray_GetPoint_m1852405345_AdjustorThunk
DWh:__ZL53RegionInfo_t1090270226_CustomAttributesCacheGeneratorP21CustomAttributesCache
Emi:__ZL85Canvas_t3310196443_CustomAttributesCacheGenerator_Canvas_get_sortingOrder_m1860900812P21CustomAttributesCache
UEh:_ReadOnlyCollection_1_System_Collections_Generic_IListU3CTU3E_Insert_m3798411681_gshared
UGb:__Z23scripting_class_is_enum17ScriptingClassPtr
Z2c:__ZN12HeaderHelper14SetUnvalidatedERKN4core12basic_stringIcNS0_20StringStorageDefaultIcEEEES6_b
pG:__ZN4FMOD6SoundI7releaseEv
Vcb:__ZN14SpriteRenderer13AwakeFromLoadE17AwakeFromLoadMode
DEc:_cff_parse_num
WPa:__ZN10MemoryFile9SetLengthEy
Axb:__ZN5RectTIiE8TransferI24GenerateTypeTreeTransferEEvRT_
v5a:__ZN14SafeBinaryRead21TransferSTLStyleArrayI13dynamic_arrayI7Hash128Lj8EEEEvRT_17TransferMetaFlags
SGb:__Z28scripting_class_is_interface17ScriptingClassPtr
Ih:_glTexStorage2D
fpd:_MonoProperty_GetOptionalCustomModifiers_m62958967
fna:__ZNK9ShaderLab10SubProgram14EnsureCompiledEv
aHe:_MethodBuilder_GetGenericArguments_m1765425737
bLf:_DateTime_CompareTo_m3687348273
jMj:_GC_push_marked
ALf:_DateTime_ToUniversalTime_m1945318289_AdjustorThunk
w6d:_InternalEnumerator_1_MoveNext_m1262669372_gshared
FPf:_Enum_t4135868527_marshal_pinvoke
y$:__Z18BuildScriptClassId17ScriptingClassPtr
P1i:_TextGenerator_Init_m1168488231
g8f:_RSAManaged_Finalize_m3915335854
Bq:__ZNK16LevelGameManager7GetNameEv
uNa:__ZL31DeleteLastPathNameComponentImplRKN4core12basic_stringIcNS_20StringStorageDefaultIcEEEEPKc
V4b:__Z13RegisterClassI18DelayedCallManagerEvv
G$c:__ZN18UnityConnectClient15GetCloudServiceEv
Jvb:__Z18Transfer_BlittableI24GenerateTypeTreeTransferLb0EiEvRK29SerializationCommandArgumentsR31RuntimeSerializationCommandInfo
H0d:_InternalEnumerator_1_get_Current_m2698009637_gshared
Wej:__ZN6il2cpp2os19SocketHandleWrapperD2Ev
Nhe:_Enumerator_System_Collections_IEnumerator_Reset_m278261807_gshared
LGb:__ZL28SerializationCommandGroupForRK31TransferFunctionScriptingTraits17ScriptingClassPtr17ScriptingFieldPtrRK20CoreScriptingClasses
ASa:__ZN10TagManager32RegisterDefaultTagsAndLayerMasksEv
pXf:_WaitHandle_Dispose_m738127030
rSg:_List_1_System_Collections_IList_get_IsReadOnly_m1729002068_gshared
n4g:__Z50RuntimeInvoker_Double_t594665363_Int32_t2950945753PFvvEPK10MethodInfoPvPS4_
sPh:_Predicate_1_EndInvoke_m1490920825_gshared
M6h:__ZL78LoaderOptimization_t1484956347_CustomAttributesCacheGenerator_DisallowBindingsP21CustomAttributesCache
Bxg:_Dictionary_2_System_Collections_Generic_ICollectionU3CSystem_Collections_Generic_KeyValuePairU3CTKeyU2CTValueU3EU3E_CopyTo_m3122240003_gshared
_ch:__Z104RuntimeInvoker_Void_t1185182177_Color_t2555686324_Single_t1397266774_SByte_t1669577662_SByte_t1669577662PFvvEPK10MethodInfoPvPS4_
RRg:_List_1_Remove_m3853969205_gshared
gIg:_Enumerator_System_Collections_IEnumerator_get_Current_m1540440674_gshared
xpf:_Single_System_IConvertible_ToInt16_m809233024_AdjustorThunk
XYc:__Z56Register_UnityEngine_Analytics_CustomEventData_AddUInt32v
kUj:_fmodf
dJd:_InputField_UpdateLabel_m1837760870
Yua:__ZN4gles8InitCapsEP7ApiGLESP12GraphicsCapsR16GfxDeviceLevelGL
bza:__ZN6prcore14BlitImageFloatERK14ImageReferenceRS0_NS0_8BlitModeE
VXa:__Z24CalculateVertexLightDataRK15SharedLightDataR14GfxVertexLight
qi:_glEnable
S4b:__Z13RegisterClassI13BuildSettingsEvv
o3d:_InternalEnumerator_1_MoveNext_m973048327_gshared
Zma:__ZNK9ShaderLab7Program28BeginReadUnsupportedVariantsEv
z6:__ZN12CachedWriter11Align4WriteEv
bib:__ZNSt3__26vectorIN30RuntimeInitializeOnLoadManager9ClassInfoE13stl_allocatorIS2_L18MemLabelIdentifier13ELi16EEE7reserveEj
_tc:__Z35Transfer_Blittable_FixedBufferFieldI9JSONWriteiEvRK29SerializationCommandArgumentsR31RuntimeSerializationCommandInfo
G4i:_HumanBone_t2465339518_marshal_pinvoke_cleanup
sEg:_Enumerator__ctor_m1590062855_AdjustorThunk
npj:__ZN14dense_hash_mapI10KeyWrapperINSt3__24pairIPK10MethodInfoP11Il2CppClassEEEj17ReflectionMapHashIS8_ENS9_14EqualsComparerINS1_8equal_toIS8_EEEENS1_9allocatorINS2_IKS9_jEEEEEC2EjRKSB_RKSF_
by:__ZN26AnimatorControllerPlayable17ProcessRootMotionEP35AnimationPlayableEvaluationConstantP32AnimationPlayableEvaluationInputP33AnimationPlayableEvaluationOutput
f0h:__ZL54SoapServices_t133988723_CustomAttributesCacheGeneratorP21CustomAttributesCache
ove:_UnexceptionalStreamReader_Peek_m1842169584
b_c:__ZN11UnityEngine7Connect15DeviceInfoEvent16CollectExtraInfoEv
ksg:_TypeInferenceRuleAttribute__ctor_m2736695831
tag:_Bounds_GetHashCode_m1844059663_AdjustorThunk
lGd:_CryptographicException__ctor_m1422015889
Org:_Vector4_Equals_m1779210055_AdjustorThunk
FJf:_Convert_ChangeType_m739676612
uVj:_atoi
pcf:_Int32_System_IConvertible_ToInt32_m265310525_AdjustorThunk
vVj:_atol
lKj:__ZThn8_N6il2cpp2vm13CachedCCWBaseINS0_13ManagedObjectEE6AddRefEv
Rme:_Alert_GetAlertMessage_m1942367141
pFh:_ReadOnlyCollection_1_GetEnumerator_m3690861713_gshared
Cti:__ZL88Selectable_t3250028441_CustomAttributesCacheGenerator_U3CisPointerDownU3Ek__BackingFieldP21CustomAttributesCache
Vyd:_RemotingServices_GetRealProxy_m2081098851
r6f:_BlockProcessor_Core_m189015002
P9i:__ZN15dense_hashtableINSt3__24pairIK10KeyWrapperIPKcEP11Il2CppClassEES5_N6il2cpp5utils11StringUtils12StringHasherIS4_EEN14dense_hash_mapIS5_S8_SE_NS5_14EqualsComparerINSB_13VmStringUtils21CaseSensitiveComparerEEENS0_9allocatorIS9_EEE9SelectKeyESJ_SL_EC2EjRKSE_RKSJ_RKSN_
P0j:_emscripten_glScissor__wrapper
Io:FUNCTION_TABLE_viifi
Jo:FUNCTION_TABLE_viiff
BTe:_X501__cctor_m1166912714
Yoi:__ZL102PointerEventData_t3807901092_CustomAttributesCacheGenerator_PointerEventData_set_lastPress_m2928324031P21CustomAttributesCache
vPd:_MaskUtilities_GetRectMasksForClip_m532898711
pLc:_UNITY_tt_face_free_hdmx
Vag:_Bounds_ToString_m4208690781
Gtj:__ZN15dense_hashtableINSt3__24pairIK10KeyWrapperINS1_IP11Il2CppClassjEEES4_EES6_N6il2cpp8metadata14ArrayClassHashEN14dense_hash_mapIS6_S4_SB_NS6_14EqualsComparerINSA_17ArrayClassCompareEEENS0_9allocatorIS8_EEE9SelectKeyESF_SH_E5clearEv
m9i:__ZNSt3__218uninitialized_copyIPNS_4pairIK10KeyWrapperIPK11Il2CppClassEPKcEESB_EET0_T_SD_SC_
mqj:__ZN6il2cpp2vm14TypeNameParser5ParseEb
kwe:_Math_Sqrt_m1297338011
Xte:_StreamWriter_Initialize_m3490883444
QZf:_Type_GetGenericArguments_m3500465462
_1c:__ZN23UnityPurchasingSettingsC2Ev
WWj:__ZNSt9bad_allocD0Ev
Tmd:_Module_IsDefined_m2423524910
YDe:_DerivedType_create_unmanaged_type_m747846525
wli:__ZL60EventType_t3528516131_CustomAttributesCacheGenerator_repaintP21CustomAttributesCache
EUa:__ZN17GPUFenceInternals7ReleaseEv
uti:__ZL66Selectable_t3250028441_CustomAttributesCacheGenerator_m_NavigationP21CustomAttributesCache
kqd:_ResolveEventHandler__ctor_m1911137231
rBh:_Collection_1_System_Collections_IList_Contains_m2393482847_gshared
YZb:__ZL10RenderFaceR9GfxDeviceR18MaterialStateCacheP13RenderTextureiif
byf:_Array_IndexOf_TisCustomAttributeNamedArgument_t287865710_m2817957199_gshared
Kja:__ZN15SerializeTraitsI13dynamic_arrayIN9ShaderLab21SerializedBindChannelELj4EEE19ResizeSTLStyleArrayERS3_i
wAj:__ZNK24NamespaceAndNamePairHashclERKNSt3__24pairIPKcS3_EE
fAi:_ExtendedKeyUsageExtension_ToString_m2116504780
Xkb:__ZNK5Unity9Component38MarkGameObjectAndComponentDependenciesER27GarbageCollectorThreadState
Sef:_BinaryReader_Read_m3708759962
t3c:__ZN20UnityWebRequestProtoI24UnityWebRequestTransport16AtomicRefCounter14RedirectHelper14ResponseHelper15DownloadHandler13UploadHandler12HeaderHelper14AsyncOperationED0Ev
aO:__ZNK7Texture21GetShadowSamplingModeEv
x7a:__ZN13ScreenManager21OnWindowRegainedFocusEv
_Db:__Z18Transfer_BlittableI18StreamedBinaryReadILb0EELb1EdEvRK29SerializationCommandArgumentsR31RuntimeSerializationCommandInfo
Dua:__ZN9GfxDevice26CreateDefaultVertexBuffersEv
h2j:_emscripten_glVertexAttrib2fv__wrapper
Y3c:__ZN13RuntimeStaticINSt3__26vectorIPN5physx15PxVehicleWheelsENS0_9allocatorIS4_EEEELb0EE13StaticDestroyEPv
Bue:_SynchronizedReader_ReadToEnd_m2160105378
jPf:_Double_System_IConvertible_ToUInt16_m4132603953_AdjustorThunk
Wxa:__ZN4crnd12symbol_codec32decode_receive_static_data_modelERNS_25static_huffman_data_modelE
n3b:__ZN18ScriptingArguments8AddFloatEf
npg:_TouchScreenKeyboard_Open_m3325559252
Wid:_Image_set_fillOrigin_m469806249
RZc:__ZN11UnityEngine15PlatformWrapper16GetVRRenderScaleEv
_uc:__Z18Transfer_BlittableI9JSONWriteLb0EaEvRK29SerializationCommandArgumentsR31RuntimeSerializationCommandInfo
WR:__ZN11UnityEngine15CloudWebService14DataDispatcher34OnSessionContainerArchivedAndReadyERNS0_16SessionContainerE
Nig:_ConnectionChangeEvent__ctor_m764126802
cje:_Kernel_Multiply_m193213393
hxe:_IntComparer__ctor_m2901422390
lqd:_ResolveEventHandler_Invoke_m1337322179
k1h:__ZL50HMACMD5_t2742219965_CustomAttributesCacheGeneratorP21CustomAttributesCache
W7d:_Comparer_1__ctor_m1078828713_gshared
dyb:__Z18Transfer_BlittableI19StreamedBinaryWriteILb0EELb0E8Vector3fEvRK29SerializationCommandArgumentsR31RuntimeSerializationCommandInfo
dHg:_Enumerator_VerifyState_m2621680056_gshared
PJi:_UriParser_InternalRegister_m3643767086
gji:__ZL106TextGenerator_t3211863866_CustomAttributesCacheGenerator_TextGenerator_INTERNAL_get_rectExtents_m183810018P21CustomAttributesCache
gia:__ZN14SafeBinaryRead19TransferSTLStyleMapINSt3__23mapIN4core12basic_stringIcNS3_20StringStorageDefaultIcEEEEiNS1_4lessIS7_EENS1_9allocatorINS1_4pairIKS7_iEEEEEEEEvRT_17TransferMetaFlags
b8e:_DateTimeFormatInfo_get_RawAbbreviatedDayNames_m1257850285
fmj:__ZN15dense_hashtableINSt3__24pairIK10KeyWrapperINS1_IPK11Il2CppImageP11Il2CppClassEEEjEES9_17ReflectionMapHashIS8_EN14dense_hash_mapIS9_jSD_NS9_14EqualsComparerINS0_8equal_toIS8_EEEENS0_9allocatorISB_EEE9SelectKeyESI_SK_ED2Ev
BJc:_gray_move_to
oMf:_DBNull_System_IConvertible_ToSingle_m13713620
cvi:__ZL127U3CDelayedSetDirtyU3Ec__Iterator0_t3170500204_CustomAttributesCacheGenerator_U3CDelayedSetDirtyU3Ec__Iterator0_Reset_m160466733P21CustomAttributesCache
Abg:_CameraCallback__ctor_m899467377
iGh:_ReadOnlyCollection_1_System_Collections_IList_Contains_m1327645028_gshared
hjd:_Image_GetDrawingDimensions_m3060965396
_ii:__ZL69FontTextureRebuildCallback_t2467502454_CustomAttributesCacheGeneratorP21CustomAttributesCache
h_f:_TypeLoadException__ctor_m1154572625
Jhc:__Z30RegisterValidateMethodCallbackiPF18ScriptingMethodPtrS_17ScriptingClassPtrP6ObjectEPKc
Lnb:__ZN20LocalFileSystemPosixD0Ev
XRh:__ZL75Decimal_t2948259380_CustomAttributesCacheGenerator_Decimal__ctor_m593929528P21CustomAttributesCache
nqe:_Context_get_WriteSequenceNumber_m1115956887
zne:_CipherSuite_get_ClientHMAC_m377589750
dsh:_Dictionary_2_Do_ICollectionCopyTo_TisKeyValuePair_2_t2401056908_m1169495264_gshared
Kjd:_OpCodes__cctor_m3821715395
Tcd:_ContentSizeFitter__ctor_m2349275633
$7h:__ZL56TypeConverter_t2249118273_CustomAttributesCacheGeneratorP21CustomAttributesCache
bBh:_Collection_1_RemoveAt_m3506636491_gshared
OIc:_tt_cmap_init
qzc:__ZN8JSONRead8TransferI9BoundsIntEEvRT_PKc17TransferMetaFlagsb
Ia:invoke_viidi
vqh:_Array_Sort_TisOrderBlock_t1585977831_m2922111197_gshared
Igd:_Graphic_OnRectTransformDimensionsChange_m3695755375
VEd:_SByte_System_IConvertible_ToChar_m1489191771_AdjustorThunk
SI:__ZN9AudioClip7CleanupEv
pjh:__Z76RuntimeInvoker_Void_t1185182177_Int32_t2950945753_PlayableBinding_t354260709PFvvEPK10MethodInfoPvPS4_
ERe:_Interval_t1802865632_marshal_pinvoke_cleanup
Suj:__ZNK15dense_hashtableINSt3__24pairIK10KeyWrapperIP11Il2CppClassES4_EES5_N6il2cpp8metadata16SZArrayClassHashEN14dense_hash_mapIS5_S4_SA_NS5_14EqualsComparerINS9_19SZArrayClassCompareEEENS0_9allocatorIS7_EEE9SelectKeyESE_SG_E12test_deletedEj
dhd:_Graphic_GraphicUpdateComplete_m1502194795
l$i:__ZL25UnresolvedVirtualCall_242P12Il2CppObjecti40CustomAttributeTypedArgument_t2723150157PK10MethodInfo
Txc:__Z18Transfer_BlittableI8JSONReadLb0EdEvRK29SerializationCommandArgumentsR31RuntimeSerializationCommandInfo
_vd:_SynchronizationAttribute_EnterContext_m1660729920
y2i:_Canvas_get_referencePixelsPerUnit_m3420541976
oGh:_ReadOnlyCollection_1_System_Collections_ICollection_get_SyncRoot_m2522539235_gshared
hQi:_Event_get_current_m2393892120
rWi:_VertexHelper_Clear_m627349662
nfj:__ZN6il2cpp2vm21ThreadPoolCompartment13QueueWorkItemEP17Il2CppAsyncResult
Apa:__ZNK9GfxDevice13GetViewMatrixEv
Mve:_UnmanagedMemoryStream_Dispose_m2681886347
Wjb:__ZN17RemapPPtrTransferC2E24TransferInstructionFlagsb
DGf:_Convert_ToDecimal_m889385228
X0:__ZN8TypeTree8BlobReadERPKhS1_ib
bci:__ZL87Display_t1387065949_CustomAttributesCacheGenerator_Display_GetSystemExtImpl_m2808197389P21CustomAttributesCache
BXe:_Array_Reverse_m3714848183
cfd:_Dropdown_ClearOptions_m4085591601
ecd:_CanvasUpdateRegistry_InternalRegisterCanvasElementForGraphicRebuild_m3522560454
Xwg:_KeyValuePair_2__ctor_m880186442_gshared
yib:__ZN18LoadSceneOperation23GetAllowSceneActivationEv
_Sa:__ZN6CameraD0Ev
ivh:_Collection_1_System_Collections_IList_get_IsReadOnly_m2319019412_gshared
Jfa:__ZN31CanvasBatchIntermediateRenderer16StaticInitializeEPv
ADh:_Collection_1_System_Collections_IList_IndexOf_m837396833_gshared
tx:__ZN7mecanim12AndValueMaskILb0EEEvPKNS_14ValueArrayMaskEPS1_
Rhb:__ZN14SafeBinaryRead21TransferSTLStyleArrayINSt3__26vectorIi13stl_allocatorIiL18MemLabelIdentifier13ELi16EEEEEEvRT_17TransferMetaFlags
nRf:_EncoderFallback__cctor_m3806755293
GZd:_InternalEnumerator_1__ctor_m962177456_AdjustorThunk
zPc:_raccess_guess_apple_double
aCa:__ZL18ProgramUniform1uivPK7ApiGLESjiihPKv
_8b:__ZN14Texture2DArray13RebuildMipMapEv
O8i:__ZN13Il2CppHashSetIPK17Il2CppGenericInstN6il2cpp8metadata21Il2CppGenericInstHashENS4_24Il2CppGenericInstCompareENSt3__29allocatorI10KeyWrapperIS2_EEEEC2EjRKS5_RKS6_
erb:__Z18Transfer_BlittableI14SafeBinaryReadLb1EaEvRK29SerializationCommandArgumentsR31RuntimeSerializationCommandInfo
YGj:__ZN6il2cpp2gc16GarbageCollector14RemoveWeakLinkEPPv
Ena:__ZN9ShaderLab20SerializedSubProgram14AddVectorParamEPKcii15ShaderParamTypei
UOg:_List_1_GetEnumerator_m563931292_gshared
jVc:__ZN2UI14CanvasRenderer12CleanupClassEv
ODf:_Enumerator__ctor_m3362421874
obh:__Z117RuntimeInvoker_CSSSize_t3377836552_IntPtr_t_Single_t1397266774_Int32_t2950945753_Single_t1397266774_Int32_t2950945753PFvvEPK10MethodInfoPvPS4_
k6j:_emscripten_glIsFramebuffer__wrapper
WDj:__ZN6il2cpp2vm6Object3BoxEP11Il2CppClassPv
Gvj:__ZN6il2cpp2vm6Thread7SetNameEP12Il2CppThreadP12Il2CppString
YIb:__ZN13ScreenManager18SetAllowCursorLockEb
oT:__ZN11UnityEngine15CloudWebService10RestClientINS0_23WebRequestRestHeaderMapEE16SetRequestHeaderERKN4core12basic_stringIcNS4_20StringStorageDefaultIcEEEESA_
Whb:__ZN30RuntimeInitializeOnLoadManager15ClassMethodInfo8TransferI14SafeBinaryReadEEvRT_
Jwd:_ConstructionCall_InitDictionary_m2824447813
$pd:_TargetException__ctor_m3701535709
chh:__Z86RuntimeInvoker_Int32_t2950945753_Vector3_t3722313464_Vector3_t3722313464_RuntimeObjectPFvvEPK10MethodInfoPvPS4_
RP:__ZL22InitializeModule_Audiov
Xob:__ZN16MemoryFileSystem8IsLockedERK13FileEntryData
Zxj:__ZN6il2cpp6icalls8mscorlib6System2IO6MonoIO5WriteEiP11Il2CppArrayiiPi
vhg:_Mathf_InverseLerp_m4155825980
A1g:__Z92RuntimeInvoker_RuntimeObject_RuntimeObject_RuntimeObject_SByte_t1669577662_SByte_t1669577662PFvvEPK10MethodInfoPvPS4_
fl:_emscripten_glBindRenderbuffer
DMg:_List_1_System_Collections_IList_Insert_m1011775503_gshared
jNj:_GC_dirty_init
pBj:__ZN6il2cpp2vm5Image33GetCachedMemoryMappedResourceFileEP24Il2CppReflectionAssembly
IDj:__ZN6il2cpp2vm5Field14GetValueObjectEP9FieldInfoP12Il2CppObject
yTc:__ZNK2UI6Canvas16GetTargetDisplayEv
egh:__Z69RuntimeInvoker_Void_t1185182177_Int32_t2950945753_Vector2_t2156229523PFvvEPK10MethodInfoPvPS4_
ZXf:_TimeSpan_CompareTo_m3633415627_AdjustorThunk
zda:__ZN6Object17FindObjectsOfTypeEPKN5Unity4TypeER13dynamic_arrayIPS_Lj4EEb
Xcc:__ZNSt3__26vectorINS_4pairIiiEE13stl_allocatorIS2_L18MemLabelIdentifier1ELi16EEE21__push_back_slow_pathIKS2_EEvRT_
b2i:_TextGenerator_Dispose_m1708662137
nPd:_MaskableGraphic_OnTransformParentChanged_m329502413
hyh:_Collection_1_Remove_m3611142372_gshared
iGb:__ZN13MonoBehaviour17RemoveFromManagerEv
org:_Vector3_get_Item_m668685504_AdjustorThunk
FTa:__ZN12ImageFilters14AddImageFilterERK11ImageFilter
Zud:_Context_NotifyDynamicSinks_m1841702879
JQi:_GUIUtility_get_pixelsPerPoint_m2369948084
oof:_WindowsIdentity_System_Runtime_Serialization_IDeserializationCallback_OnDeserialization_m3428853631
HW:__ZN13MemoryManagerC2Ev
VFa:__ZN12SkinMeshInfo10DeallocateEPS_
C9i:__ZNK15dense_hashtableINSt3__24pairIK10KeyWrapperIPKcEP11Il2CppClassEES5_N6il2cpp5utils11StringUtils12StringHasherIS4_EEN14dense_hash_mapIS5_S8_SE_NS5_14EqualsComparerINSB_13VmStringUtils21CaseSensitiveComparerEEENS0_9allocatorIS9_EEE9SelectKeyESJ_SL_E8min_sizeEjj
RSd:_ScrollRect_SetDirty_m214267968
jQa:__ZN20ArchiveStorageReader28AcquireAndPrefillUnusedBlockEjPNS_11CacheResultE
_Ye:_Boolean_System_IConvertible_ToDateTime_m603510836
U8b:__Z12NHxRoughnessIA4_tEvP9Texture2DPT_iiii
HMh:__ZN28GenericInterfaceFuncInvoker2IibbE6InvokeEPK10MethodInfoP12Il2CppObjectbb
K1c:__ZN11UnityEngine15PlatformWrapper33GetTimeSinceStartupInMillisecondsEv
Tda:__ZN18AsyncUploadManagerD2Ev
zmb:__ZN9Transform5ResetEv
zHf:_Decimal_op_Explicit_m1842265407
Qxb:__Z22TransferField_NonArrayI24GenerateTypeTreeTransfer16Converter_StringEvRK23StaticTransferFieldInfoR31RuntimeSerializationCommandInfoRT0_
o3i:_CanvasRenderer_SetAlphaTexture_m2009567627
hFc:_UNITY_FT_CMap_New
uZd:_InternalEnumerator_1_get_Current_m4241643334_AdjustorThunk
xYd:_InternalEnumerator_1_MoveNext_m154749640_AdjustorThunk
RIb:__Z17MainLoopKeepalivePv
Nti:__ZL62Slider_t3903728902_CustomAttributesCacheGenerator_m_HandleRectP21CustomAttributesCache
zaj:__ZN15dense_hashtableI10KeyWrapperIPK17Il2CppGenericInstES4_N6il2cpp8metadata21Il2CppGenericInstHashEN14dense_hash_setIS4_S7_NS4_14EqualsComparerINS6_24Il2CppGenericInstCompareEEENSt3__29allocatorIS4_EEE8IdentityESB_SE_E12expand_arrayEjN21dense_hash_map_traits17integral_constantIbLb0EEE
K3d:_InternalEnumerator_1_get_Current_m1588647567_AdjustorThunk
pTj:_printf_core
SZh:__ZL51GCHandle_t3351438187_CustomAttributesCacheGeneratorP21CustomAttributesCache
CJd:_InputField_get_caretBlinkRate_m3620074524
uVi:_FieldWithTarget_get_fieldPath_m341366840
ZQb:__Z19SetupLODFadeKeywordR17ShaderPassContexti
kkf:_RSAPKCS1SignatureFormatter_CreateSignature_m3191980616
g0a:__ZN10builtintex16GetDefaultTexEnvE16TextureDimensionb
xFa:__ZL25CheckCopyTextureArgumentsRK7ApiGLESP11GLESTextureS3_
M3d:_InternalEnumerator_1__ctor_m362401472_AdjustorThunk
TMg:_List_1_AsReadOnly_m2400800347_gshared
Z4j:_glDeleteShader__wrapper
nxb:__Z29Transfer_Blittable_ArrayFieldI24GenerateTypeTreeTransferyEvRT_R9ArrayInfoRK23StaticTransferFieldInfo
x1f:_ValueType_Equals_m1524437845
Vfi:__ZL71RuntimePlatform_t4159857903_CustomAttributesCacheGenerator_OSXWebPlayerP21CustomAttributesCache
EJ:__ZN4FMOD7SystemI9playSoundE17FMOD_CHANNELINDEXPNS_5SoundEbPPNS_7ChannelE
Feh:__Z123RuntimeInvoker_RuntimeObject_Ray_t3785851493_RuntimeObject_Single_t1397266774_Int32_t2950945753_RuntimeObject_RuntimeObjectPFvvEPK10MethodInfoPvPS4_
Hdf:_Int64_GetHashCode_m703091690
H7e:_CultureInfo_set_DateTimeFormat_m1843682751
aQi:_Event_get_commandName_m4275147343
sx:__ZN27AnimationLayerMixerPlayable17LayerMixerProcessEP35AnimationPlayableEvaluationConstantP32AnimationPlayableEvaluationInputP33AnimationPlayableEvaluationOutputM17AnimationPlayableFvS1_S3_S5_EMS_FvS1_S3_S5_ESA_MS_FvS5_S1_S3_S5_ifE
IGf:_Decimal_op_Implicit_m4256234411
cI:__ZN12AudioManager23VirtualRedirectTransferER18StreamedBinaryReadILb0EE
b_g:__Z60RuntimeInvoker_RuntimeObject_RuntimeObject_Int16_t2552820387PFvvEPK10MethodInfoPvPS4_
Tab:__ZN10VertexData13SwapEndianessEv
Hif:_StreamReader__ctor_m3941437302
Jnc:__Z57Register_UnityEngine_Transform_INTERNAL_get_localRotationv
qKe:_IPv6Address_get_Address_m1389170741
Jhb:__ZN30RuntimeInitializeOnLoadManager23VirtualRedirectTransferER17RemapPPtrTransfer
CZj:dynCall_viif
UBe:_AssemblyName_get_Flags_m1616840602
us:__ZN7mecanim4hand8HandPoseC2Ev
Wdi:__ZL86Material_t340375123_CustomAttributesCacheGenerator_Material_DisableKeyword_m1245091008P21CustomAttributesCache
vue:_StringReader_ReadLine_m2337102945
Vub:__ZL26Transfer_SimpleNativeClassI17RemapPPtrTransfer8GradientLb0EEvRK29SerializationCommandArgumentsR31RuntimeSerializationCommandInfo
ICf:_SyncHashtable_Add_m3016107307
ez:__ZN17AnimationPlayable26DisconnectNoTopologyChangeEPS_i
xZe:_Boolean_Equals_m2410333903_AdjustorThunk
gTg:_List_1_System_Collections_IList_Contains_m2131605266_gshared
x0h:__ZL61ISurrogateSelector_t3040401154_CustomAttributesCacheGeneratorP21CustomAttributesCache
OUg:_List_1_ToArray_m1990123684_gshared
jU:__ZN13UploadHandlerD2Ev
YXj:dynCall_viiiiiffi
Cc:_emscripten_glBlendFuncSeparate
gAh:_Collection_1_Add_m809543251_gshared
S_:__Z20scripting_string_newPKc
fmc:__Z43Material_CUSTOM_Internal_CreateWithMaterialP12Il2CppObjectS0_
_Ii:_Parser_IsSingleline_m326238187
Z2e:_CollectionBase_get_Count_m1708965601
IHd:_HMAC__ctor_m97939284
$Hh:_ReadOnlyCollection_1_System_Collections_IList_get_Item_m1005238747_gshared
n6h:__ZL49DBNull_t3725197148_CustomAttributesCacheGeneratorP21CustomAttributesCache
w1f:_ValueType_DefaultEquals_m2927252100
wtc:__ZN9JSONWrite12AppendToNodeEPN5Unity9rapidjson12GenericValueINS1_4UTF8IcEE13JSONAllocatorEEPKcRS6_
$5f:_ASN1_ToString_m1340204511
_Ne:_X509Store_get_Certificates_m2149701265
oyg:_DefaultComparer_GetHashCode_m2865442331_gshared
wZf:_Type_GetField_m2961003358
Spi:__ZL144StandaloneInputModule_t2760469101_CustomAttributesCacheGenerator_StandaloneInputModule_t2760469101____allowActivationOnMobileDevice_PropertyInfoP21CustomAttributesCache
eTf:_StringBuilder_set_Chars_m3548656617
Cij:__ZN6il2cpp2os4File17GetFileAttributesERKNSt3__212basic_stringIcNS2_11char_traitsIcEENS2_9allocatorIcEEEEPi
Ohh:__Z59RuntimeInvoker_Int32_t2950945753_X509ChainStatus_t133602714PFvvEPK10MethodInfoPvPS4_
lC:__ZNSt3__26__sortIRPFbPKN8Animator11AnimatorJobES4_EPS4_EEvT0_S9_T_
hH:__ZN17AudioCustomFilterD2Ev
$qc:__ZN11IMGUIModule26SetDeveloperConsoleVisibleEb
tih:__Z56RuntimeInvoker_Void_t1185182177_MonoResource_t4103430009PFvvEPK10MethodInfoPvPS4_
Gmb:__ZN9Transform16ResetReplacementEv
cLj:_GC_unpromote_black_lists
iWh:__ZL64DebuggerBrowsableState_t747501856_CustomAttributesCacheGeneratorP21CustomAttributesCache
PDa:__ZN18GfxFramebufferGLES18ReleaseFramebufferEP17RenderSurfaceBaseP14GfxContextGLES
Jwc:__Z18Transfer_BlittableI8JSONReadLb1EiEvRK29SerializationCommandArgumentsR31RuntimeSerializationCommandInfo
Que:_TextReader_Dispose_m4253712522
FV:__ZN19CloudServiceHandler34HandleSaveFileWebRequestPlayerLoopEv
d9h:__ZL82BigInteger_t2902905090_CustomAttributesCacheGenerator_BigInteger__ctor_m2474659844P21CustomAttributesCache
Sy:__ZN7mecanim21ValueArrayReverseCopyEPKNS_18ValueArrayConstantEPKNS_10ValueArrayES2_PS3_PKi
RG:__Z31GetParentSampleClipFromInstancePN11SoundHandle8InstanceE
nyi:_InternalAsyncResult_get_BytesRead_m3975435112
r6b:__ZNK28RectTransformPropertyBinding13GetFloatValueERKN11UnityEngine9Animation10BoundCurveE
t_b:__ZN6Camera22StandaloneCustomRenderENS_10RenderFlagEP6ShaderRKN4core12basic_stringIcNS3_20StringStorageDefaultIcEEEEPNS_21PerformRenderFunctionE
xyf:_Array_InternalArray__IndexOf_TisKeyValuePair_2_t2401056908_m4118889689_gshared
mhb:__ZNSt3__26vectorI4PPtrI6ObjectE13stl_allocatorIS3_L18MemLabelIdentifier52ELi16EEE6assignINS_11__wrap_iterIPS3_EEEENS_9enable_ifIXaasr21__is_forward_iteratorIT_EE5valuesr16is_constructibleIS3_NS_15iterator_traitsISD_E9referenceEEE5valueEvE4typeESD_SD_
oEh:_Collection_1_System_Collections_ICollection_get_IsSynchronized_m500240145_gshared
x8h:__ZL68X509CertificateCollection_t3399372417_CustomAttributesCacheGeneratorP21CustomAttributesCache
bSj:__ZN6il2cpp2os16ThreadLocalValue8GetValueEPPv
bNe:_X509Certificate2_get_PublicKey_m370665820
fdj:__ZN6il2cpp2vm13MetadataCache14GetGenericInstEPKPK10Il2CppTypej
UP:__ZN13AudioListener17ReadExtensionNameEi
Nb:invoke_iiidii
Kxh:_Collection_1_System_Collections_Generic_ICollectionU3CTU3E_get_IsReadOnly_m1419845799_gshared
vUi:_U3CTimedTriggerU3Ec__Iterator0_System_Collections_Generic_IEnumeratorU3CobjectU3E_get_Current_m3822291412
zP:__ZN9AudioClip15InitializeClassEv
np:setThrew
fzd:_SoapMethodAttribute_get_XmlNamespace_m4029617514
L8b:__ZL21BuildEmptyCubeTexturePKci11ColorRGBA3217TextureColorSpace
Sai:__ZL106AsyncOperation_t1445031843_CustomAttributesCacheGenerator_AsyncOperation_InvokeCompletionEvent_m1410305036P21CustomAttributesCache
Wng:_SelectionBaseAttribute__ctor_m2749097321
jia:__ZN14SafeBinaryRead21TransferSTLStyleArrayINSt3__26vectorIN9ShaderLab20SerializedSubProgramENS1_9allocatorIS4_EEEEEEvRT_17TransferMetaFlags
Wyf:_Array_InternalArray__IndexOf_TisX509ChainStatus_t133602714_m48896230_gshared
NOa:__ZN19dynamic_block_arrayI13FileEntryInfoLj32EE4growEj
Swc:__Z15Transfer_StringI8JSONReadLb1EEvRK29SerializationCommandArgumentsR31RuntimeSerializationCommandInfo
xAa:__ZN6prcoreL17RemapGenericFloatI17TexFormatRGBFloat15TexFormatRGHalfEEvPKNS_9InnerInfoE
b$h:__ZL63IContributeEnvoySink_t2817847987_CustomAttributesCacheGeneratorP21CustomAttributesCache
BHc:_sfnt_load_face
YOc:_UNITY_FT_Render_Glyph_Internal
lxj:__ZNSt3__212basic_stringIDsNS_11char_traitsIDsEENS_9allocatorIDsEEE21__grow_by_and_replaceEjjjjjjPKDs
BFc:_UNITY_ft_service_list_lookup
Oub:__Z18Transfer_BlittableI17RemapPPtrTransferLb1E11ColorRGBA32EvRK29SerializationCommandArgumentsR31RuntimeSerializationCommandInfo
yqc:__ZN5IMGUI21SelectReceivingWindowER8GUIStateb
YHd:_HMAC_Initialize_m3157696427
c_i:__ZL25UnresolvedVirtualCall_179P12Il2CppObject20UIVertex_t4057497605S1_PK10MethodInfo
XYa:__ZN4PPtrI5LightE8TransferI14SafeBinaryReadEEvRT_
rUj:___strchrnul
jRg:_List_1_System_Collections_ICollection_CopyTo_m3643417403_gshared
gW:__ZN13BaseAllocator13TryDeallocateEPv
Tzb:__Z29Transfer_Blittable_ArrayFieldI19StreamedBinaryWriteILb0EEfEvRT_R9ArrayInfoRK23StaticTransferFieldInfo
HPi:_ListPool_1_Release_m1363449253_gshared
WLe:_X509SubjectKeyIdentifierExtension__ctor_m2055934916
sHg:_Enumerator_Dispose_m2531396701_AdjustorThunk
Fob:__ZN16MemoryFileSystem5WriteER13FileEntryDatayPvPy
PUa:__ZNSt3__26vectorIN12FlareManager10FlareEntryENS_9allocatorIS2_EEE21__push_back_slow_pathIKS2_EEvRT_
lTj:_sprintf
Ohi:__ZL67NativeContainerAttribute_t2600515814_CustomAttributesCacheGeneratorP21CustomAttributesCache
ohc:__ZN9Scripting25CreateNullExceptionObjectE18ScriptingObjectPtr
b8f:_PrivateKeyInfo_DecodeRSA_m2889346634
LH:__ZN13AudioListener17RemoveFromManagerEv
yd:_glAttachShader
cdd:_ContentSizeFitter_SetLayoutHorizontal_m2833273874
gFh:_ReadOnlyCollection_1_System_Collections_IList_RemoveAt_m134366701_gshared
fne:__ZN28GenericInterfaceFuncInvoker1IbP22Int32U5BU5D_t385246372E6InvokeEPK10MethodInfoP12Il2CppObjectS1_
BY:__ZNK6Camera19GetProjectionMatrixEv
dsi:__ZL70InputField_t3762917431_CustomAttributesCacheGenerator_m_SelectionColorP21CustomAttributesCache
cKd:_InputField_SetToCustomIfContentTypeIsNot_m2813459946
UWg:__Z49RuntimeInvoker_DateTime_t3738529785_RuntimeObjectPFvvEPK10MethodInfoPvPS4_
$fi:__ZL70RuntimePlatform_t4159857903_CustomAttributesCacheGenerator_FlashPlayerP21CustomAttributesCache
Daf:_Guid_GetHashCode_m3042133858_AdjustorThunk
l0:__Z38PreallocateObjectFromPersistentManagerib
SPi:_Event_t2956885303_marshal_pinvoke_cleanup
Jof:_SecurityException_get_FirstPermissionThatFailed_m3934559164
VQe:_Interpreter_Backtrack_m2828876822
M3a:__ZNK9Texture2D20GetUnscaledTextureIDEv
aYh:__ZL103TypeBuilder_t1073948154_CustomAttributesCacheGenerator_TypeBuilder_DefineDefaultConstructor_m2168449784P21CustomAttributesCache
jFd:_SByte_System_IConvertible_ToType_m4075253447
c9f:_StrongName_get_PublicKey_m1841537984
o3j:_glFenceSync__wrapper
u6i:__ZNK15dense_hashtableINSt3__24pairIK10KeyWrapperIPK22Il2CppGenericParameterEP11Il2CppClassEES6_N6il2cpp5utils11PointerHashIS4_EEN14dense_hash_mapIS6_S9_SE_NS6_14EqualsComparerINS0_8equal_toIS5_EEEENS0_9allocatorISA_EEE9SelectKeyESJ_SL_E8min_sizeEjj
aqg:_Transform_INTERNAL_get_worldToLocalMatrix_m2730237241
gYe:_AssemblyLoadEventHandler_Invoke_m1462077361
Epg:_Transform__ctor_m3470711880
Gih:__Z51RuntimeInvoker_Void_t1185182177_HitInfo_t3229609740PFvvEPK10MethodInfoPvPS4_
R3a:__ZNK9Texture2D26CanReuploadDataToGfxDeviceEv
REb:__ZN18StreamedBinaryReadILb0EE21TransferSTLStyleArrayI13dynamic_arrayI4AABBLj4EEEEvRT_17TransferMetaFlags
t2h:__ZL63CodeAccessPermission_t2681295399_CustomAttributesCacheGeneratorP21CustomAttributesCache
ijb:__Z29ClearRepeatingLogMessageStatev
X1d:_InternalEnumerator_1_get_Current_m3191242573_gshared
p_e:_Byte_Equals_m1161982810_AdjustorThunk
Zhh:__Z53RuntimeInvoker_Int32_t2950945753_UICharInfo_t75501106PFvvEPK10MethodInfoPvPS4_
l7b:__ZN15QualitySettings12CleanupClassEv
hte:_SslCipherSuite_ComputeMasterSecret_m3963626850
pUg:_List_1_GrowIfNeeded_m278824317_gshared
SJa:__ZN7ApiGLESD2Ev
WRa:__ZN9Transform47ClearTransformHierarchyAndApplyToSerializedDataEv
fyc:__ZN8JSONRead21TransferSTLStyleArrayINSt3__26vectorI8MonoPPtr13stl_allocatorIS3_L18MemLabelIdentifier1ELi16EEEEEEvRT_17TransferMetaFlags
xef:_IntPtr_op_Explicit_m536245531
eTa:__ZN6Camera23VirtualRedirectTransferER19StreamedBinaryWriteILb0EE
TZj:dynCall_fidi
akj:__ZN15dense_hashtableINSt3__24pairIK10KeyWrapperINS1_IPK9FieldInfoP11Il2CppClassEEEjEES9_17ReflectionMapHashIS8_EN14dense_hash_mapIS9_jSD_NS9_14EqualsComparerINS0_8equal_toIS8_EEEENS0_9allocatorISB_EEE9SelectKeyESI_SK_E12resize_deltaEjj
lNg:_List_1_TrimExcess_m3433550210_gshared
hSh:__ZL63IntPtr_t_CustomAttributesCacheGenerator_IntPtr__ctor_m987082960P21CustomAttributesCache
aaj:__ZNK15dense_hashtableINSt3__24pairIK10KeyWrapperIPK19Il2CppGenericMethodEPK26Il2CppGenericMethodIndicesEES6_N6il2cpp8metadata23Il2CppGenericMethodHashEN14dense_hash_mapIS6_SA_SE_NS6_14EqualsComparerINSD_26Il2CppGenericMethodCompareEEENS0_9allocatorISB_EEE9SelectKeyESI_SK_E8min_sizeEjj
__h:__ZL58IContextProperty_t840037424_CustomAttributesCacheGeneratorP21CustomAttributesCache
UQi:_GUILayoutEntry__ctor_m2229197035
LU:__ZN11UnityEngine15CloudWebService14RestDownloaderD2Ev
FEe:_EnumBuilder_get_Assembly_m1175292766
s1b:__Z29StdTemplateConversionFunctionIjhEbPvR14SafeBinaryRead
z4:__ZN15dense_hashtableINSt3__24pairIKN9ShaderLab7Program23ShaderKeywordSetAndHashEPKNS2_10SubProgramEEES4_NS3_24ShaderKeywordHashFunctorEN14dense_hash_mapIS4_S8_SA_NS0_8equal_toIS4_EE13stl_allocatorIS9_L18MemLabelIdentifier67ELi16EEE9SelectKeyESD_SG_E15insert_noresizeERKS9_
brh:_Array_swap_TisCustomAttributeNamedArgument_t287865710_TisCustomAttributeNamedArgument_t287865710_m881919420_gshared
h_a:__ZN13RenderTexture12SetDimensionE16TextureDimension
zte:_SslClientStream_set_ClientCertSelectionDelegate_m1261530976
oe:_SDL_FreeRW
voi:__ZL109ExecuteEvents_t3484638744_CustomAttributesCacheGenerator_ExecuteEvents_U3Cs_HandlerListPoolU3Em__0_m391641698P21CustomAttributesCache
ejh:__Z79RuntimeInvoker_Void_t1185182177_Int32_t2950945753_ParameterModifier_t1461694466PFvvEPK10MethodInfoPvPS4_
XVc:__Z34CanvasRenderer_Get_Custom_PropCullP12Il2CppObject
AN:__ZN20SoundChannelInstance8getDelayE14FMOD_DELAYTYPEPjS1_
CPj:__ZNSt3__26__treeINS_12__value_typeIPvxEENS_19__map_value_compareIS2_S3_NS_4lessIS2_EELb1EEENS_9allocatorIS3_EEE12__find_equalIS2_EERPNS_16__tree_node_baseIS2_EESF_RKT_
Q4:__ZNSt3__26vectorIN20GpuProgramParameters15StructParameterENS_9allocatorIS2_EEEC2ERKS5_
zXd:_ArrayReadOnlyList_1_Contains_m232667507_gshared
S3g:__Z77RuntimeInvoker_Boolean_t97287965_IntPtr_t_Int32_t2950945753_SByte_t1669577662PFvvEPK10MethodInfoPvPS4_
bkg:_PlayableHandle_GetPlayableType_m432385838_AdjustorThunk
MNc:__ZNSt3__26vectorIN20TextRenderingPrivate8FontImpl13CharacterInfoE13stl_allocatorIS3_L18MemLabelIdentifier1ELi16EEE8__appendEj
v:tempBigInt
Fnh:_Array_InternalArray__Insert_TisKeyframe_t4206410242_m1558638568_gshared
E4h:__ZL77Convert_t2465617642_CustomAttributesCacheGenerator_Convert_ToByte_m3567528984P21CustomAttributesCache
we:_emscripten_glVertexAttrib1fv
Sia:__ZNSt3__26vectorIN9ShaderLab20SerializedSubProgram12UAVParameterENS_9allocatorIS3_EEE7reserveEj
TWj:__ZSt11__terminatePFvvE
cK:__ZN12AudioManager14systemCallbackEP11FMOD_SYSTEM24FMOD_SYSTEM_CALLBACKTYPEPvS3_
dii:__ZL57PlayableOutput_t3179894105_CustomAttributesCacheGeneratorP21CustomAttributesCache
TJh:_ReadOnlyCollection_1_System_Collections_Generic_ICollectionU3CTU3E_Clear_m3451551308_gshared
Pad:_BaseMeshEffect_OnEnable_m3291426649
Dbg:_ClassLibraryInitializer_Init_m988673678
IF:__ZN10SampleClip23VirtualRedirectTransferER24GenerateTypeTreeTransfer
sZa:__ZN16ReflectionProbes16UpdateSampleDataEv
Cii:__ZL90PlayerEditorConnectionEvents_t3411787513_CustomAttributesCacheGenerator_disconnectionEventP21CustomAttributesCache
P7e:_CultureInfo_GetCultureInfo_m56098747
a9a:__ZN14Texture2DArray5ResetEv
xXb:__Z20AddActiveLocalLightsR11CullResultsR27LocalLightCullingParametersPPK15SharedLightDataPK8Vector4fRK9IndexListPfRSA_R12ActiveLightsSG_P5RectTIfEP13TargetEyeMask
LVh:__ZL80Hashtable_t1853889766_CustomAttributesCacheGenerator_Hashtable__ctor_m1763145853P21CustomAttributesCache
tGf:_Convert_ToDecimal_m1284148187
YBh:_Collection_1__ctor_m3489157029_gshared
R0j:_emscripten_glRenderbufferStorage__wrapper
Iqj:__ZNK6il2cpp2vm14TypeNameParser10NextWillBeEcb
XCc:_cf2_getNormalizedVector
Te:_JS_Sound_Play
vde:_KeyCollection_GetEnumerator_m1862005650_gshared
$_c:__Z26GetUnityConnectSettingsPtrv
QKh:_ReadOnlyCollection_1_System_Collections_IList_set_Item_m1538987737_gshared
xha:__ZN9ShaderLab16SerializedShader8TransferI14SafeBinaryReadEEvRT_
oMa:__ZN5Mutex7TryLockEv
gid:_GridLayoutGroup_set_constraint_m3308895167
gki:__ZL103AudioSource_t3935305588_CustomAttributesCacheGenerator_AudioSource_ReadExtensionPropertyValue_m72717540P21CustomAttributesCache
axd:_ConstructionCallDictionary_SetMethodProperty_m3145285304
Acf:_Int32_System_IConvertible_ToUInt32_m3557270157
e8g:__Z243RuntimeInvoker_Void_t1185182177_Int16_t2552820387_RuntimeObject_Int32_t2950945753_Int32_t2950945753_Int32_t2950945753_SByte_t1669577662_SByte_t1669577662_SByte_t1669577662_SByte_t1669577662_Int16_t2552820387_SByte_t1669577662_SByte_t1669577662PFvvEPK10MethodInfoPvPS4_
sYd:_InternalEnumerator_1_System_Collections_IEnumerator_get_Current_m1503522504_gshared
FB:__ZN7mecanim8skeleton13SkeletonAlignEPKNS0_8SkeletonERKN4math7_float4ES7_i
D9b:__ZN19ShaderPropertySheet16SetVectorIndexedEN9ShaderLab16FastPropertyNameEifRK8Vector4fNS_8SetFlagsE
RYf:_Type_get_IsAbstract_m1120089130
urg:_Vector3_get_normalized_m2454957984_AdjustorThunk
uq:__ZN14SafeBinaryRead21TransferSTLStyleArrayIN4core12basic_stringIcNS1_20StringStorageDefaultIcEEEEEEvRT_17TransferMetaFlags
xKi:_UriFormatException__ctor_m1115096473
X$d:_InternalEnumerator_1_Dispose_m2818366163_AdjustorThunk
twf:_Array_InternalArray__IEnumerable_GetEnumerator_TisSlot_t384495010_m460993382_gshared
Ldi:__ZL114MonoBehaviour_t3962482529_CustomAttributesCacheGenerator_MonoBehaviour_StopCoroutineViaEnumerator_Auto_m3883784228P21CustomAttributesCache
Ftj:__ZN15dense_hashtableINSt3__24pairIK10KeyWrapperINS1_IP11Il2CppClassjEEES4_EES6_N6il2cpp8metadata14ArrayClassHashEN14dense_hash_mapIS6_S4_SB_NS6_14EqualsComparerINSA_17ArrayClassCompareEEENS0_9allocatorIS8_EEE9SelectKeyESF_SH_E9copy_fromERKSK_j
W1b:__Z29StdTemplateConversionFunctionIayEbPvR14SafeBinaryRead
sVf:_WaitHandle__ctor_m1707080176
Tmh:__Z55RuntimeInvoker_Boolean_t97287965_Nullable_1_t2603721331PFvvEPK10MethodInfoPvPS4_
DSi:_GUIUtility_IsExitGUIException_m3644066650
mV:__ZN11UnityEngine15CloudWebService14DataDispatcher4StopEv
Rcd:_ColorBlock_GetHashCode_m4264192507
vbf:_Int16_System_IConvertible_ToUInt64_m134975563
Uia:__ZNSt3__26vectorIN9ShaderLab20SerializedSubProgram12UAVParameterENS_9allocatorIS3_EEE8__appendEj
oZh:__ZL68TargetInvocationException_t4266643902_CustomAttributesCacheGeneratorP21CustomAttributesCache
Hnj:__ZNK15dense_hashtableINSt3__24pairIK10KeyWrapperINS1_IPK9EventInfoP11Il2CppClassEEEjEES9_17ReflectionMapHashIS8_EN14dense_hash_mapIS9_jSD_NS9_14EqualsComparerINS0_8equal_toIS8_EEEENS0_9allocatorISB_EEE9SelectKeyESI_SK_E12test_deletedERK24dense_hashtable_iteratorISB_S9_SD_SM_SI_SK_E
qqc:__ZN5IMGUI9GUIWindow5OnGUIER8GUIState
k1i:_AudioConfigurationChangeHandler_EndInvoke_m4175380841
tpf:_Single_System_IConvertible_ToDecimal_m325860800_AdjustorThunk
rBf:_Array_InternalArray__ICollection_CopyTo_TisSingle_t1397266774_m455540885_gshared
JNa:__ZN17ScriptingGCHandle7AcquireE18ScriptingObjectPtr25ScriptingGCHandleWeakness
sde:_KeyCollection_System_Collections_ICollection_get_IsSynchronized_m829086683_gshared
e6g:__Z74RuntimeInvoker_RuntimeObject_RuntimeObject_Int64_t3736567304_RuntimeObjectPFvvEPK10MethodInfoPvPS4_
PTc:__ZN2UI14CanvasRenderer14AttachToCanvasER8JobFencePNS_6CanvasENS0_15InstructionTypeE
die:_Enumerator__ctor_m1734342590_gshared
NYj:dynCall_iifiii
B7g:__Z85RuntimeInvoker_Int32_t2950945753_RuntimeObject_Int32U26_t1369213839_Int32_t2950945753PFvvEPK10MethodInfoPvPS4_
xya:__Z21HasAlphaTextureFormat13TextureFormat
jP:__ZN12AudioManager6UpdateEv
qya:__ZN14ImageReference9BlitImageERKS_NS_8BlitModeE
ct:__ZN8Animator12AddToManagerEv
twe:_MissingFieldException__ctor_m3742452630
ROe:_X509Chain__ctor_m2674663382
UJh:_ReadOnlyCollection_1_System_Collections_Generic_IListU3CTU3E_Insert_m1121807192_gshared
cHb:__ZN23CachedSerializationDataD2Ev
tZb:__ZNK25CameraStackRenderingState31CalculateStereoCameraTargetTypeEv
UYa:__ZN14RenderSettings23VirtualRedirectTransferER14SafeBinaryRead
V4d:_InternalEnumerator_1_get_Current_m114240259_gshared
YFj:__ZN6il2cpp2os10ThreadImpl15CurrentThreadIdEv
Pnh:_Array_InternalArray__Insert_TisVector2_t2156229523_m2148694950_gshared
UVa:__ZN17GlobalGameManager8TransferI17RemapPPtrTransferEEvRT_
Uwi:__ZL73FieldWithTarget_t3058750293_CustomAttributesCacheGenerator_m_StaticStringP21CustomAttributesCache
Llf:_SymmetricAlgorithm_get_Key_m3241860519
xMd:_U3CMouseDragOutsideRectU3Ec__Iterator1_Reset_m2233410497
Kpe:_ClientSessionInfo_get_HostName_m2118440995
zYa:__ZN16LevelGameManager8TransferI18StreamedBinaryReadILb0EEEEvRT_
vLc:_UNITY_tt_face_load_fpgm
QRa:__Z17IsObjectAvailablei
l8e:_DateTimeFormatInfo_get_ShortTimePattern_m453440268
DWg:_Queue_1_Peek_m1713833142_gshared
i1h:__ZL64DSASignatureFormatter_t2007981259_CustomAttributesCacheGeneratorP21CustomAttributesCache
CVf:_ExecutionContext_Capture_m681135907
uxg:_Dictionary_2_System_Collections_IDictionary_Add_m4011968134_gshared
uDb:__Z18Transfer_BlittableI18StreamedBinaryReadILb0EELb1EtEvRK29SerializationCommandArgumentsR31RuntimeSerializationCommandInfo
KZd:_InternalEnumerator_1_System_Collections_IEnumerator_get_Current_m2889979481_AdjustorThunk
NVj:_posix_memalign
mlg:_Rect_get_position_m2115952571
gIh:_ReadOnlyCollection_1_get_Item_m4005849861_gshared
RUd:_Slider_get_direction_m3871593184
Y5f:_ASN1_GetBytes_m3305539297
IUg:_List_1_Remove_m2092116835_gshared
tii:__ZL86Logger_t274032455_CustomAttributesCacheGenerator_Logger_LogFormat_m3030796110____args2P21CustomAttributesCache
h5h:__ZL77Convert_t2465617642_CustomAttributesCacheGenerator_Convert_ToSByte_m717245755P21CustomAttributesCache
l7d:_DefaultComparer__ctor_m2039558311_gshared
u_:__ZNK15MonoScriptCache7ReleaseEv
q7i:__ZN6il2cpp2vm5Class13HasReferencesEP11Il2CppClass
S$e:_CLSCompliantAttribute__ctor_m581760440
gg:_glBindTexture
cUj:_snprintf
Cef:_InvalidCastException__ctor_m2551002860
Uch:__Z50RuntimeInvoker_RuntimeObject_Resources_t1597885468PFvvEPK10MethodInfoPvPS4_
g2j:_emscripten_glVertexAttrib1fv__wrapper
Qih:__Z76RuntimeInvoker_Void_t1185182177_Int32_t2950945753_KeyValuePair_2_t2401056908PFvvEPK10MethodInfoPvPS4_
Jkb:__Z36scripting_liveness_calculation_begin17ScriptingClassPtriPFvPP12Il2CppObjectiPvES3_PFvvES7_
X0i:_AudioExtensionManager_RemoveExtensionFromManager_m442924172
F0j:_emscripten_glGetProgramInfoLog__wrapper
eE:__ZN25AnimatedPropertyEvaluator29BindCurveToScriptingObjectPtrERKN13AnimationClip10FloatCurveEj18ScriptingObjectPtrb
s2h:__ZL80AllowPartiallyTrustedCallersAttribute_t1828959166_CustomAttributesCacheGeneratorP21CustomAttributesCache
Bvh:_Collection_1_SetItem_m1090516645_gshared
Tpi:__ZL52InputMode_t3382566315_CustomAttributesCacheGeneratorP21CustomAttributesCache
s0:__ZN17PersistentManager23DestroyFromFileInternalEi
ydg:_Display__ctor_m501911701
CGh:_ReadOnlyCollection_1_System_Collections_Generic_IListU3CTU3E_Insert_m1020890112_gshared
Red:_Dropdown_get_onValueChanged_m2462066659
aed:_DefaultControls_SetDefaultTextValues_m1943359795
DSb:__Z19SetupMotionMatricesR6CameraR18RPDataMotionVector
_4i:__ZL7log2_64y
_C:__ZN26AnimatorControllerPlayable18PrepareForPlaybackERN7mecanim6memory9AllocatorE
wD:__ZN8Animator11AnimatorJob11AddPlayableEP17AnimationPlayablef
bid:_GridLayoutGroup_get_cellSize_m2967185053
UJf:_CurrentSystemTimeZone_GetUtcOffset_m340358963
HAi:_PKCS12_Decrypt_m1280162536
v5i:_CustomEventData_AddChar_m2745147926
TZd:_InternalEnumerator_1_get_Current_m3081223448_gshared
kQi:_Event_get_isMouse_m1058251071
bXa:__ZN10VertexDataC2ERKS_17ShaderChannelMask10MemLabelId
H2e:_CaseInsensitiveHashCodeProvider_AreEqual_m1790260777
awh:_Collection_1_IndexOf_m3762683187_gshared
cGc:_otv_JSTF_validate
T4:__ZN22CreateGpuProgramOutputC2Ev
zje:_BigInteger_op_LessThanOrEqual_m3925173639
Keg:_PersistentCallGroup_Initialize_m4253175514
ZYe:_Boolean_System_IConvertible_ToChar_m4279513009_AdjustorThunk
D3e:_Hashtable__ctor_m1763145853
pxd:_LogicalCallContext__ctor_m1263247987
aze:_NumberFormatter_ScaleOrder_m3813786990
iKg:_List_1_GetEnumerator_m239622569_gshared
Rqi:__ZL60OptionData_t3270282352_CustomAttributesCacheGenerator_m_TextP21CustomAttributesCache
Zch:__Z43RuntimeInvoker_VerticalWrapMode_t2936607737PFvvEPK10MethodInfoPvPS4_
GKa:__ZN11SpriteAtlas8TransferI14SafeBinaryReadEEvRT_
c8f:_PrivateKeyInfo_DecodeDSA_m771724585
M4h:__ZL81Convert_t2465617642_CustomAttributesCacheGenerator_Convert_ToDateTime_m1031474510P21CustomAttributesCache
tlj:__ZNK15dense_hashtableINSt3__24pairIK10KeyWrapperINS1_IPK10MethodInfoP11Il2CppClassEEEjEES9_17ReflectionMapHashIS8_EN14dense_hash_mapIS9_jSD_NS9_14EqualsComparerINS0_8equal_toIS8_EEEENS0_9allocatorISB_EEE9SelectKeyESI_SK_E23find_position_with_hashERSA_j
AYc:__Z38CustomEventData_CUSTOM_InternalDestroyP12Il2CppObject
Wni:__ZL53EventHandle_t600343995_CustomAttributesCacheGeneratorP21CustomAttributesCache
xac:__ZN8GUILayer12CleanupClassEv
N1e:_SynchronizedArrayListWrapper_get_SyncRoot_m3862302789
zMg:_List_1_System_Collections_IEnumerable_GetEnumerator_m839737540_gshared
z$f:_UInt32_System_IConvertible_ToSByte_m1061556466
DBd:_WellKnownClientTypeEntry__ctor_m2471908952
p7i:__ZN6il2cpp2vm5Class4InitEP11Il2CppClass
ga:invoke_vidi
v0a:__ZN8Material17MainThreadCleanupEv
hBd:_RemotingServices_CreateClientProxyForContextBound_m783705199
$dh:__Z30RuntimeInvoker_Axis_t809944411PFvvEPK10MethodInfoPvPS4_
TXe:_Array_slow_swapper_m4116724811
Axi:_InternalAsyncResult_get_ProceedAfterHandshake_m2508379800
eUc:__ZN2UI14CanvasRenderer17SyncDirtyElementsER8JobFence
qDb:__Z18Transfer_BlittableI18StreamedBinaryReadILb0EELb0ExEvRK29SerializationCommandArgumentsR31RuntimeSerializationCommandInfo
MIf:_Convert_ToUInt16_m2952781888
kae:_Enumerator_System_Collections_IEnumerator_get_Current_m3816090481_gshared
RIj:__ZN6il2cpp5utils11StringUtils15StringDuplicateEPKc
dAg:_DefaultComparer_Equals_m2480133610_gshared
j4:__ZNK9ShaderLab21ShaderRasterStateDesc16ToGfxRasterStateEPK19ShaderPropertySheetS3_R14GfxRasterState
Sqh:_Array_Sort_TisVector3_t3722313464_m1915176437_gshared
iSj:__ZN6il2cpp2os9EventImplC2Ebb
PKg:_List_1_System_Collections_IList_get_IsFixedSize_m3566150119_gshared
jr:__ZN4PPtrI13MonoBehaviourE8TransferI19StreamedBinaryWriteILb0EEEEvRT_
gQg:_List_1_get_Item_m2113769949_gshared
WUa:__ZN12FlareManager12RemoveCameraER6Camera
Rng:_ScriptableObject_t2528358522_marshal_pinvoke
h5:__Z20IsMatrixBuiltinParamPKcPi
foj:__ZN6il2cpp2gc19AppendOnlyGCHashMapINSt3__24pairIPK10MethodInfoP11Il2CppClassEEP11Il2CppArray17ReflectionMapHashIS9_ENS2_8equal_toIS9_EEEC2Ev
cnf:_String_memcpy4_m979367827
Rof:_SecurityFrame_t1422462475_marshal_pinvoke
Alj:__ZN15dense_hashtableINSt3__24pairIK10KeyWrapperINS1_IPK10MethodInfoP11Il2CppClassEEEjEES9_17ReflectionMapHashIS8_EN14dense_hash_mapIS9_jSD_NS9_14EqualsComparerINS0_8equal_toIS8_EEEENS0_9allocatorISB_EEE9SelectKeyESI_SK_E16reset_thresholdsEv
GTf:_UnicodeEncoding_GetBytesInternal_m1902824297
k9b:__ZN8Renderer19PostInitializeClassEv
Txf:_Array_FindIndex_TisRuntimeObject_m2504082708_gshared
G5f:__ZN21InterfaceFuncInvoker2IbP22BigInteger_t2902905089iE6InvokeEjP11Il2CppClassP12Il2CppObjectS1_i
yCi:_X509Chain_FindCertificateRoot_m1937726457
Eif:_StreamAsyncResult_get_AsyncWaitHandle_m3390046559
wOj:__ZN6il2cpp6icalls8mscorlib6System8Delegate23CreateDelegate_internalEP20Il2CppReflectionTypeP12Il2CppObjectP22Il2CppReflectionMethodb
lbe:_Enumerator_System_Collections_IEnumerator_get_Current_m921113401_AdjustorThunk
zYb:__ZNK13RendererScene22GetStaticBoundingBoxesEv
wGb:__ZN18DelayedCallManager18CancelCallDelayed2E4PPtrI6ObjectEPF15CallObjectStatePS1_PvES7_
yhg:_Matrix4x4_GetHashCode_m4034747639
uLa:__ZN25ThreadsafeLinearAllocator10ReallocateEPvji
vqb:__Z18Transfer_BlittableI14SafeBinaryReadLb1E11QuaternionfEvRK29SerializationCommandArgumentsR31RuntimeSerializationCommandInfo
Rga:__ZN18SpriteAtlasManagerD0Ev
dEg:_GenericEqualityComparer_1__ctor_m1058369027_gshared
kWi:_ToggleGroup_set_allowSwitchOff_m4192200290
lgh:__Z57RuntimeInvoker_Boolean_t97287965_KeyValuePair_2_t71524366PFvvEPK10MethodInfoPvPS4_
abb:__ZN10Matrix4x4f8TransferI14SafeBinaryReadEEvRT_
Gmj:__ZNK10KeyWrapperINSt3__24pairIPK12PropertyInfoP11Il2CppClassEEE14EqualsComparerINS0_8equal_toIS7_EEEclERKS8_SE_
iGd:_CryptographicUnexpectedOperationException__ctor_m2381988196
Koj:__ZN14dense_hash_mapI10KeyWrapperIPK22Il2CppGenericParameterEPK24MonoGenericParameterInfoN6il2cpp5utils11PointerHashIS2_EENS4_14EqualsComparerINSt3__28equal_toIS3_EEEENSD_9allocatorINSD_4pairIKS4_S7_EEEEE15set_deleted_keyERSJ_
UC:__ZN14AvatarPlayback8StopTimeEv
w0d:_InternalEnumerator_1_System_Collections_IEnumerator_get_Current_m4213507601_gshared
xba:__Z6AppendRKN4core12basic_stringIcNS_20StringStorageDefaultIcEEEEPKc
Glh:__Z74RuntimeInvoker_DictionaryEntry_t3123975638_RuntimeObject_SByte_t1669577662PFvvEPK10MethodInfoPvPS4_
Ikb:__ZL14OnWorldStoppedv
Cwf:_Array_InternalArray__IEnumerable_GetEnumerator_TisCustomAttributeNamedArgument_t287865710_m523021714_gshared
tEh:__ZN21InterfaceFuncInvoker1I19Vector4_t3319028937iE6InvokeEjP11Il2CppClassP12Il2CppObjecti
fAb:__Z18Transfer_BlittableI18StreamedBinaryReadILb1EELb0E8Vector3fEvRK29SerializationCommandArgumentsR31RuntimeSerializationCommandInfo
u4e:_HashKeys_get_SyncRoot_m3757723936
wSi:_GUIUtility_RemoveCapture_m1294193818
qua:__ZN7ApiGLES18ClearBufferSubDataEjN2gl12BufferTargetEll
Qic:__Z37Camera_Get_Custom_PropAllCamerasCountv
w9a:__ZN14Texture2DArray8TransferI18StreamedBinaryReadILb0EEEEvRT_
BTg:_List_1_CopyTo_m2746988508_gshared
GWb:__Z18ApplyOcclusionMaskR19ProbeOcclusionCacheRK17LightProbeContextRK10RenderNodeb
YMc:_Split_Cubic
db:invoke_fiiii
WLd:_InputField_OnSubmit_m3583210804
E9h:__ZL64CipherSuiteCollection_t1129639304_CustomAttributesCacheGeneratorP21CustomAttributesCache
Uli:__ZL72GUISkin_t1244372282_CustomAttributesCacheGenerator_m_horizontalScrollbarP21CustomAttributesCache
JJi:_Uri_CheckHostName_m2213216182
d2j:_emscripten_glBindRenderbuffer__wrapper
Hsh:_Mesh_SetUvsImpl_TisVector2_t2156229523_m3009194955_gshared
v1f:_ValueType_InternalEquals_m1384040357
Uqh:_Array_Sort_TisVector4_t3319028937_TisVector4_t3319028937_m4254533673_gshared
J4d:_InternalEnumerator_1_System_Collections_IEnumerator_Reset_m729791527_AdjustorThunk
S0e:_ArrayListWrapper_Contains_m2641184447
KMc:_ft_black_render
n3g:__Z177RuntimeInvoker_Int32_t2950945753_RuntimeObject_Int32_t2950945753_Int32_t2950945753_RuntimeObject_Int32_t2950945753_EncoderFallbackBufferU26_t2343550713_CharU5BU5DU26_t3299466565PFvvEPK10MethodInfoPvPS4_
_Zj:dynCall_viiifi
$Ca:__ZN18GfxFramebufferGLES20ActiveContextChangedEPP17RenderSurfaceBaseS2_
b0e:_ArrayList_get_IsFixedSize_m24366329
SCa:__Z19PluginsRenderMarkeri
K6d:_InternalEnumerator_1__ctor_m2307827786_AdjustorThunk
OE:__ZN10HumanTrait18InitializeBoneNameEv
$ia:__ZNSt3__26vectorIN9ShaderLab20SerializedSubProgram15StructParameterENS_9allocatorIS3_EEE6assignINS_11__wrap_iterIPS3_EEEENS_9enable_ifIXaasr21__is_forward_iteratorIT_EE5valuesr16is_constructibleIS3_NS_15iterator_traitsISC_E9referenceEEE5valueEvE4typeESC_SC_
$8a:__ZN14Texture2DArray21AwakeFromLoadThreadedEv
qEb:__Z29Transfer_Blittable_ArrayFieldI18StreamedBinaryReadILb0EEyEvRT_R9ArrayInfoRK23StaticTransferFieldInfo
gpg:_Touch_get_position_m3109777936_AdjustorThunk
uBj:__ZNSt3__214__split_bufferIN6il2cpp2vm5Image20EmbeddedResourceDataERNS_9allocatorIS4_EEEC2EjjS7_
rbd:_CanvasScaler_set_screenMatchMode_m2975492035
pH:__ZN12AudioManager17RemoveAudioSourceEP11AudioSource
$Ne:_X509Certificate2Collection_Add_m3151757943
WTh:__ZL83RuntimeArray_CustomAttributesCacheGenerator_RuntimeArray____LongLength_PropertyInfoP21CustomAttributesCache
N8d:_Comparer_1__cctor_m951016718_gshared
L2e:_CaseInsensitiveHashCodeProvider_get_DefaultInvariant_m4264275163
H6h:__ZL67IndexOutOfRangeException_t1578797820_CustomAttributesCacheGeneratorP21CustomAttributesCache
F3g:__Z195RuntimeInvoker_Int32_t2950945753_RuntimeObject_Int32_t2950945753_Int32_t2950945753_Int32_t2950945753_RuntimeObject_DecoderFallbackBufferU26_t3866396827_ByteU5BU5DU26_t4057885439_SByte_t1669577662PFvvEPK10MethodInfoPvPS4_
QEi:_MatchCollection_get_Count_m1586545784
VQ:__ZN5physx14PxLightCpuTask12addReferenceEv
LWa:__ZNK15InstancingProps35FillInstanceBufferDispatchConstantsIN10Instancing14RenderLoopArgsEEEvPPvjjRK19ShaderPropertySheetRKT_
Ygh:__Z86RuntimeInvoker_Int32_t2950945753_Color32_t2600501292_Color32_t2600501292_RuntimeObjectPFvvEPK10MethodInfoPvPS4_
_5a:__ZN21EnlightenSceneMapping8TransferI19StreamedBinaryWriteILb0EEEEvRT_
hDj:__ZN6il2cpp2gc16GarbageCollector19InitializeFinalizerEv
Uy:__ZN7mecanim8skeleton18CreateSkeletonMaskEjPKNS0_19SkeletonMaskElementERNS_6memory9AllocatorE
HLh:_ReadOnlyCollection_1_System_Collections_Generic_ICollectionU3CTU3E_get_IsReadOnly_m2508509261_gshared
Xpc:__ZN10GUIManager10DoGUIEventER10InputEventb
nwb:__Z35Transfer_Blittable_FixedBufferFieldI24GenerateTypeTreeTransferxEvRK29SerializationCommandArgumentsR31RuntimeSerializationCommandInfo
SGc:_otv_LangSys_validate
nmg:_RectOffset_get_right_m2294081512
Nld:__ZN25GenericVirtActionInvoker1IP20Delegate_t1188392813E6InvokeEPK10MethodInfoP12Il2CppObjectS1_
coh:_Array_InternalArray__set_Item_TisLink_t544317964_m1234244240_gshared
BLc:_UNITY_TT_Init_Glyph_Loading
ERb:__Z20CalculateSqrDistanceRK8Vector3fRK4AABB
Xed:_OptionData_get_text_m2997376818
mce:_Enumerator__ctor_m324536319_gshared
ide:_KeyCollection_get_Count_m1441964482_gshared
cEd:_SerializationInfo_GetBoolean_m1756153320
PL:__Z32AudioMixerDuckingProcessCallbackP21UnityAudioEffectStatePfS1_jii
iSd:_U3CClickRepeatU3Ec__Iterator0_System_Collections_IEnumerator_get_Current_m543328413
dig:_Mesh_get_uv2_m3615020997
tGh:_ReadOnlyCollection_1_Contains_m2979956790_gshared
o8b:__ZN26CustomRenderTextureManagerD2Ev
dBg:_EqualityComparer_1_System_Collections_IEqualityComparer_Equals_m4172006498_gshared
hI:__ZN12AudioManager8TransferI24GenerateTypeTreeTransferEEvRT_
gph:_Array_qsort_TisOrderBlock_t1585977831_m3322202512_gshared
khg:_Mathf_Round_m4098141538
uxa:__Z25GetBytesFromTextureFormat13TextureFormat
T9a:__ZN9Texture3D19UnloadFromGfxDeviceEb
Kwj:__ZN6il2cpp6icalls8mscorlib6System9Threading6Thread20Thread_free_internalEP12Il2CppThreadi
_Xj:dynCall_iiffi
wub:__Z18Transfer_BlittableI17RemapPPtrTransferLb0EsEvRK29SerializationCommandArgumentsR31RuntimeSerializationCommandInfo
Rwh:_Collection_1_get_Item_m4103760396_gshared
OIe:__KeysEnumerator_get_Current_m2996478063
Qwe:_AmbiguousMatchException__ctor_m2012725345
ZD:__ZN16MecanimAnimation25RegisterIAnimationBindingEPKN5Unity4TypeEiP17IAnimationBinding
g0:__Z32scripting_class_get_assemblyname17ScriptingClassPtr
TZc:__ZN11UnityEngine15PlatformWrapper15GetVRDeviceNameEv
Avi:__ZL109LayoutUtility_t2745813735_CustomAttributesCacheGenerator_LayoutUtility_U3CGetFlexibleWidthU3Em__3_m1091238571P21CustomAttributesCache
Gch:__Z99RuntimeInvoker_Boolean_t97287965_Int32_t2950945753_PointerEventDataU26_t867828220_SByte_t1669577662PFvvEPK10MethodInfoPvPS4_
c$d:_InternalEnumerator_1_get_Current_m2128158355_AdjustorThunk
WIa:__ZN9GfxDevice21RegisterNativeTextureE9TextureIDi16TextureDimension
Ngd:_GraphicRegistry__ctor_m1851575309
Cih:__Z52RuntimeInvoker_Void_t1185182177_Keyframe_t4206410242PFvvEPK10MethodInfoPvPS4_
E7h:__ZL53TypeFilter_t2356120900_CustomAttributesCacheGeneratorP21CustomAttributesCache
MPj:__ZN6il2cpp6icalls8mscorlib6System10Reflection4Emit11TypeBuilder20create_generic_classEP27Il2CppReflectionTypeBuilder
ykf:_SHA1Internal_FillBuff_m3615718415
Fvf:_PlayableHandle_IsPlayableOfType_TisAnimationLayerMixerPlayable_t3631223897_m201603007_gshared
F3h:__ZL50Monitor_t2197244473_CustomAttributesCacheGeneratorP21CustomAttributesCache
Zgj:__ZNSt3__26vectorIPK10MethodInfoNS_9allocatorIS3_EEE26__swap_out_circular_bufferERNS_14__split_bufferIS3_RS5_EE
qKj:__GLOBAL__sub_I_Assembly_cpp_41499
Sje:_PrimalityTest_EndInvoke_m1035389364
AQ:__Z60Register_UnityEngine_AudioListener_GetNumExtensionPropertiesv
$i:_emscripten_glUniformMatrix4fv
Utj:__ZN15dense_hashtableINSt3__24pairIK10KeyWrapperINS1_IP11Il2CppClassjEEES4_EES6_N6il2cpp8metadata14ArrayClassHashEN14dense_hash_mapIS6_S4_SB_NS6_14EqualsComparerINSA_17ArrayClassCompareEEENS0_9allocatorIS8_EEE9SelectKeyESF_SH_E13set_empty_keyERKS8_
qlb:__ZN12ScriptMapperD2Ev
jie:_Enumerator_Dispose_m3040896940_AdjustorThunk
Q5j:b100
gig:_Mesh_get_colors32_m1253190811
MLj:_GC_stopped_mark
p9f:_AnimationCurve_Finalize_m2397002729
oWd:_Text_OnEnable_m616205807
inh:__Z50RuntimeInvoker_RuntimeObject_ColorTween_t809614380PFvvEPK10MethodInfoPvPS4_
q6d:_InternalEnumerator_1__ctor_m945079686_AdjustorThunk
JDd:_SerializationCallbacks__cctor_m1674315180
hYg:__Z194RuntimeInvoker_Void_t1185182177_ByteU2AU26_t57153304_ByteU2AU26_t57153304_DoubleU2AU26_t3650786047_UInt16U2AU26_t531067350_UInt16U2AU26_t531067350_UInt16U2AU26_t531067350_UInt16U2AU26_t531067350PFvvEPK10MethodInfoPvPS4_
dka:__Z32TransferEnumWithNameForceIntSizeI14SafeBinaryRead7FogModeEvRT_RT0_PKc17TransferMetaFlags
cnc:__Z52Register_UnityEngine_RenderTexture_Internal_GetWidthv
FYi:__ZL25UnresolvedVirtualCall_100P12Il2CppObjectiPK10MethodInfo
$la:__ZN9ShaderLab20SerializedSubProgram16TextureParameter8TransferI19StreamedBinaryWriteILb0EEEEvRT_
OKa:__ZNK7Hash12812PackToUInt32Ev
T1e:_SynchronizedArrayListWrapper_IndexOf_m3642674350
W1:__ZNSt3__227__insertion_sort_incompleteIRNS_6__lessI14ObjectLoadDataS2_EEPS2_EEbT0_S6_T_
uV:__ZN11UnityEngine15CloudWebService16SessionContainer8AddEventEPNS0_14CloudEventInfoE
LHa:__Z4TrimRKN4core12basic_stringIcNS_20StringStorageDefaultIcEEEES5_
iJh:_ReadOnlyCollection_1_CopyTo_m209634623_gshared
Xrh:_Dictionary_2_Do_ICollectionCopyTo_TisKeyValuePair_2_t3842366416_m1399105608_gshared
goi:__ZL77ExecuteEvents_t3484638744_CustomAttributesCacheGenerator_U3CU3Ef__mgU24cache2P21CustomAttributesCache
lNe:_X509Certificate2_Import_m4026562329
Ace:_Enumerator_System_Collections_IEnumerator_get_Current_m2763095718_AdjustorThunk
m3j:_glGetStringi__wrapper
W7a:__ZN10VertexData8TransferI14SafeBinaryReadEEvRT_
yJ:__ZN4FMOD8ChannelI8setDelayE14FMOD_DELAYTYPEjj
ANj:_GC_malloc_atomic
Jsd:_ActivatedClientTypeEntry_ToString_m2494181680
cFg:_HashSet_1_GetEnumerator_m3346268098_gshared
jQj:__ZN6il2cpp5utils6Memory13AlignedMallocEjj
vkg:_PropertyName_GetHashCode_m3570549176_AdjustorThunk
Rgi:__ZL55PropertyName_t3749835189_CustomAttributesCacheGeneratorP21CustomAttributesCache
aMd:_Selectable_get_animator_m2899312855
Acg:__ZN23GenericVirtFuncInvoker5I19CSSSize_t3377836552ififiE6InvokeEPK10MethodInfoP12Il2CppObjectififi
oZ:__ZL20SortItemByInstanceIDRKN18AwakeFromLoadQueue4ItemES2_
arg:_Vector2_op_Multiply_m2347887432
bgd:_FontData_get_maxSize_m195374730
eJe:_TypeConverterAttribute__ctor_m1774069684
dz:__ZNK34AnimationStateMachineMixerPlayable26GetInterruptedPosePlayableEv
M0c:__ZN20UnityConnectSettings8TransferI24GenerateTypeTreeTransferEEvRT_
gB:__ZN34BlobWriteTransferSTLStyleArrayImplI22OffsetPtrArrayTransferIbEEclERS1_17TransferMetaFlagsR9BlobWrite
ZTe:_Byte_ToString_m4063101981
Fxe:_MonoType_GetConstructors_m2574682189
V_i:__ZL25UnresolvedVirtualCall_224P12Il2CppObjectfPK10MethodInfo
ZHj:__ZNK15dense_hashtableINSt3__24pairIK10KeyWrapperIPK19Il2CppGenericMethodEP10MethodInfoEES6_N6il2cpp8metadata23Il2CppGenericMethodHashEN14dense_hash_mapIS6_S9_SD_NS6_14EqualsComparerINSC_26Il2CppGenericMethodCompareEEENS0_9allocatorISA_EEE9SelectKeyESH_SJ_E10test_emptyERK30dense_hashtable_const_iteratorISA_S6_SD_SL_SH_SJ_E
W_h:__ZL59SinkProviderData_t4151372974_CustomAttributesCacheGeneratorP21CustomAttributesCache
WJe:_ServicePointManager_FindServicePoint_m4119451290
t7d:__ZN21InterfaceFuncInvoker1Ii22OrderBlock_t1585977831E6InvokeEjP11Il2CppClassP12Il2CppObjectS0_
bda:__ZL31InitializeRendererUpdateManagerPv
xpd:_ParameterInfo__ctor_m2779026345
VJd:_InputField_set_onValueChange_m1251390545
lgd:_FontData_get_verticalOverflow_m4132840071
SUc:__ZN2UI13CanvasManager14GetRenderOrderEPKNS_6CanvasE
xze:_NumberFormatter_get_IsZeroInteger_m2263284741
JP:__ZN13AudioListener12CleanupClassEv
wda:__Z13GetIEnlightenv
eog:_HitInfo_t3229609740_marshal_pinvoke
Xyi:_X509Certificate_PEM_m2020851166
u5f:_BigInteger_op_GreaterThanOrEqual_m700865613
bCf:_Array_InternalArray__Insert_TisDateTime_t3738529785_m2308632330_gshared
vjf:_RNGCryptoServiceProvider_RngGetBytes_m1695806698
Bre:_TlsServerCertificateRequest_ProcessAsTls1_m3214041063
mHc:_compare_uni_maps
Pah:__Z72RuntimeInvoker_Boolean_t97287965_Vector2_t2156229523_Vector2_t2156229523PFvvEPK10MethodInfoPvPS4_
J_c:__ZN11UnityEngine15PlatformWrapper27GetGraphicsCapsSupportFlagsEv
kSc:__ZNSt3__218__insertion_sort_3IRPFbPN2UI6CanvasES3_EPS3_EEvT0_S8_T_
Yrh:_Dictionary_2_Do_ICollectionCopyTo_TisRuntimeObject_m3695543300_gshared
Qzb:__ZN12NativeBufferI16Converter_StringE15SetupForWritingER9ArrayInfo
A5f:_SequentialSearchPrimeGeneratorBase_GenerateSearchBase_m3595783982
iga:__ZN13RuntimeStaticI18AssetBundleManagerLb1EE16StaticInitializeEPv
H$j:___cxa_end_catch__wrapper
C7g:__Z121RuntimeInvoker_Int32_t2950945753_RuntimeObject_Int32U26_t1369213839_Int32_t2950945753_Int32_t2950945753_Int32_t2950945753PFvvEPK10MethodInfoPvPS4_
I$e:_Char_ToString_m278452217
yne:_CipherSuite_get_DecryptionCipher_m2839827488
vXg:__Z32RuntimeInvoker_Boolean_t97287965PFvvEPK10MethodInfoPvPS4_
pTb:__ZNK4PPtrI5LightEcvPS0_Ev
uje:_BigInteger_op_RightShift_m460065452
fHb:__ZN13MonoBehaviour22DoScriptRebuildWarningEv
Sic:__Z38Camera_CUSTOM_INTERNAL_CALL_RaycastTryP12Il2CppObjectRK3Rayfi
Mvj:__ZN6il2cpp6icalls8mscorlib6System5Array13ClearInternalEP11Il2CppArrayii
qQd:_RectMask2D_get_rootCanvasRect_m2913509457
kRc:__Z38TextGenerator_Get_Custom_PropLineCountP12Il2CppObject
gyi:_InternalAsyncResult_SetComplete_m963842420
$Rf:_Encoding_GetEncoding_m2801244948
Zqc:__ZN11IMGUIModule25GetGUIStyleScriptingClassEv
QJc:_tt_get_interface
kyi:_SslStreamBase_EndRead_m495357226
vwj:__ZN6il2cpp5utils9PathUtils7CombineIcEENSt3__212basic_stringIT_NS3_11char_traitsIS5_EENS3_9allocatorIS5_EEEERKSA_SC_
Hwc:__ZN9JSONWrite8TransferI13dynamic_arrayIiLj4EEEEvRT_PKc17TransferMetaFlags
OAh:_Collection_1_System_Collections_IList_get_IsFixedSize_m214626114_gshared
Y5g:__Z64RuntimeInvoker_RuntimeObject_SByte_t1669577662_SByte_t1669577662PFvvEPK10MethodInfoPvPS4_
lH:__ZL16FMOD_ErrorString11FMOD_RESULT_363
Ccc:__ZN13PlayableGraph21InvalidateMultithreadEv
XGg:_Enumerator_System_Collections_IEnumerator_get_Current_m713684915_AdjustorThunk
DDg:_GenericComparer_1_Compare_m459680062_gshared
REe:_EnumBuilder_GetConstructorImpl_m3068576149
V_:__Z18ConvertUTF16toUTF8PPKtS0_PPhS2_15ConversionFlags
sHj:__ZN6il2cpp2os20PathErrnoToErrorCodeERKNSt3__212basic_stringIcNS1_11char_traitsIcEENS1_9allocatorIcEEEEi
Vri:__ZL68InputField_t3762917431_CustomAttributesCacheGenerator_m_KeyboardTypeP21CustomAttributesCache
Clf:_SymmetricAlgorithm_System_IDisposable_Dispose_m3402297829
Cfc:__Z24GetActualTargetFrameRatev
N4i:__ZL16my_g_bit_nth_msfj
Z6h:__ZL65NonSerializedAttribute_t2945079482_CustomAttributesCacheGeneratorP21CustomAttributesCache
huj:__ZN15dense_hashtableINSt3__24pairIK10KeyWrapperIP11Il2CppClassES4_EES5_N6il2cpp8metadata16SZArrayClassHashEN14dense_hash_mapIS5_S4_SA_NS5_14EqualsComparerINS9_19SZArrayClassCompareEEENS0_9allocatorIS7_EEE9SelectKeyESE_SG_E12expand_arrayEjN21dense_hash_map_traits17integral_constantIbLb0EEE
rbg:__ZN30GenericInterfaceActionInvoker1IP18Camera_t4157153871E6InvokeEPK10MethodInfoP12Il2CppObjectS1_
izg:_DefaultComparer_GetHashCode_m3369508712_gshared
_Vg:_Enumerator_MoveNext_m3662315381_AdjustorThunk
jre:_TlsClientFinished_ProcessAsTls1_m2429863130
Gsd:_ActivatedClientTypeEntry_get_ApplicationUrl_m2894992111
QPb:__Z23SetupStereoFlareElementP11FlareVertexRK8Vector2fS3_S3_RK11ColorRGBA32RK10Matrix4x4fRK8Vector3fb
kXi:__ZL24UnresolvedVirtualCall_25P12Il2CppObjectS0_S0_PK10MethodInfo
D7i:__ZN6il2cpp2vm5Class15GetInstanceSizeEPK11Il2CppClass
u1f:_ValueType__ctor_m2036258423
sa:invoke_iiiifiiii
$Jd:_InputField_EnforceContentType_m2436948794
$Ah:__ZN23InterfaceActionInvoker2Ii20UICharInfo_t75501106E6InvokeEjP11Il2CppClassP12Il2CppObjectiS0_
Qtj:__ZNK15dense_hashtableINSt3__24pairIK10KeyWrapperINS1_IP11Il2CppClassjEEES4_EES6_N6il2cpp8metadata14ArrayClassHashEN14dense_hash_mapIS6_S4_SB_NS6_14EqualsComparerINSA_17ArrayClassCompareEEENS0_9allocatorIS8_EEE9SelectKeyESF_SH_E12test_deletedERK30dense_hashtable_const_iteratorIS8_S6_SB_SJ_SF_SH_E
bsf:_String_Join_m2050845953
Aee:_ShimEnumerator_MoveNext_m2406150314_gshared
VDa:__ZL19BlitFramebufferImplRN4gles23BlitFramebufferDrawQuadER9GfxDevice9TextureIDRK8Vector4f
_tb:__Z18Transfer_BlittableI17RemapPPtrTransferLb0EhEvRK29SerializationCommandArgumentsR31RuntimeSerializationCommandInfo
Dkj:__ZN15dense_hashtableINSt3__24pairIK10KeyWrapperIPK10Il2CppTypeEjEES6_N6il2cpp8metadata14Il2CppTypeHashEN14dense_hash_mapIS6_jSB_NS6_14EqualsComparerINSA_26Il2CppTypeEqualityComparerEEENS0_9allocatorIS8_EEE9SelectKeyESF_SH_E4findERS7_
KYj:dynCall_viiiiiiiiiiiiii
fLc:_UNITY_FT_List_Add
O8b:__ZN14Texture2DArray11InitTextureEiii13TextureFormatb
Tzi:_X509Extension__ctor_m1474351312
Z2h:__ZL104Encoding_t1523322056_CustomAttributesCacheGenerator_Encoding_t1523322056____DecoderFallback_PropertyInfoP21CustomAttributesCache
zLi:_InvokableCall_1_Invoke_m1524307439_gshared
z2a:__ZN12CubemapArray21AwakeFromLoadThreadedEv
jff:_Directory_CreateDirectoriesInternal_m3735342319
eqi:__ZL108U3CStartU3Ec__Iterator0_t1249263001_CustomAttributesCacheGenerator_U3CStartU3Ec__Iterator0__ctor_m1316384627P21CustomAttributesCache
pKg:_List_1_RemoveAll_m517055598_gshared
kOd:_LayoutUtility_GetLayoutProperty_m3731360667
zpj:__ZN15dense_hashtableINSt3__24pairIK10KeyWrapperINS1_IPK11Il2CppImageP11Il2CppClassEEEjEES9_17ReflectionMapHashIS8_EN14dense_hash_mapIS9_jSD_NS9_14EqualsComparerINS0_8equal_toIS8_EEEENS0_9allocatorISB_EEE9SelectKeyESI_SK_E14squash_deletedEv
Alf:_SHAConstants__cctor_m1699027474
Dnd:_MonoEventInfo_t346866618_marshal_pinvoke_back
sY:__ZNK6Camera26GetStereoSingleCullEnabledEv
vKg:_List_1_TrimExcess_m4121641494_gshared
Y4h:__ZL78Convert_t2465617642_CustomAttributesCacheGenerator_Convert_ToInt16_m1733792763P21CustomAttributesCache
fib:__Z14resize_trimmedINSt3__26vectorIN4core12basic_stringIcNS2_20StringStorageDefaultIcEEEE13stl_allocatorIS6_L18MemLabelIdentifier13ELi16EEEEEvRT_j
drb:__Z18Transfer_BlittableI14SafeBinaryReadLb0EaEvRK29SerializationCommandArgumentsR31RuntimeSerializationCommandInfo
M$e:_CharEnumerator_System_Collections_IEnumerator_get_Current_m1328529384
T_j:_emscripten_glFrustum__wrapper
Y3i:_AnimationLayerMixerPlayable__ctor_m860721801
EXg:__Z98RuntimeInvoker_Boolean_t97287965_RuntimeObject_Int32_t2950945753_RuntimeObject_Int64U26_t200113976PFvvEPK10MethodInfoPvPS4_
LLc:_UNITY_FT_List_Iterate
PVa:__ZN17GlobalGameManager8TransferI24GenerateTypeTreeTransferEEvRT_
g$e:_Char_System_IConvertible_ToUInt64_m3536560782
uAg:_EqualityComparer_1__cctor_m3452395357_gshared
QMc:_Render_Single_Pass
uOb:__Z20SyncFenceCullResultsR11CullResults
xGa:__ZN15TextureTFMethod20IsBoneCountSupportedEi
APf:_Double_ToString_m3828879243_AdjustorThunk
yvb:__Z22TransferField_NonArrayI17RemapPPtrTransfer27Converter_SimpleNativeClassI8GUIStyleEEvRK23StaticTransferFieldInfoR31RuntimeSerializationCommandInfoRT0_
Wue:_TextReader_Synchronized_m3004980758
r3b:__ZNK17AnimationCurveTplIfE20EvaluateWithoutCacheEfRf
Iah:__Z67RuntimeInvoker_Boolean_t97287965_Rect_t2360479859_SByte_t1669577662PFvvEPK10MethodInfoPvPS4_
kZa:__ZN19ShaderPropertySheet10SetTextureERK23FastTexturePropertyNameP7Texture
DCe:_CustomAttributeData__ctor_m2966233049
Tbd:_CanvasUpdateRegistry_PerformUpdate_m1793997159
Bqe:_Context_set_ClientWriteIV_m3405909624
sec:__ZN4Mesh10SetNormalsEPK8Vector3fj
sTi:_AesManaged_CreateDecryptor_m692040246
IIj:__ZNSt3__212basic_stringIDsNS_11char_traitsIDsEENS_9allocatorIDsEEE9__grow_byEjjjjjj
C1i:_TextGenerationSettings_t1351628751_marshal_pinvoke_back
ws:__ZN17AnimationCurveTplIfE8TransferI14SafeBinaryReadEEvRT_
bvg:_Dictionary_2_get_Count_m2449135560_gshared
ioh:_Array_InternalArray__set_Item_TisInt16_t2552820387_m2544074754_gshared
jWe:_ArithmeticException__ctor_m3551809662
i5e:_MonoIO_ExistsDirectory_m2182482658
qVg:__ZN21InterfaceFuncInvoker0I19Vector4_t3319028937E6InvokeEjP11Il2CppClassP12Il2CppObject
fkh:__Z72RuntimeInvoker_CustomAttributeNamedArgument_t287865710_Int32_t2950945753PFvvEPK10MethodInfoPvPS4_
c1b:__Z29StdTemplateConversionFunctionIybEbPvR14SafeBinaryRead
v6a:__ZNSt3__26vectorIN15QualitySettings14QualitySettingENS_9allocatorIS2_EEE6assignIPS2_EENS_9enable_ifIXaasr21__is_forward_iteratorIT_EE5valuesr16is_constructibleIS2_NS_15iterator_traitsIS9_E9referenceEEE5valueEvE4typeES9_S9_
N2:__ZNK5Unity9Component10GetEnabledEv
BSd:_ScrollRect_get_scrollSensitivity_m2832710591
f:HEAPU32
nKg:_List_1_CheckCollection_m1671972112_gshared
ssj:_il2cpp_class_get_image
Moe:_CipherSuiteFactory_GetSsl3SupportedCiphers_m3757358569
STf:_UnicodeEncoding_GetPreamble_m3002287178
z1:__Z16AsyncReadRequestP16AsyncReadCommand
R6i:__ZNK15dense_hashtableINSt3__24pairIK10KeyWrapperIPK22Il2CppGenericParameterEP11Il2CppClassEES6_N6il2cpp5utils11PointerHashIS4_EEN14dense_hash_mapIS6_S9_SE_NS6_14EqualsComparerINS0_8equal_toIS5_EEEENS0_9allocatorISA_EEE9SelectKeyESJ_SL_E12test_deletedEj
D0i:_AudioSource_get_spatialize_m3609701298
mah:__Z52RuntimeInvoker_Color_t2555686324_Color32_t2600501292PFvvEPK10MethodInfoPvPS4_
xna:__ZN20GpuProgramParameters14AddVectorParamEPKcii15ShaderParamTypeiiiP16PropertyNamesSet
I2c:__ZNK12HeaderHelper3GetERKN4core12basic_stringIcNS0_20StringStorageDefaultIcEEEE
oYc:__Z24GetUnityAnalyticsManagerv
Geb:__ZN9InputAxis8TransferI14SafeBinaryReadEEvRT_
IZ:__ZNK21ExecutionOrderManager30GetCustomAwakeFromLoadQueueForEPKN5Unity4TypeE
b2c:__Z27RegisterModule_UnityConnectv
U6b:__ZZL31RegisterRectTransformPropertiesR22GenericPropertyBindingEN32Wrapper_RectTransformSizeDeltax013GetFloatValueEPv
Hhf:_MemoryStream_Expand_m3554752073
Wnj:__ZN6il2cpp2vm10Reflection27GetCustomAttributesCacheForEP25Il2CppReflectionParameter
Ung:_ScriptableObject_CreateInstance_m2611081756
NBd:_ObjectRecord_get_IsInstanceReady_m2304516395
U4d:_InternalEnumerator_1_System_Collections_IEnumerator_get_Current_m1635397542_gshared
mif:_Path__cctor_m3273994011
UTi:_AnalyticsEventTracker__ctor_m3064238498
ZWj:__ZNSt11logic_errorD2Ev
yKf:_DateTimeUtils_CountRepeat_m3396693018
cgj:_WeakReference_get_Target_m168713953
SK:__ZN10ObjectPoolIN4FMOD12ChannelGroupENS0_13ChannelGroupIEE7SetSizeEi
ovi:__ZL103LayoutRebuilder_t541313304_CustomAttributesCacheGenerator_LayoutRebuilder_U3CRebuildU3Em__5_m1288787547P21CustomAttributesCache
dTi:_SymmetricTransform_FinalDecrypt_m764004682
cGj:__ZN6il2cpp2os10ThreadImpl33UnregisterCurrentThreadForCleanupEv
mUg:_List_1_System_Collections_IList_get_Item_m1315368445_gshared
bpi:__ZL114PointerEventData_t3807901092_CustomAttributesCacheGenerator_PointerEventData_get_pointerCurrentRaycast_m2627585223P21CustomAttributesCache
EGi:_Parser_ParseGroupingConstruct_m263270497
g5c:_UIBehaviour_OnDisable_m1784507360
xii:__ZL112PlayerConnection_t3081694049_CustomAttributesCacheGenerator_PlayerConnection_MessageCallbackInternal_m1914517467P21CustomAttributesCache
ZW:__Z22ValidateTlsfAllocationPvjiS_
u$d:_InternalEnumerator_1_MoveNext_m3525157932_gshared
Fbg:_Color__ctor_m2943235014_AdjustorThunk
Fpj:__ZN14dense_hash_mapI10KeyWrapperINSt3__24pairIPK9EventInfoP11Il2CppClassEEEj17ReflectionMapHashIS8_ENS9_14EqualsComparerINS1_8equal_toIS8_EEEENS1_9allocatorINS2_IKS9_jEEEEE15set_deleted_keyERSH_
ix:__ZN27AnimationLayerMixerPlayable22PrepareAnimationEventsEfR13dynamic_arrayI22AnimationClipEventInfoLj4EE
Psb:__Z14resize_trimmedINSt3__26vectorI17AnimationCurveTplIfE13stl_allocatorIS3_L18MemLabelIdentifier1ELi16EEEEEvRT_j
rZb:__ZN25CameraStackRenderingState19SetupLastEyeCamerasERK11CameraStack
zQa:__Z12GUIDToStringRK9UnityGUID
$se:_RSASslSignatureDeformatter_SetKey_m2204705853
OG:__ZN11SoundHandleC2ERKS_
rt:__ZN17AnimationPlayableC2E18DirectorPlayerType
XId:_InputField_set_shouldHideMobileInput_m1650743574
Mcj:__ZNK6il2cpp5utils11collections13ArrayValueMapIPK10Il2CppType17Il2CppInteropData26InteropDataToTypeConverterNS_8metadata14Il2CppTypeLessENS8_26Il2CppTypeEqualityComparerEE10find_firstERKS5_
IVg:_List_1_Reverse_m1445355384_gshared
cgf:_FileStream_get_CanSeek_m331583577
w1b:__Z29StdTemplateConversionFunctionItxEbPvR14SafeBinaryRead
MAd:_WellKnownServiceTypeEntry_get_ObjectType_m3211195371
i0i:_PCMReaderCallback_EndInvoke_m3916876196
vld:_TypeBuilder_get_ContainsGenericParameters_m1769080325
bke:_ASN1_get_Length_m3269728307
lHd:_DSAParameters_t1885824122_marshal_pinvoke_back
Kz:__ZN8Animator22OnGraphTopologyChangedEP8Playablei
p5f:_Kernel_MultiplyByDword_m1266935086
Sv:__ZN17AnimationPlayable18DeallocateBindingsEv
c$b:__ZN6Camera25StandaloneRenderToCubemapEP7TextureiPFvPK9SceneNodePK4AABBR9IndexListPvESA_j
Zqf:_String_Trim_m3384720403
YYa:__ZN14RenderSettings18TransferDeprecatedI14SafeBinaryReadEEvRT_
M3g:__Z93RuntimeInvoker_Single_t1397266774_SingleU26_t1922108698_Single_t1397266774_Single_t1397266774PFvvEPK10MethodInfoPvPS4_
VPi:_Event__ctor_m526447123
i7h:__ZL56RankException_t3812021567_CustomAttributesCacheGeneratorP21CustomAttributesCache
sgh:__Z72RuntimeInvoker_Boolean_t97287965_CustomAttributeNamedArgument_t287865710PFvvEPK10MethodInfoPvPS4_
m8g:__Z88RuntimeInvoker_RuntimeObject_RuntimeObject_RuntimeObject_RuntimeObject_Int32_t2950945753PFvvEPK10MethodInfoPvPS4_
PZf:_Type_ToString_m3975981286
BZ:__ZN12TLSAllocatorI14StackAllocatorE8AllocateEji
x$:__ZN16ScriptingManager18GetMonoScriptCacheEi
SGi:_ExpressionAssertion__ctor_m2554412824
u7b:__ZN32TransformHierarchyChangeDispatch21AddPermanentInterestsE15TransformAccessPKN5Unity4TypeE
oIi:_CapturingGroup_IsComplex_m4061114763
TFg:_Enumerator_System_Collections_IEnumerator_get_Current_m2237476582_gshared
krb:__Z18Transfer_BlittableI14SafeBinaryReadLb1EyEvRK29SerializationCommandArgumentsR31RuntimeSerializationCommandInfo
dgj:_WeakReference_Finalize_m2841826116
Nye:_NullReferenceException__ctor_m3076065613
Dtc:__ZN8JSONRead8TransferIfEEvRT_PKc17TransferMetaFlagsb
FSh:__ZL73Enum_t4135868527_CustomAttributesCacheGenerator_Enum_ToObject_m3092348831P21CustomAttributesCache
sNh:_Comparison_1_EndInvoke_m3981968715_gshared
Yma:__ZN9ShaderLab7Program22ComputeSupportsShadowsEv
ZLe:_X509SubjectKeyIdentifierExtension_Decode_m1505409124
gna:__ZL23AddGpuProgramParametersR20GpuProgramParametersRKNSt3__26vectorIN9ShaderLab20SerializedSubProgram15MatrixParameterENS1_9allocatorIS5_EEEERKNS2_INS4_15VectorParameterENS6_ISB_EEEEiiP16PropertyNamesSet
MAa:__ZN6prcoreL17RemapGenericFloatI18TexFormatARGBFloat17TexFormatRGBAHalfEEvPKNS_9InnerInfoE
RTi:_AnalyticsEventParamListContainer__ctor_m1995104893
Cqf:_String_System_IConvertible_ToUInt16_m2888090399
BM:__ZN11AudioSource21ApplyCachedParametersE12SoundChannel
zBe:_Assembly_InternalGetType_m3065345470
fce:_Enumerator_System_Collections_IEnumerator_Reset_m1943008355_gshared
h_d:_InternalEnumerator_1__ctor_m3390957028_gshared
brd:_ResourceSet__ctor_m3356376607
Dje:_PrimeGeneratorBase_get_PrimalityTest_m2487240563
u7c:_PhysicsRaycaster_get_maxRayIntersections_m3887348715
D_h:__ZL56_ParameterInfo_t489405856_CustomAttributesCacheGeneratorP21CustomAttributesCache
A5a:__ZN15SerializeTraitsI33EnlightenTerrainChunksInformationE8TransferI14SafeBinaryReadEEvRS0_RT_
A9b:__ZNK32RendererMaterialAnimationBinding9BindValueER6ObjectRKN11UnityEngine9Animation14GenericBindingERNS3_10BoundCurveE
Fsi:__ZL109MaskableGraphic_t3839221559_CustomAttributesCacheGenerator_MaskableGraphic_ParentMaskStateChanged_m1092090553P21CustomAttributesCache
hhe:_Transform_1_Invoke_m1731820209_gshared
UZa:__Z13GetIAnimationv
Vya:__ZL18stbir__support_onef
Vpf:_Single_CompareTo_m189772128
ovc:__Z26Transfer_UnityEngineObjectI9JSONWriteLb0EEvRK29SerializationCommandArgumentsR31RuntimeSerializationCommandInfo
h7d:_DefaultComparer_Compare_m4042058291_gshared
Jid:_Image_set_overrideSprite_m3213596394
g1a:__ZNSt3__26vectorIN4core12basic_stringIcNS1_20StringStorageDefaultIcEEEE13stl_allocatorIS5_L18MemLabelIdentifier1ELi16EEE6assignINS_11__wrap_iterIPS5_EEEENS_9enable_ifIXaasr21__is_forward_iteratorIT_EE5valuesr16is_constructibleIS5_NS_15iterator_traitsISF_E9referenceEEE5valueEvE4typeESF_SF_
lTc:__ZNSt3__27__sort5IRNS_6__lessIN2UI14DepthSortEntryES3_EEPS3_EEjT0_S7_S7_S7_S7_T_
Off:_FileLoadException_ToString_m2989457882
V0i:_AudioListener_ClearExtensionProperties_m3849891634
ECc:_UNITY_FT_DivFix
ith:_Array_InternalArray__get_Item_TisDecimal_t2948259380_m3511003792_gshared
pmj:__ZNSt3__218uninitialized_copyIPNS_4pairIK10KeyWrapperINS1_IPK11Il2CppImageP11Il2CppClassEEEjEESC_EET0_T_SE_SD_
onf:_SecurityElement_IsValidAttributeValue_m948345692
xBc:__ZN19ControllerHitReport15onControllerHitERKN5physx16PxControllersHitE
Ba:invoke_vdd
Gn:FUNCTION_TABLE_fiii
ZYh:__ZL102MethodInfo_t_CustomAttributesCacheGenerator_MethodInfo_MakeGenericMethod_m1996785325____typeArguments0P21CustomAttributesCache
fve:_TextWriter_Write_m2252948084
Tbc:__Z19RegisterModule_Corev
Cwd:_AsyncResult_get_CallMessage_m1679778649
_wf:_Array_InternalArray__IEnumerable_GetEnumerator_TisPlayableBinding_t354260709_m1924544205_gshared
V7b:__ZNK30SpriteRendererAnimationBinding12GetPPtrValueERKN11UnityEngine9Animation10BoundCurveE
QQc:__ZZ29InitializeTextRenderingModulevEN27cleanupAfterLoadRegistrator7ForwardEv
rx:__ZN27AnimationLayerMixerPlayable24ProcessAnimationLayerMixEP33AnimationPlayableEvaluationOutputP35AnimationPlayableEvaluationConstantP32AnimationPlayableEvaluationInputS1_if
W5e:_CCFixed_FromDateTime_m3894190577
eZb:__Z29PluginsIssueRenderingExtEvent26UnityRenderingExtEventTypePv
L_g:__Z116RuntimeInvoker_RuntimeObject_RuntimeObject_Int32_t2950945753_RuntimeObject_RuntimeObject_RuntimeObject_RuntimeObjectPFvvEPK10MethodInfoPvPS4_
BEd:_RuntimeMethodHandle__ctor_m2229201676_AdjustorThunk
sCd:_MessageFormatter_ReadMethodCall_m2327590823
B8b:__Z14RandomRotationP9Texture2DPhiiii
pAf:_Array_InternalArray__ICollection_Add_TisUInt16_t2177724958_m3981262878_gshared
gNf:_Decimal_GetBits_m453754410
$Eg:_HashSet_1_Contains_m3173358704_gshared
LVi:_ToggleEvent__ctor_m834619998
l6d:_InternalEnumerator_1_Dispose_m436383441_AdjustorThunk
Gle:_PKCS1_Encode_v15_m2077073129
ixg:_Dictionary_2_get_Values_m2682483593_gshared
mDh:_Collection_1_set_Item_m4084225937_gshared
pmh:__Z51RuntimeInvoker_OrderBlock_t1585977831_RuntimeObjectPFvvEPK10MethodInfoPvPS4_
lmg:_RectOffset_get_left_m1232181034
WBa:__ZN4gles14UseGLSLProgramER15DeviceStateGLESjbij
Vbh:__Z59RuntimeInvoker_Boolean_t97287965_Int32_t2950945753_IntPtr_tPFvvEPK10MethodInfoPvPS4_
Y4j:_glDeleteProgram__wrapper
Zic:__Z50Register_UnityEngine_Camera_INTERNAL_get_pixelRectv
cAa:__ZN6prcoreL18BlitFloatToIntegerERK14ImageReferenceRS0_
rMf:_DBNull_System_IConvertible_ToUInt32_m3784627971
Epe:_ClientSessionCache_Add_m964342678
$Ri:_SkinChangedDelegate__ctor_m1270439727
fGa:__ZN13dynamic_arrayI15ComputeShaderCBLj4EE6assignEPKS0_S3_
VPb:__Z13GetIPhysics2Dv
PU:__ZN11UnityEngine15CloudWebService14RestDownloader17OnCompleteContentEv
ujj:__ZN15dense_hashtableINSt3__24pairIK10KeyWrapperINS1_IPK14Il2CppAssemblyP11Il2CppClassEEEjEES9_17ReflectionMapHashIS8_EN14dense_hash_mapIS9_jSD_NS9_14EqualsComparerINS0_8equal_toIS8_EEEENS0_9allocatorISB_EEE9SelectKeyESI_SK_E15insert_noresizeERKSB_
UYi:__ZL25UnresolvedVirtualCall_115P12Il2CppObjectiaaPK10MethodInfo
Tpg:_Transform_get_localScale_m129152068
wNf:_DivideByZeroException__ctor_m3496959969
iDa:__ZN26SinglePassStereoSupportExt19AfterDrawCallStereoEv
STd:_ScrollRect_get_layoutPriority_m1584702890
Qa:invoke_viffi
qz:__ZN17AnimationPlayable28UpdateInternalStateRecursiveILi1ELb0EEEvPK35AnimationPlayableEvaluationConstant
vDj:__ZN6il2cpp2gcL10CleanupCCWEPvS1_
dOh:__ZN28GenericInterfaceFuncInvoker2Ii19Vector4_t3319028937S0_E6InvokeEPK10MethodInfoP12Il2CppObjectS0_S0_
Ta:invoke_vifff
K3j:_glGetVertexAttribiv__wrapper
cmd:__ZN23GenericVirtFuncInvoker2IbP12MemberInfo_tP12Il2CppObjectE6InvokeEPK10MethodInfoS3_S1_S3_
GPh:_Predicate_1_Invoke_m851618236_gshared
PWh:__ZL67IsolatedStorageException_t3468072396_CustomAttributesCacheGeneratorP21CustomAttributesCache
$Hb:__ZN20LocalFileSystemWebGL6DeleteER13FileEntryDatab
Ue:_emscripten_glDisableVertexAttribArray
bvf:_Array_InternalArray__ICollection_Remove_TisSingle_t1397266774_m3361324455_gshared
an:FUNCTION_TABLE_iiiifiiii
Sga:__ZN4core8hash_mapINS_12basic_stringIcNS_20StringStorageDefaultIcEEEE13dynamic_arrayI4PPtrI6SpriteELj4EENS_4hashIS4_EENSt3__28equal_toIS4_EEE12delete_nodesEv
Avh:_Collection_1_set_Item_m839097518_gshared
L_d:_InternalEnumerator_1__ctor_m3456047704_gshared
mc:invoke_fifffi
aCh:_Collection_1_System_Collections_IList_Add_m2969482770_gshared
b6f:_BitConverterLE_GetBytes_m4130646282
sae:_Enumerator_System_Collections_IDictionaryEnumerator_get_Entry_m3249874482_AdjustorThunk
CNi:_UnityEvent_1_Invoke_m3604335408_gshared
$5h:__ZL79Convert_t2465617642_CustomAttributesCacheGenerator_Convert_ToUInt64_m2652538228P21CustomAttributesCache
df:_emscripten_glDeleteObjectARB
X5c:_EventSystem_RaycastComparer_m3685368675
_f:_IMG_Load
F2g:__Z131RuntimeInvoker_Void_t1185182177_RuntimeObject_RuntimeObject_Int64_t3736567304_ObjectU26_t2146539884_SerializationInfoU26_t419328957PFvvEPK10MethodInfoPvPS4_
sBa:__ZN6prcoreL27StretchGenericFloatBilinearI18TexFormatARGBFloatEEvPKNS_9InnerInfoE
dnc:__Z53Register_UnityEngine_RenderTexture_Internal_GetHeightv
Vqi:__ZL87U3CDelayedDestroyDropdownListU3Ec__Iterator0_t3853912249_CustomAttributesCacheGeneratorP21CustomAttributesCache
tTe:_PKCS12_RemoveCertificate_m1421555398
uVd:_Slider_FindSelectableOnLeft_m1667068522
dBa:__ZN6prcoreL17RemapGenericFloatI17TexFormatRGBAHalf18TexFormatARGBFloatEEvPKNS_9InnerInfoE
DCb:__ZN18StreamedBinaryReadILb1EE21TransferSTLStyleArrayI13dynamic_arrayIN4math12int3_storageELj4EEEEvRT_17TransferMetaFlags
Pqc:__Z14GetBuiltinSkini
Oxd:_MethodDictionary_get_Item_m1201458851
NQ:___cxx_global_var_init_13
hR:___cxx_global_var_init_10
iR:___cxx_global_var_init_11
WXg:__Z60RuntimeInvoker_SByte_t1669577662_RuntimeObject_RuntimeObjectPFvvEPK10MethodInfoPvPS4_
u6f:_CryptoConvert_ToInt32LE_m3340980429
U7:___cxx_global_var_init_18
pl:_JS_SystemInfo_GetBrowserVersionString
Ulb:__ZN2UI13RectTransform23VirtualRedirectTransferER14SafeBinaryRead
lib:__ZN24GenerateTypeTreeTransfer8TransferINSt3__26vectorIN4core12basic_stringIcNS3_20StringStorageDefaultIcEEEE13stl_allocatorIS7_L18MemLabelIdentifier13ELi16EEEEEEvRT_PKc17TransferMetaFlags
kie:_Enumerator_MoveNext_m3045873697_gshared
K8g:__Z31RuntimeInvoker_Rect_t2360479859PFvvEPK10MethodInfoPvPS4_
qka:__ZNSt3__26vectorIN9ShaderLab20SerializedSubProgramENS_9allocatorIS2_EEE6assignIPS2_EENS_9enable_ifIXaasr21__is_forward_iteratorIT_EE5valuesr16is_constructibleIS2_NS_15iterator_traitsIS9_E9referenceEEE5valueEvE4typeES9_S9_
Axc:__Z18Transfer_BlittableI8JSONReadLb0E8BitFieldEvRK29SerializationCommandArgumentsR31RuntimeSerializationCommandInfo
H$e:_Char_ToString_m3588025615_AdjustorThunk
zKa:__ZN11SpriteAtlas5ResetEv
VEg:_HashSet_1_CopyTo_m2849056227_gshared
iBb:__ZL17Transfer_GUIStyleI18StreamedBinaryReadILb1EELb0EEvRK29SerializationCommandArgumentsR31RuntimeSerializationCommandInfo
Z4f:_ModulusRing_Multiply_m343333088
ORh:__ZL74Single_t1397266774_CustomAttributesCacheGenerator_Single_IsNaN_m4024467661P21CustomAttributesCache
fia:__ZN9ShaderLab14SerializedPass8TransferI14SafeBinaryReadEEvRT_
Hrc:__Z71Register_UnityEngine_GUILayoutUtility_INTERNAL_CALL_Internal_MoveWindowv
nP:__ZN12AudioManager16SetListenerPauseEb
cib:__ZNSt3__26vectorIN30RuntimeInitializeOnLoadManager9ClassInfoE13stl_allocatorIS2_L18MemLabelIdentifier13ELi16EEE6assignINS_11__wrap_iterIPS2_EEEENS_9enable_ifIXaasr21__is_forward_iteratorIT_EE5valuesr16is_constructibleIS2_NS_15iterator_traitsISC_E9referenceEEE5valueEvE4typeESC_SC_
Pvf:_SetPropertyUtility_SetStruct_TisSingle_t1397266774_m2805350785_gshared
aTf:_StringBuilder_get_Length_m3238060835
Ywj:__ZN6il2cpp2vm9Exception25RaiseOutOfMemoryExceptionERKNS_5utils10StringViewIDsEE
oFg:_KeyValuePair_2_set_Value_m2953914627_AdjustorThunk
da:invoke_viiiiiiiiiii
QSj:___syscall_ret
KAi:_DeriveBytes_set_Salt_m1400945044
e8c:_PointerEventData_set_worldNormal_m1888481930
lbd:_CanvasScaler_set_referencePixelsPerUnit_m1768965301
AHi:_AnchorInfo__ctor_m46784903
koe:_CipherSuiteCollection_get_Item_m4188309062
oxi:_SslHandshakeHash_HashFinal_m2573455475
Svd:_SynchronizationAttribute_ReleaseLock_m1030353464
crh:_Array_swap_TisCustomAttributeNamedArgument_t287865710_m2628186452_gshared
_Yc:__Z56Register_UnityEngine_Analytics_CustomEventData_AddDoublev
y8a:__ZN11ChannelInfo8TransferI19StreamedBinaryWriteILb0EEEEvRT_
LIj:__ZN4utf88internal13validate_nextIPKcEENS0_9utf_errorERT_S5_Rj
cui:__ZL53ToggleGroup_t123837990_CustomAttributesCacheGeneratorP21CustomAttributesCache
Ckf:_SHA1Internal_AddLength_m2737455899
EQb:__ZN14qsort_internal13Partition3WayIP17RODataReplacementi19ROSorterReplacementEENSt3__24pairIT_S6_EES6_S6_T0_T1_
NLd:_InputField_CreateCursorVerts_m3585916868
Iwg:_KeyValuePair_2_get_Value_m755756747_gshared
fkc:__Z34Register_UnityEngine_Gradient_Initv
xNd:_LayoutGroup_OnDidApplyAnimationProperties_m1333813659
QFe:_GenericTypeParameterBuilder_IsArrayImpl_m67259334
fvd:_Context_ToString_m1073616138
$xe:_DefaultMemberAttribute_get_MemberName_m3384235354
w7a:__ZN13ScreenManager23SetIsOrientationEnabledE18EnabledOrientationb
RId:_InputField_EnforceTextHOverflow_m3400115777
tOg:_List_1_System_Collections_IEnumerable_GetEnumerator_m1225415523_gshared
T9g:__Z41RuntimeInvoker_TextureWrapMode_t584250749PFvvEPK10MethodInfoPvPS4_
Leb:__ZN9InputAxis8TransferI19StreamedBinaryWriteILb0EEEEvRT_
Tbf:__Z33il2cpp_codegen_check_sub_overflowxx
lai:__ZL98NativeMethodAttribute_t4187428193_CustomAttributesCacheGenerator_U3CIsThreadSafeU3Ek__BackingFieldP21CustomAttributesCache
JYj:dynCall_viififiii
KJd:_InputField_get_caretColor_m2973283772
zPi:_ListPool_1_Release_m591299672_gshared
y5h:__ZL79Convert_t2465617642_CustomAttributesCacheGenerator_Convert_ToUInt16_m3116648921P21CustomAttributesCache
kQd:_RectMask2D_get_Canvas_m9990042
P4d:_InternalEnumerator_1_MoveNext_m1096095130_AdjustorThunk
xCh:_Collection_1_RemoveAt_m226266097_gshared
SNi:_UnityEvent_1_AddListener_m1590149461_gshared
ami:__ZL63GUISkin_t1244372282_CustomAttributesCacheGenerator_m_ScrollViewP21CustomAttributesCache
$Of:_Double_System_IConvertible_ToInt16_m3591921965_AdjustorThunk
uNh:_Comparison_1_Invoke_m2925518770_gshared
xRa:__ZN10GameObject23VirtualRedirectTransferER18StreamedBinaryReadILb0EE
OSi:_SymmetricTransform__ctor_m2693628991
xue:_ObjectDisposedException__ctor_m1034312941
vg:_glFrontFace
mhf:_FileSystemInfo_InternalRefresh_m1700260373
mfd:_Dropdown_OnSubmit_m1624226516
hmg:_RectOffset__ctor_m3236153262
wcj:__ZNK15dense_hashtableINSt3__24pairIK10KeyWrapperIPK19Il2CppGenericMethodEPK26Il2CppGenericMethodIndicesEES6_N6il2cpp8metadata23Il2CppGenericMethodHashEN14dense_hash_mapIS6_SA_SE_NS6_14EqualsComparerINSD_26Il2CppGenericMethodCompareEEENS0_9allocatorISB_EEE9SelectKeyESI_SK_E12test_deletedEj
lPd:_MaskUtilities_IsDescendantOrSelf_m2247511982
M4g:__Z51RuntimeInvoker_UInt16_t2177724958_SByte_t1669577662PFvvEPK10MethodInfoPvPS4_
CVb:__ZNSt3__26vectorI16ShadowCasterData13stl_allocatorIS1_L18MemLabelIdentifier2ELi16EEE21__push_back_slow_pathIKS1_EEvRT_
WWg:__Z46RuntimeInvoker_Double_t594665363_RuntimeObjectPFvvEPK10MethodInfoPvPS4_
yRc:__Z51Register_UnityEngine_TextGenerator_GetLinesInternalv
Ihe:_Enumerator_get_Current_m2250080680_AdjustorThunk
zTi:_AesManaged_set_Key_m767972181
Waf:_Int16_System_IConvertible_ToBoolean_m1656400658_AdjustorThunk
a_e:_Byte_System_IConvertible_ToInt64_m285584218
Ita:__ZN13GfxDeviceGLES22SetScissorRectPlatformERK5RectTIiE
uAa:__ZN6prcoreL17RemapGenericFloatI17TexFormatRGBFloat18TexFormatRGBAFloatEEvPKNS_9InnerInfoE
p3e:_DictionaryEntry_t3123975638_marshal_pinvoke_cleanup
Jzf:_Array_InternalArray__ICollection_Add_TisDictionaryEntry_t3123975638_m665385049_gshared
ywe:_MissingMemberException__ctor_m2707802176
t2i:_Canvas_get_renderMode_m841659411
G5a:__ZN15SerializeTraitsI13dynamic_arrayI28EnlightenRendererInformationLj8EEE19ResizeSTLStyleArrayERS2_i
_Dd:_SerializationInfo_GetValue_m42271953
FG:__ZN9AudioClip11CreateSoundEv
Tpj:__ZN14dense_hash_mapI10KeyWrapperINSt3__24pairIPK9FieldInfoP11Il2CppClassEEEj17ReflectionMapHashIS8_ENS9_14EqualsComparerINS1_8equal_toIS8_EEEENS1_9allocatorINS2_IKS9_jEEEEEC2EjRKSB_RKSF_
plj:__ZNK15dense_hashtableINSt3__24pairIK10KeyWrapperINS1_IPK10MethodInfoP11Il2CppClassEEEjEES9_17ReflectionMapHashIS8_EN14dense_hash_mapIS9_jSD_NS9_14EqualsComparerINS0_8equal_toIS8_EEEENS0_9allocatorISB_EEE9SelectKeyESI_SK_E13find_positionERSA_
Psa:__ZN13GfxDeviceGLES20CreateComputeProgramEPKhj
j1c:__ZN11UnityEngine7Connect16PersistentValues13RestoreValuesER8JSONRead
FTh:__ZL65RuntimeArray_CustomAttributesCacheGenerator_Array_Sort_m182264525P21CustomAttributesCache
Jaf:_Guid_BaseToString_m3600006650
dPa:__ZN20ArchiveStorageReader31TryToReadDirectoryFromBlockDataEyPKvj
p5c:_PointerEventData_set_pointerEnter_m3256217464
Yzj:__ZN6il2cpp2vmL11GetIdentityEP14Il2CppIUnknown
pMj:_GC_push_gc_structures
tre:_TlsServerCertificate_ProcessAsTls1_m819212276
NIh:_ReadOnlyCollection_1_System_Collections_Generic_ICollectionU3CTU3E_Clear_m2102011098_gshared
lsh:_Dictionary_2_Do_ICollectionCopyTo_TisRuntimeObject_m3942192587_gshared
uhj:__ZN6il2cpp6icalls8mscorlib6SystemL8IsPublicEPK9EventInfo
oni:__ZL139RectTransformUtility_t1743242446_CustomAttributesCacheGenerator_RectTransformUtility_INTERNAL_CALL_RectangleContainsScreenPoint_m1214874141P21CustomAttributesCache
Uje:_PrimalityTests_RabinMillerTest_m2544317101
rDa:__Z22GetShaderCachePathGLESv
Zie:_Kernel_DwordDivMod_m1540317819
QKi:_CachedInvokableCall_1_Invoke_m931536002_gshared
VVg:_Enumerator_System_Collections_IEnumerator_get_Current_m1399273671_gshared
oCi:_X509StoreManager_get_CurrentUser_m719101392
dld:_TypeBuilder_GetPropertyImpl_m3104345782
R8a:__ZNSt3__213__stable_sortIRNS_4lessI4PPtrI11SpriteAtlasEEENS_11__wrap_iterIPS4_EEEEvT0_SA_T_NS_15iterator_traitsISA_E15difference_typeEPNSD_10value_typeEi
Zdf:_Int64_ToString_m2085073918_AdjustorThunk
cge:_Transform_1_Invoke_m4084479750_gshared
Wld:_FieldInfo_GetFieldOffset_m1356898082
qmh:__Z36RuntimeInvoker_Enumerator_t652329154PFvvEPK10MethodInfoPvPS4_
Uyf:_Array_InternalArray__IndexOf_TisTypeTag_t3541821701_m2988972362_gshared
k9:__ZN8keywords6CreateEPKc
$4i:__ZL7log2_32j
S:Math_imul
YGg:_Enumerator_Dispose_m786980821_AdjustorThunk
Cgh:__Z49RuntimeInvoker_Boolean_t97287965_Byte_t1134296376PFvvEPK10MethodInfoPvPS4_
qdb:__ZN14SpriteRenderer15SetupPropertiesEv
Ore:_TlsServerKeyExchange_Update_m453798279
J6a:__ZN11PlayerPrefs6GetIntERKN4core12basic_stringIcNS0_20StringStorageDefaultIcEEEEi
roe:_CipherSuiteCollection_System_Collections_IList_IndexOf_m1361500977
nWd:_Text_set_fontStyle_m648756124
gRc:__Z45TextGenerator_CUSTOM_INTERNAL_get_rectExtentsP12Il2CppObjectP5RectTIfE
l9g:__Z50RuntimeInvoker_Touch_t1921856868_Int32_t2950945753PFvvEPK10MethodInfoPvPS4_
ZJf:_DateTime__ctor_m2135476686_AdjustorThunk
bzd:_SoapFieldAttribute_IsInteropXmlElement_m2819415462
_mg:_RectTransform_GetLocalCorners_m823861473
$1e:_SynchronizedArrayListWrapper_GetEnumerator_m1579424644
fBg:_EqualityComparer_1__ctor_m3717935020_gshared
RNh:_Comparison_1_EndInvoke_m2734814639_gshared
H_:__ZN18ScriptingArguments9AddObjectE18ScriptingObjectPtr
xVc:__Z39CanvasGroup_Get_Custom_PropInteractableP12Il2CppObject
QR:__ZN11UnityEngine15CloudWebService16SessionContainerD2Ev
u1c:__ZL38InitializeUnityConnectScriptingClassesv
__i:__ZL25UnresolvedVirtualCall_229P12Il2CppObjectPK10MethodInfo
OZb:__ZN13ProbeRenderer8ConvolveEbijjb
sSi:_GUIUtility_set_systemCopyBuffer_m608712289
Jwa:__ZN17GenericDynamicVBOC2ER9GfxDevice13GfxBufferModejj
Qpc:__ZZN10GUIManager14InitGUIManagerEvEN41PreUpdateIMGUISendQueuedEventsRegistrator7ForwardEv
oDa:__ZN13dynamic_arrayIN18GlslGpuProgramGLES9GLProgramELj4EE6insertEPS1_jRKS1_
LAg:_EqualityComparer_1_System_Collections_IEqualityComparer_Equals_m2639327655_gshared
f6e:_CCGregorianCalendar_day_from_fixed_m1674702403
hT:__ZN11UnityEngine15CloudWebService17SessionEventQueue10PurgeItemsEj
s_b:__ZN6Camera16StandaloneRenderENS_10RenderFlagEP6ShaderRKN4core12basic_stringIcNS3_20StringStorageDefaultIcEEEE
DNe:_X509Chain_PrepareForNextCertificate_m3691934993
O2a:__ZNK12CubemapArray13GetIsReadableEv
CAb:__Z18Transfer_BlittableI18StreamedBinaryReadILb1EELb1EtEvRK29SerializationCommandArgumentsR31RuntimeSerializationCommandInfo
uli:__ZL58EventType_t3528516131_CustomAttributesCacheGenerator_keyUpP21CustomAttributesCache
L0h:__ZL57X509Certificate_t713131622_CustomAttributesCacheGeneratorP21CustomAttributesCache
Lbb:__ZN12BoneWeights48TransferI19StreamedBinaryWriteILb0EEEEvRT_
Uqa:__ZN9GfxDevice20DeallocRenderSurfaceEP17RenderSurfaceBase
xFf:_DateTime_FromTicks_m4059645178
lna:__ZN20GpuProgramParameters36UpdatePrepareValuesMaximumBufferSizeEv
n1i:_AudioSourceExtension_Stop_m387892536
sHh:_ReadOnlyCollection_1_System_Collections_IList_RemoveAt_m2129436005_gshared
Q2f:_SimpleCollator_GetContraction_m2205549079
lrg:_Vector3__ctor_m1719387948_AdjustorThunk
wHh:_ReadOnlyCollection_1_System_Collections_IList_get_IsReadOnly_m3888539454_gshared
Qda:__ZN13RuntimeStaticI10WatermarksLb0EE13StaticDestroyEPv
Cke:_ARC4Managed_GenerateKey_m1607343060
ZAf:_Array_InternalArray__ICollection_CopyTo_TisDecimal_t2948259380_m2749946216_gshared
Pse:_ReceiveRecordAsyncResult_get_ResultingBuffer_m1839161335
XSa:__ZN12BaseRenderer23RendererBecameInvisibleEv
Lhb:__ZN30RuntimeInitializeOnLoadManager23VirtualRedirectTransferER14SafeBinaryRead
$vd:_EnvoyInfo__ctor_m276600651
UNc:__ZN20TextRenderingPrivate8FontImpl13CharacterInfo8TransferI18StreamedBinaryReadILb0EEEEvRT_
Rxb:__Z29Transfer_Blittable_ArrayFieldI24GenerateTypeTreeTransferfEvRT_R9ArrayInfoRK23StaticTransferFieldInfo
Qba:__ZNSt3__26__treeINS_12__value_typeIN4core12basic_stringIcNS2_20StringStorageDefaultIcEEEES6_EENS_19__map_value_compareIS6_S7_NS_4lessIS6_EELb1EEE13stl_allocatorIS7_L18MemLabelIdentifier13ELi16EEE7destroyEPNS_11__tree_nodeIS7_PvEE
Ueg:_UnityEvent_FindMethod_Impl_m2312362624
K$b:__ZN19CustomRenderTexture9AddParentE4PPtrIS_E
j7:__ZN8Gradient8TransferI14SafeBinaryReadEEvRT_
rag:_Vector3_GetHashCode_m2879461828
CGi:_Parser_ParseSpecial_m1961501104
Npf:_Single_System_IConvertible_ToUInt64_m3299129161_AdjustorThunk
f1a:__ZNSt3__26vectorIN4core12basic_stringIcNS1_20StringStorageDefaultIcEEEE13stl_allocatorIS5_L18MemLabelIdentifier1ELi16EEE7reserveEj
lni:__ZL93CanvasRenderer_t2598313366_CustomAttributesCacheGenerator_CanvasRenderer_set_cull_m4222419074P21CustomAttributesCache
btg:_ValueCollection_System_Collections_Generic_ICollectionU3CTValueU3E_Contains_m3110959791_gshared
HKe:_IPv6Address_AsIPv4Int_m844941024
Yjb:__ZN18IDCollectorFunctorD0Ev
nse:_RecordProtocol__cctor_m1280873827
Ghg:_Matrix4x4_MultiplyPoint_m1575665487_AdjustorThunk
lsd:_Marshal__cctor_m4007734770
jLj:_GC_new_free_list_inner
K8f:_SymmetricTransform_Random_m2004892672
D8g:__Z79RuntimeInvoker_Void_t1185182177_RuntimeObject_Byte_t1134296376_Byte_t1134296376PFvvEPK10MethodInfoPvPS4_
Ple:_EncryptedPrivateKeyInfo_get_IterationCount_m2912222740
QKj:_GC_err_printf
lXh:__ZL63PathTooLongException_t2919094560_CustomAttributesCacheGeneratorP21CustomAttributesCache
mme:_RSAManaged_DecryptValue_m1804388365
aYd:_InternalEnumerator_1_System_Collections_IEnumerator_get_Current_m2980550840_AdjustorThunk
oyc:__ZN8JSONRead8TransferI10RectOffsetEEvRT_PKc17TransferMetaFlagsb
WAj:__ZNK15dense_hashtableINSt3__24pairIK10KeyWrapperINS1_IPKcS4_EEEiEES6_24NamespaceAndNamePairHashN14dense_hash_mapIS6_iS9_NS6_14EqualsComparerI26NamespaceAndNamePairEqualsEENS0_9allocatorIS8_EEE9SelectKeyESD_SF_E12test_deletedERK24dense_hashtable_iteratorIS8_S6_S9_SH_SD_SF_E
SS:__ZN9JSONWrite8TransferIN11UnityEngine15CloudWebService14DataErrorEvent15FileErrorDetailEEEvRT_PKc17TransferMetaFlags
xzh:_Collection_1_ClearItems_m2728738230_gshared
Pcf:_Int32_Parse_m2087562008
aYa:__Z21ClearFenceWithoutSyncR8JobFence
Pxf:_Array_compare_TisVector4_t3319028937_m1974066282_gshared
Uod:_MonoProperty_GetAccessors_m412928203
dPi:_TweenRunner_1_Start_m3757154622_gshared
MJ:__ZN12SoundManager20RegisterModifiedClipEP10SampleClip
cAd:_RemotingServices_GetClientChannelSinkChain_m1499550585
ABe:_Assembly_FillName_m1660001542
s_h:__ZL56_EventBuilder_t2558055199_CustomAttributesCacheGeneratorP21CustomAttributesCache
zSd:_ScrollRect_get_decelerationRate_m74583805
alf:_SHA384Managed_processBlock_m1272529332
qM:__ZN11AudioSource4PlayEd
eDi:_X509Store_get_Crls_m1211262034
J$e:_Char_ToString_m278452217_AdjustorThunk
paj:__ZN15dense_hashtableI10KeyWrapperIPK17Il2CppGenericInstES4_N6il2cpp8metadata21Il2CppGenericInstHashEN14dense_hash_setIS4_S7_NS4_14EqualsComparerINS6_24Il2CppGenericInstCompareEEENSt3__29allocatorIS4_EEE8IdentityESB_SE_E13set_empty_keyERKS4_
mYg:__Z63RuntimeInvoker_Char_t3634460470_Int16_t2552820387_RuntimeObjectPFvvEPK10MethodInfoPvPS4_
RGf:_Convert_ToDouble_m2924063577
_nb:__ZNK20LocalFileSystemPosix8IsHiddenERK13FileEntryData
XHg:_Enumerator_System_Collections_IEnumerator_get_Current_m3594024719_gshared
P5d:_InternalEnumerator_1_System_Collections_IEnumerator_Reset_m1601477281_AdjustorThunk
Jxd:_MethodCall_Init_m86192062
Qsg:_ValueCollection_System_Collections_Generic_ICollectionU3CTValueU3E_Remove_m3673494156_gshared
hni:__ZL113CanvasRenderer_t2598313366_CustomAttributesCacheGenerator_CanvasRenderer_SplitUIVertexStreamsInternal_m3280623346P21CustomAttributesCache
H3a:__ZN7Cubemap23VirtualRedirectTransferER18StreamedBinaryReadILb0EE
Gce:_Enumerator_MoveNext_m76191888_AdjustorThunk
t5d:_InternalEnumerator_1__ctor_m1739091604_gshared
tlc:__ZNSt3__27__sort4IRNS_6__lessI11KeyframeTplIfES3_EEPS3_EEjT0_S7_S7_S7_T_
vKc:_Read_CVT
eM:__ZN11AudioSource23VirtualRedirectTransferER19StreamedBinaryWriteILb0EE
qPa:__ZN12FileAccessor4SeekEx10FileOrigin
Fwb:__ZL26Transfer_SimpleNativeClassI24GenerateTypeTreeTransfer17AnimationCurveTplIfELb0EEvRK29SerializationCommandArgumentsR31RuntimeSerializationCommandInfo
gGf:_Convert_ToDecimal_m1783778724
ozc:__ZN8JSONRead21TransferSTLStyleArrayI13dynamic_arrayI9BoundsIntLj4EEEEvRT_17TransferMetaFlags
O5a:__ZN24GenerateTypeTreeTransfer8TransferI13dynamic_arrayI33EnlightenTerrainChunksInformationLj4EEEEvRT_PKc17TransferMetaFlags
A6e:_DateTimeFormatInfo__ctor_m3106345035
hpe:_TlsServerKeyExchange_verifySignature_m3412856769
lAg:_EqualityComparer_1_System_Collections_IEqualityComparer_GetHashCode_m4137147946_gshared
lda:__ZN16LightmapSettings20DidChangeActiveSceneEP10UnitySceneS1_
fyb:__Z18Transfer_BlittableI19StreamedBinaryWriteILb0EELb0EN4math12int3_storageEEvRK29SerializationCommandArgumentsR31RuntimeSerializationCommandInfo
kxi:__ZL59g_AssemblyU2DCSharp_Assembly_CustomAttributesCacheGeneratorP21CustomAttributesCache
Xhj:__ZN6il2cpp5utils9PathUtils8BasenameIcEENSt3__212basic_stringIT_NS3_11char_traitsIS5_EENS3_9allocatorIS5_EEEERKSA_
vAd:_RemotingProxy__cctor_m4096951805
trc:__Z35Register_UnityEngine_Event_get_typev
hxj:__ZN6il2cpp2vm9Exception23GetInvalidCastExceptionERKNS_5utils10StringViewIDsEE
Ssi:__ZL64Scrollbar_t1494447233_CustomAttributesCacheGenerator_m_DirectionP21CustomAttributesCache
rz:__ZN8Animator28BuildControllerPlayableCacheEv
p$h:__ZL48Header_t549724581_CustomAttributesCacheGeneratorP21CustomAttributesCache
Qmi:__ZL88CanvasGroup_t4083511760_CustomAttributesCacheGenerator_CanvasGroup_get_alpha_m2918269489P21CustomAttributesCache
Nbh:__Z36RuntimeInvoker_EventType_t3528516131PFvvEPK10MethodInfoPvPS4_
sZ:__Z63ThreadAndSerializationSafeCheckGetMonoBehaviourBeingTransferredv
BOf:_StackTrace__ctor_m206492268
qNg:_List_1_set_Item_m4224739467_gshared
p_g:__Z74RuntimeInvoker_Int32_t2950945753_RuntimeObject_RuntimeObject_RuntimeObjectPFvvEPK10MethodInfoPvPS4_
idd:_ColorTween_set_startColor_m2562993758_AdjustorThunk
KDe:_ConstructorBuilder_get_Name_m2426555260
alc:__Z37Register_UnityEngine_Input_GetAxisRawv
m9h:__ZL80ModulusRing_t596511505_CustomAttributesCacheGenerator_ModulusRing_Pow_m729002192P21CustomAttributesCache
DGi:_Parser_ParseCharacterClass_m4285351396
jIf:_Convert_ToSByte_m2653418303
yCf:_SyncHashtable__ctor_m2449935938
cM:__ZN11AudioSource5ResetEv
mkf:_RSAPKCS1SignatureFormatter_SetKey_m2935054088
cQb:__ZN12ImageFilters27SetSurfaceUseResolvedBufferEP13RenderTextureb
fGi:_Regex__ctor_m3948448025
e9a:__ZN14Texture2DArray23VirtualRedirectTransferER18StreamedBinaryReadILb0EE
BUf:_UTF7Encoding_GetByteCount_m209415911
Llb:__ZN2UI13RectTransform13AwakeFromLoadE17AwakeFromLoadMode
jJi:_RegularExpression_Compile_m2385682508
p6e:_CompareInfo__cctor_m1837489679
mci:__ZL90GameObject_t1113636619_CustomAttributesCacheGenerator_GameObject_get_transform_m1369836730P21CustomAttributesCache
$Ub:__ZN14qsort_internal30FindAndMovePivotToLastPositionIP20ShadowCasterSortDatai26ShadowCasterSortDataSorterEEvT_S4_T0_T1_
U$h:__ZL60IRemotingTypeInfo_t2222593263_CustomAttributesCacheGeneratorP21CustomAttributesCache
bqb:__Z18Transfer_BlittableI14SafeBinaryReadLb1EiEvRK29SerializationCommandArgumentsR31RuntimeSerializationCommandInfo
JNe:_X509ExtensionEnumerator_get_Current_m256207749
n8:__GLOBAL__sub_I_modules_profiler_public_0_cpp
xQh:_Predicate_1__ctor_m3829092036_gshared
jkb:__ZN17PersistentManager13GetAllFileIDsERKN4core12basic_stringIcNS0_20StringStorageDefaultIcEEEER13dynamic_arrayIxLj8EE
b3h:__ZL83StringBuilder_t_CustomAttributesCacheGenerator_StringBuilder_AppendLine_m1438862993P21CustomAttributesCache
QXe:_Array_Sort_m182264525
dNd:_LayoutGroup_set_padding_m282562135
Tvh:_Collection_1_System_Collections_IList_get_IsReadOnly_m773226719_gshared
sCe:_Default_IsArrayAssignable_m953489228
yD:__ZNK4PPtrI8RendererEcvPS0_Ev
Csj:_il2cpp_field_get_offset
a$f:_UInt16_ToString_m355311020_AdjustorThunk
mrh:_Array_swap_TisUICharInfo_t75501106_TisUICharInfo_t75501106_m585514134_gshared
FLi:_InvokableCall_1_remove_Delegate_m667188944_gshared
Vvd:_SynchronizedClientContextSink__ctor_m4129963630
Mk:_glGetStringi
Ysf:_DecoderExceptionFallback_CreateFallbackBuffer_m1133375601
UBj:__ZNK15dense_hashtableI10KeyWrapperIP18Il2CppGenericClassES3_N6il2cpp8metadata22Il2CppGenericClassHashEN14dense_hash_setIS3_S6_NS3_14EqualsComparerINS5_25Il2CppGenericClassCompareEEENSt3__29allocatorIS3_EEE8IdentityESA_SD_E10test_emptyERK30dense_hashtable_const_iteratorIS3_S3_S6_SF_SA_SD_E
Uae:_Enumerator_get_CurrentKey_m889650866_gshared
_1a:__ZNSt3__26__treeINS_12__value_typeIN9ShaderLab16FastPropertyNameEN18UnityPropertySheet11UnityTexEnvEEENS_19__map_value_compareIS3_S6_NS_4lessIS3_EELb1EEENS_9allocatorIS6_EEE12__find_equalIS3_EERPNS_16__tree_node_baseIPvEENS_21__tree_const_iteratorIS6_PNS_11__tree_nodeIS6_SG_EEiEESJ_RKT_
aab:__ZN18StreamedBinaryReadILb0EE21TransferSTLStyleArrayI13dynamic_arrayI8Vector4fLj4EEEEvRT_17TransferMetaFlags
X8d:_Comparer_1_get_Default_m1513846993_gshared
$8f:_EncryptedData_get_EncryptionAlgorithm_m1297902161
Tqi:__ZL67OptionDataList_t1438173104_CustomAttributesCacheGenerator_m_OptionsP21CustomAttributesCache
KA:__ZN8Animator9WriteStepEy
lae:_Enumerator_VerifyCurrent_m829026141_gshared
Kcc:__ZN16PropertyAccessorC2Ev
S6a:__ZNSt3__23mapIN4core12basic_stringIcNS1_20StringStorageDefaultIcEEEE9PrefValueNS_4lessIS5_EENS_9allocatorINS_4pairIKS5_S6_EEEEEixERSB_
_Ab:__Z35Transfer_Blittable_FixedBufferFieldI18StreamedBinaryReadILb1EEaEvRK29SerializationCommandArgumentsR31RuntimeSerializationCommandInfo
ecc:__ZN15DirectorManager22ConstructPlayableGraphEv
Rsi:__ZL65Scrollbar_t1494447233_CustomAttributesCacheGenerator_m_HandleRectP21CustomAttributesCache
i7a:__ZN13ScreenManager16SetScreenTimeoutEi
gvb:__Z18Transfer_BlittableI17RemapPPtrTransferLb0EdEvRK29SerializationCommandArgumentsR31RuntimeSerializationCommandInfo
Vwh:_Collection_1_ConvertItem_m1743542180_gshared
nRc:__Z38Register_UnityEngine_Font_HasCharacterv
Wlh:__Z68RuntimeInvoker_Boolean_t97287965_Int16_t2552820387_Int16_t2552820387PFvvEPK10MethodInfoPvPS4_
YYb:__Z35IntersectSpherePlaneBoundsOptimizedRKN4math7_float4EPS1_i
tjf:_RNGCryptoServiceProvider__cctor_m3587754670
L0d:_InternalEnumerator_1_MoveNext_m1728532725_AdjustorThunk
rMg:_List_1_get_Count_m241572196_gshared
IEj:__ZN6il2cpp2os5posix15PosixWaitObject13InterruptWaitEv
Kca:__Z22CleanupLODGroupManagerPv
prc:__Z21Event_CUSTOM_PopEventP12Il2CppObject
vl:_glUniform3fv
eRj:__ZNK6il2cpp8metadata24Il2CppGenericInstCompareclERK10KeyWrapperIPK17Il2CppGenericInstES8_
ghb:__ZNSt3__218__insertion_sort_3IRN15ResourceManager10Dependency6SorterEPS2_EEvT0_S6_T_
cOe:_X509ChainElement_Set_m655180762
A5i:_CustomEventData_AddInt32_m548429697
Cig:_MonoBehaviour_StopCoroutine_m615723318
Jkg:_Quaternion_GetHashCode_m2636680144
LTb:__ZNK16LightmapSettings31GetRealtimeLightmapDecodeValuesEv
eL:__ZN5audio5mixer12SetSuspendedERNS0_16AudioMixerMemoryEb
clb:__ZN17PersistentManager21UnloadNonDirtyStreamsEv
RTf:_UnicodeDecoder__ctor_m3606046165
p3g:__Z96RuntimeInvoker_Int32_t2950945753_RuntimeObject_Int32_t2950945753_RuntimeObject_Int32_t2950945753PFvvEPK10MethodInfoPvPS4_
mUi:_AnalyticsEventTracker_OnEnable_m1121905268
KJi:_Uri_get_Parser_m3737125102
C2i:_Canvas_get_overrideSorting_m2740418462
adg:_Debug_LogFormat_m309087137
ZWf:_Scheduler__ctor_m3313141270
hab:__ZN12ImageFilters4BlitER17ShaderPassContextP7TextureP13RenderTextureiPK18SharedMaterialDataPKcP6ShaderiNS_9BlitFlagsE11CubemapFaceRK8Vector2fSH_
Arf:_String_LastIndexOf_m3451222878
AEi:_Mark_get_Index_m3048692661
oui:__ZL69CanvasScaler_t2767979955_CustomAttributesCacheGenerator_m_ScaleFactorP21CustomAttributesCache
Eug:_Dictionary_2_ToTValue_m692436965_gshared
rT:__ZN11UnityEngine15CloudWebService10RestClientINS0_23WebRequestRestHeaderMapEED2Ev
MOh:_U3CCreateWhereIteratorU3Ec__Iterator1D_1__ctor_m1723214851_gshared
Sl:_emscripten_glDepthMask
fBd:_RemotingServices_CreateClientProxy_m3886727610
Yxa:__ZN4crnd25static_huffman_data_model22prepare_decoder_tablesEv
H4a:__ZN9Texture2D23VirtualRedirectTransferER17RemapPPtrTransfer
R9f:_AssetBundleRequest_t699759206_marshal_pinvoke
wyg:_DefaultComparer__ctor_m1292755885_gshared
sse:_RecordProtocol_GetMessage_m2086135164
oqc:__Z23GUIStatePopDisplayIndexv
hDb:__Z18Transfer_BlittableI18StreamedBinaryReadILb0EELb0E10ColorRGBAfEvRK29SerializationCommandArgumentsR31RuntimeSerializationCommandInfo
qda:__Znaj
w5j:_emscripten_glEnableClientState__wrapper
aii:__ZL60PlayableBehaviour_t4203540982_CustomAttributesCacheGeneratorP21CustomAttributesCache
Y9:__ZN17MessageIdentifierC2EPKcNS_7OptionsEPKN5Unity4TypeES1_
oYg:__Z45RuntimeInvoker_Void_t1185182177_RuntimeObjectPFvvEPK10MethodInfoPvPS4_
M8a:__ZN13dynamic_arrayI4PPtrI6SpriteELj4EE9push_backERKS2_
uig:_Mesh_SetTriangles_m1523451247
Cpf:_Single_System_IConvertible_ToSByte_m1208276900
nGe:_GenericTypeParameterBuilder_get_IsGenericType_m2493787252
USa:__ZN11GameManager15ThreadedCleanupEv
I1g:__Z105RuntimeInvoker_Void_t1185182177_RuntimeObject_RuntimeObject_RuntimeObject_RuntimeObject_Int32_t2950945753PFvvEPK10MethodInfoPvPS4_
zsg:_ValueCollection_System_Collections_Generic_ICollectionU3CTValueU3E_Add_m3298059628_gshared
JYg:__Z64RuntimeInvoker_RuntimeObject_Int16_t2552820387_Int16_t2552820387PFvvEPK10MethodInfoPvPS4_
HQ:__Z55Register_UnityEngine_AudioSource_get_spatializeInternalv
fxi:__ZL71TrackableTrigger_t621205209_CustomAttributesCacheGenerator_m_MethodPathP21CustomAttributesCache
QLa:__ZN14SafeBinaryRead8TransferI14ConstantStringEEvRT_PKc17TransferMetaFlags
JJe:__ZN28GenericInterfaceFuncInvoker3IbP26X509Certificate_t713131622P20X509Chain_t194917408iE6InvokeEPK10MethodInfoP12Il2CppObjectS1_S3_i
oOb:__ZNK6Camera16GetStereoEnabledEv
g8h:__ZL90HttpWebRequest_t1669436515_CustomAttributesCacheGenerator_HttpWebRequest__ctor_m1789065007P21CustomAttributesCache
q6g:__Z72RuntimeInvoker_Int32_t2950945753_TimeSpan_t881159249_TimeSpan_t881159249PFvvEPK10MethodInfoPvPS4_
Tse:_SendRecordAsyncResult_SetComplete_m153213906
Rna:__ZL24FindBelongingStructParamRPKcRNSt3__26vectorIN9ShaderLab20SerializedSubProgram14ConstantBufferENS2_9allocatorIS6_EEEE
c9b:__ZN12LightManager15InitializeClassEv
kXf:_WaitHandle__cctor_m4242752477
e0a:__ZN9ShaderLab11shaderprops16GetComputeBufferEPK19ShaderPropertySheetS3_NS_16FastPropertyNameE
hJj:__ZN6il2cpp6icalls8mscorlib6System10Reflection10MethodBase31GetMethodFromHandleInternalTypeEii
X_:__ZN18ScriptingArgumentsC2Ev
Nag:_Vector3_op_Equality_m4231250055
Mug:_Dictionary_2_System_Collections_IDictionary_get_Item_m1524611028_gshared
S0j:_emscripten_glBlendFuncSeparate__wrapper
Lki:__ZL68GUISettings_t1774757634_CustomAttributesCacheGenerator_m_CursorColorP21CustomAttributesCache
Aff:_FileSystemInfo__ctor_m3769019897
Rth:_Array_InternalArray__get_Item_TisContentType_t1787303396_m421427711_gshared
Jlg:_Rect_get_xMin_m581135837_AdjustorThunk
$ua:__Z17HasSampledTexture14GraphicsFormat13formatSupport
EPb:__ZNK25CameraStackRenderingState27GetStereoImageEffectTextureEb
iId:_HMACSHA384__ctor_m1677515580
pjf:_RIPEMD160Managed_J_m1336489154
Dp:__ZN8Vector3f8TransferI14SafeBinaryReadEEvRT_
Yej:__ZN6il2cpp6icalls6System6System3Net7Sockets6Socket7ReceiveEiP11Il2CppArrayiiNS4_11SocketFlagsEPi
Go:FUNCTION_TABLE_ii
NSa:__ZN10TagManager8TransferI18StreamedBinaryReadILb0EEEEvRT_
cAh:_Collection_1_System_Collections_IList_get_IsReadOnly_m2202364665_gshared
Quc:__Z18Transfer_BlittableI9JSONWriteLb0E8BitFieldEvRK29SerializationCommandArgumentsR31RuntimeSerializationCommandInfo
xhf:_MemoryStream_set_Capacity_m1773624579
Mtj:__ZNK15dense_hashtableINSt3__24pairIK10KeyWrapperINS1_IP11Il2CppClassjEEES4_EES6_N6il2cpp8metadata14ArrayClassHashEN14dense_hash_mapIS6_S4_SB_NS6_14EqualsComparerINSA_17ArrayClassCompareEEENS0_9allocatorIS8_EEE9SelectKeyESF_SH_E10test_emptyEj
Q5e:_GC_SuppressFinalize_m1177400158
aja:__ZNSt3__26vectorIN9ShaderLab20SerializedSubProgram15StructParameterENS_9allocatorIS3_EEE8__appendEj
vb:invoke_diiii
x$j:b47
UUi:_EventTrigger_set_initTime_m3128947762
K7g:__Z95RuntimeInvoker_Void_t1185182177_RuntimeObject_RuntimeObject_SByte_t1669577662_SByte_t1669577662PFvvEPK10MethodInfoPvPS4_
rNa:__Z24CreateDirectoryRecursiveRKN4core12basic_stringIcNS_20StringStorageDefaultIcEEEE
j$j:b41
wla:__ZN9ShaderLab20SerializedSubProgram8TransferI18StreamedBinaryReadILb0EEEEvRT_
Ite:_SslClientStream_get_HaveRemoteValidation2Callback_m2858953511
i$j:b40
sga:__ZN19ThreadSpecificValueIP14StackAllocatorE15ReinitializeTLSEPv
GXb:__Z9EndJobSetR8JobFence11JobPriority
Nfi:__ZL54ContextMenu_t1295656858_CustomAttributesCacheGeneratorP21CustomAttributesCache
y9:__ZN13RuntimeStaticI21ScalableBufferManagerLb0EE13StaticDestroyEPv
VRc:__ZN2UI13CanvasManager9AddCanvasEPNS_6CanvasE
_9a:__ZN9Texture3D8TransferI19StreamedBinaryWriteILb0EEEEvRT_
hQb:__ZNK6Camera22CalculateRenderingPathEv
iwc:__ZN9JSONWrite8TransferI5RectTIfEEEvRT_PKc17TransferMetaFlags
HVe:_Hashtable_TestPrime_m3839319309
tC:__ZN11UnityEngine9Animation37SetGenericRootTransformPropertyValuesERKNS0_30AnimatorGenericBindingConstantERKN7mecanim10ValueArrayER9Transformbb
mEa:__Z13ConvertMipmap14GraphicsFormatPKvS_Pviiii
B5c:_BaseRaycaster_get_renderOrderPriority_m1110184610
hTe:_PKCS12_get_IterationCount_m626423090
lvb:__ZL12InvokeMethodI17RemapPPtrTransferEvRK29SerializationCommandArgumentsR31RuntimeSerializationCommandInfo
zsf:_StringComparer_Compare_m991165676
cIc:_tt_sbit_decoder_load_image
NZd:_InternalEnumerator_1_MoveNext_m3299696349_AdjustorThunk
lTg:_List_1_System_Collections_ICollection_get_IsSynchronized_m1552759297_gshared
suj:__ZN15dense_hashtableINSt3__24pairIK10KeyWrapperIP11Il2CppClassES4_EES5_N6il2cpp8metadata16SZArrayClassHashEN14dense_hash_mapIS5_S4_SA_NS5_14EqualsComparerINS9_19SZArrayClassCompareEEENS0_9allocatorIS7_EEE9SelectKeyESE_SG_EC2EjRKSA_RKSE_RKSI_
ROi:_U3CStartU3Ec__Iterator0_Dispose_m261027331_gshared
kFa:__ZN4core8hash_mapIPK17RenderSurfaceBaseP13RenderTexture19PointerHashFunctionIS3_ENSt3__28equal_toIS3_EEE6insertERKNS8_4pairIKS3_S5_EE
iqc:__ZNSt3__24listIN10GUIManager12SortedScriptE11memory_poolIS2_EE6__sortI13OldSortScriptEENS_15__list_iteratorIS2_PvEESA_SA_jRT_
CCg:_EqualityComparer_1_System_Collections_IEqualityComparer_GetHashCode_m2588073987_gshared
Vzh:_Collection_1_System_Collections_IList_Add_m3364892189_gshared
NNg:_List_1_AddEnumerable_m3500350831_gshared
xdj:__ZN24dense_hashtable_iteratorINSt3__24pairIK10KeyWrapperIPK11Il2CppClassEPKcEES6_N6il2cpp5utils11PointerHashIS3_EEN14dense_hash_mapIS6_S9_SE_NS6_14EqualsComparerINS0_8equal_toIS5_EEEENS0_9allocatorISA_EEE9SelectKeyESJ_SL_E30advance_past_empty_and_deletedEv
Tle:_PrivateKeyInfo_get_PrivateKey_m3647771102
Qub:__Z18Transfer_BlittableI17RemapPPtrTransferLb1E8BitFieldEvRK29SerializationCommandArgumentsR31RuntimeSerializationCommandInfo
Jwj:__ZN6il2cpp6icalls8mscorlib6System9ThreadingL11ThreadStartEPv
ifa:__ZN15DirectorManager12OnSampleTimeEv
lpd:__ZN28GenericInterfaceFuncInvoker1IP12Il2CppObjectS1_E6InvokeEPK10MethodInfoS1_S1_
Kkd:_TypeBuilder_check_not_created_m3652863637
y9c:_StandaloneInputModule_UpdateModule_m450861257
r1i:_Font_add_textureRebuilt_m2164317336
OLh:_ReadOnlyCollection_1_System_Collections_IList_Insert_m2928873627_gshared
uL:__ZNK4PPtrI10AudioMixerEptEv
UBg:_EqualityComparer_1__cctor_m314889309_gshared
s6:__ZN12CachedReader10Align4ReadEv
czg:_DefaultComparer_GetHashCode_m556015105_gshared
wBi:_X501__cctor_m2428304915
B2i:_Canvas_get_renderOrder_m1489855841
gZg:__Z50RuntimeInvoker_Void_t1185182177_Single_t1397266774PFvvEPK10MethodInfoPvPS4_
foi:__ZL77ExecuteEvents_t3484638744_CustomAttributesCacheGenerator_U3CU3Ef__mgU24cache1P21CustomAttributesCache
nQi:_Event_ToString_m1688862299
G6g:__Z70RuntimeInvoker_Boolean_t97287965_RuntimeObject_IPAddressU26_t589322682PFvvEPK10MethodInfoPvPS4_
hch:__Z105RuntimeInvoker_Void_t1185182177_Vector2U26_t2376273893_RuntimeObject_RuntimeObject_Vector2U26_t2376273893PFvvEPK10MethodInfoPvPS4_
pKa:__ZNK9Behaviour22GetTypeVirtualInternalEv
e6e:_CCGregorianCalendar_month_from_fixed_m4268992710
Gxf:_Array_compare_TisUICharInfo_t75501106_m1310495481_gshared
h6b:__ZNK28MonoBehaviourPropertyBinding12SetPPtrValueERKN11UnityEngine9Animation10BoundCurveEi
IZb:__Z21GetScriptingArraySize17ScriptingArrayPtr
qNc:__ZN20TextRenderingPrivate8FontImpl8TransferI14SafeBinaryReadEEvRT_
U4g:__Z51RuntimeInvoker_UInt32_t2560061978_Double_t594665363PFvvEPK10MethodInfoPvPS4_
eWh:__ZL55ISymbolWriter_t780458634_CustomAttributesCacheGeneratorP21CustomAttributesCache
_qc:__ZN11IMGUIModule21ClearDeveloperConsoleEv
Dii:__ZL81MessageTypeSubscribers_t1684935770_CustomAttributesCacheGenerator_m_messageTypeIdP21CustomAttributesCache
bKh:_ReadOnlyCollection_1_System_Collections_IList_Clear_m4022532825_gshared
bSf:_Encoding_get_ASCII_m3595602635
Ykg:_Ray_get_direction_m761601601_AdjustorThunk
Qra:__ZN9GfxDevice17ImmediateTexCoordEifff
HMc:_ft_black_new
EEe:_DerivedType_GetCustomAttributes_m3536779709
D3h:__ZL93Interlocked_t2273387594_CustomAttributesCacheGenerator_Interlocked_CompareExchange_m388540288P21CustomAttributesCache
Skd:_MethodBase_get_IsAbstract_m428833029
fYe:_AssemblyLoadEventHandler__ctor_m896828968
Ovb:__Z35Transfer_Blittable_FixedBufferFieldI24GenerateTypeTreeTransferhEvRK29SerializationCommandArgumentsR31RuntimeSerializationCommandInfo
L_j:_emscripten_glUniform4f__wrapper
hNg:_List_1_Reverse_m4144036584_gshared
lIg:_Enumerator_MoveNext_m2595190390_AdjustorThunk
dzf:_Array_InternalArray__IndexOf_TisColor32_t2600501292_m3783551884_gshared
GY:__ZNK6Camera16GetProjectionFarEv
Uq:__Z24InverseTransformRotationRK23TransformAccessReadOnlyRKN4math7_float4E
wCi:_X509Chain_Build_m2469702749
Gnf:_Evidence_get_IsSynchronized_m3446368195
jM:__ZN11AudioSource6UpdateEv
qfe:_Transform_1_EndInvoke_m1204015506_gshared
o2c:__Z31GetPerformanceReportingSettingsv
h2a:__ZNK14PlayableOutput11DerivesFromE17ScriptingClassPtr
Lvd:__ZN25GenericVirtActionInvoker06InvokeEPK10MethodInfoP12Il2CppObject
vXa:__ZThn280_N31CanvasBatchIntermediateRenderer20OnAssetBoundsChangedEv
V3:__ZN12BaseRenderer25FlattenSharedMaterialDataILb0EEEvRKS_R22PerThreadPageAllocatorR10RenderNode
Ikd:_TypeBuilder_DefineConstructor_m2989882735
ZPa:__ZN25SingleBlockMemoryFileDataC2E10MemLabelIdPvjb
Lli:__ZL59GUISkin_t1244372282_CustomAttributesCacheGenerator_m_toggleP21CustomAttributesCache
O5b:__ZN19LowerResBlitTexture13ApplySettingsEv
BD:__ZN8Animator8TransferI14SafeBinaryReadEEvRT_
cuj:__ZN15dense_hashtableINSt3__24pairIK10KeyWrapperIP11Il2CppClassES4_EES5_N6il2cpp8metadata16SZArrayClassHashEN14dense_hash_mapIS5_S4_SA_NS5_14EqualsComparerINS9_19SZArrayClassCompareEEENS0_9allocatorIS7_EEE9SelectKeyESE_SG_E4swapERSJ_
jRa:__ZN17GlobalGameManager23VirtualRedirectTransferER18StreamedBinaryReadILb0EE
wYb:__ZN27IntermediateRendererManager24GetIntermediateRenderersEi
O1:__Z23AsyncReadForceCloseFileRKN4core12basic_stringIcNS_20StringStorageDefaultIcEEEE
bu:__ZN17AnimationPlayable34CollectAnimatorControllerPlayablesER13dynamic_arrayIP26AnimatorControllerPlayableLj4EE
Jii:__ZL120RenderPipelineManager_t4036911426_CustomAttributesCacheGenerator_RenderPipelineManager_DoRenderLoop_Internal_m3799666479P21CustomAttributesCache
fP:__ZN16BaseVideoTexture19UpdateVideoTexturesEv
Tnd:_MonoField_GetValue_m3124733531
DWa:__Z28BuildSingleStreamChannelInfo17ShaderChannelMaskRK20VertexChannelsLayoutS_S2_P11ChannelInfo
Wwf:_Array_InternalArray__IEnumerable_GetEnumerator_TisOrderBlock_t1585977831_m2414028303_gshared
xpe:_Context_set_HandshakeState_m1329976135
D7a:__ZN6Sprite23VirtualRedirectTransferER19StreamedBinaryWriteILb0EE
CQf:_Enum_GetHashCode_m2848082716
a7b:__ZN2UI13RectTransform12SetAnchorMaxERK8Vector2f
l6c:_EventTrigger_Execute_m2453060771
bNh:_Comparison_1_Invoke_m517083441_gshared
I3g:__Z253RuntimeInvoker_Int32_t2950945753_RuntimeObject_Int32_t2950945753_Int32_t2950945753_RuntimeObject_Int32_t2950945753_UInt32U26_t3735378166_UInt32U26_t3735378166_RuntimeObject_DecoderFallbackBufferU26_t3866396827_ByteU5BU5DU26_t4057885439_SByte_t1669577662PFvvEPK10MethodInfoPvPS4_
rkj:__ZNK15dense_hashtableINSt3__24pairIK10KeyWrapperINS1_IPK9FieldInfoP11Il2CppClassEEEjEES9_17ReflectionMapHashIS8_EN14dense_hash_mapIS9_jSD_NS9_14EqualsComparerINS0_8equal_toIS8_EEEENS0_9allocatorISB_EEE9SelectKeyESI_SK_E5beginEv
coa:__ZNK9ShaderLab7Program19HasMatchingVariantsERK13dynamic_arrayI16ShaderKeywordSetLj4EE
ZHh:_ReadOnlyCollection_1_System_Collections_IList_get_IsFixedSize_m3402868227_gshared
xB:__ZN15SerializeTraitsIN4math4trsXEE8TransferI8BlobSizeEEvRS1_RT_
Kva:__ZN14DataBufferGLES11CopySubDataEPKS_jjj
ke:_emscripten_glVertexPointer
YTc:__ZN2UI13PrepareOutputERNS_7BatchesEjjNS_30AdditionalCanvasShaderChannelsE
iij:__ZN6il2cpp2vm7Runtime47RaiseExecutionEngineExceptionIfMethodIsNotFoundEPK10MethodInfo
gFi:_PatternCompiler_GetMachineFactory_m3758869886
FVb:__Z17GetFrustumPortionPK8Vector3fffPS_
pfi:__ZL105RectTransform_t3704657025_CustomAttributesCacheGenerator_RectTransform_INTERNAL_get_anchorMin_m1735215721P21CustomAttributesCache
tzj:__ZN15dense_hashtableINSt3__24pairIK10KeyWrapperIP14Il2CppIUnknownEjEES5_N6il2cpp5utils11PointerHashIS3_EEN14dense_hash_mapIS5_jSB_NS5_14EqualsComparerINS0_8equal_toIS4_EEEENS0_9allocatorIS7_EEE9SelectKeyESG_SI_E14squash_deletedEv
C6c:_EventTrigger_OnCancel_m585099428
v2h:__ZL107CodeAccessPermission_t2681295399_CustomAttributesCacheGenerator_CodeAccessPermission_GetHashCode_m880096813P21CustomAttributesCache
zRi:_GUILayoutEntry_ApplyOptions_m1741659338
m_i:__ZL25UnresolvedVirtualCall_189P12Il2CppObject22OrderBlock_t1585977831S1_PK10MethodInfo
Wwd:_MethodDictionary_set_MethodKeys_m1451825752
OEd:_RuntimeTypeHandle_Equals_m2857439487_AdjustorThunk
aAh:_Collection_1_System_Collections_ICollection_get_SyncRoot_m1659213062_gshared
Hpa:__ZNK9GfxDevice27GetPlatformAdjustedViewportEv
iHh:_ReadOnlyCollection_1_System_Collections_Generic_IListU3CTU3E_set_Item_m88350439_gshared
jVi:_StandardEventPayload_IsRequiredDataValid_m361738930
JOh:_Func_3_Invoke_m1194147890_gshared
QHi:_Reference_Compile_m4195878675
wJh:_ReadOnlyCollection_1_System_Collections_ICollection_CopyTo_m2672196987_gshared
sqf:_String_System_IConvertible_ToChar_m863771412
zmg:_RectTransform_get_anchorMin_m2928307238
U$e:_ArrayList__ctor_m3828927650
Sta:__ZThn9568_N13GfxDeviceGLES26EnableScissorRectsPlatformEv
VGa:__ZN10Matrix3x3f15InvertTransposeEv
LRi:_GUILayoutGroup_SetHorizontal_m996475327
Iof:_SecurityException_get_Demanded_m2500043391
CRi:_GUILayoutEntry__cctor_m663865902
hQe:_CaptureCollection_GetEnumerator_m732412500
vJd:__ZN23GenericVirtFuncInvoker2IDsiDsE6InvokeEPK10MethodInfoP12Il2CppObjectiDs
HNb:__Z11IsBatchmodev
WGg:_Enumerator_System_Collections_IEnumerator_get_Current_m713684915_gshared
Ntb:__Z29Transfer_Blittable_ArrayFieldI14SafeBinaryRead8Vector3fEvRT_R9ArrayInfoRK23StaticTransferFieldInfo
Cld:_MemberInfo__ctor_m3258770133
u0h:__ZL62IFormatterConverter_t2171992254_CustomAttributesCacheGeneratorP21CustomAttributesCache
p5h:__ZL78Convert_t2465617642_CustomAttributesCacheGenerator_Convert_ToSByte_m4075629912P21CustomAttributesCache
vzd:_SoapTypeAttribute_get_XmlTypeNamespace_m4211398148
fOc:__ZN20TextRenderingPrivate8FontImpl18ResetCachedTextureEv
xgj:__ZN6il2cpp6icalls8mscorlib6SystemL16GetFieldFromTypeINS_5utils10functional6FilterINSt3__212basic_stringIcNS7_11char_traitsIcEENS7_9allocatorIcEEEENS4_13VmStringUtils21CaseSensitiveComparerEEEEEP21Il2CppReflectionFieldP11Il2CppClassSK_iRKT_
noc:__Z27Screen_Get_Custom_PropWidthv
TLj:_GC_print_finalization_stats
Gde:_KeyCollection_System_Collections_ICollection_get_IsSynchronized_m2596089789_gshared
voa:__ZN11NamedObject15ThreadedCleanupEv
qSi:_GUITargetAttribute_GetGUITargetAttrValue_m2954410352
Cic:__Z53Register_UnityEngine_Behaviour_get_isActiveAndEnabledv
YXe:_SimpleEnumerator_get_Current_m72361444
sq:__ZNSt3__26vectorIN4core12basic_stringIcNS1_20StringStorageDefaultIcEEEENS_9allocatorIS5_EEE8__appendEj
Nfe:__ZN21InterfaceFuncInvoker2I27DictionaryEntry_t3123975638P12Il2CppObjectbE6InvokeEjP11Il2CppClassS2_S2_b
uP:__ZN13ProduceHelperI10SampleClipLb0EE7ProduceE10MemLabelId18ObjectCreationMode
vgb:__ZN26PlayerSettingsSplashScreen8TransferI17RemapPPtrTransferEEvRT_
V5f:_ASN1_set_Value_m2803403806
Egj:__ZN6il2cpp6icalls8mscorlib6SystemL17CollectTypeFieldsINS_5utils10functional10TrueFilterEEEvP11Il2CppClassPKS7_iRNSt3__26vectorIP9FieldInfoNSB_9allocatorISE_EEEERKT_
FZg:__Z52RuntimeInvoker_Int16_t2552820387_Decimal_t2948259380PFvvEPK10MethodInfoPvPS4_
n4b:__Z13GetTagManagerv
AVe:_Hashtable__ctor_m1815022027
vPh:__ZN28GenericInterfaceFuncInvoker1Ib39CustomAttributeNamedArgument_t287865710E6InvokeEPK10MethodInfoP12Il2CppObjectS0_
YUf:_UTF8Encoding_GetChars_m1433288684
S4i:__ZL10roundUp128PyS_
AR:__ZN11UnityEngine15CloudWebService17CloudJobSchedulerD0Ev
ql:_glGetIntegeri_v
jXd:_ArrayReadOnlyList_1_Contains_m381552673_gshared
jhh:__Z105RuntimeInvoker_Int32_t2950945753_RuntimeObject_OrderBlock_t1585977831_Int32_t2950945753_Int32_t2950945753PFvvEPK10MethodInfoPvPS4_
GYf:_TimeZone_ToUniversalTime_m2789507578
cZg:__Z96RuntimeInvoker_Boolean_t97287965_RuntimeObject_RuntimeObject_Int32_t2950945753_Int32_t2950945753PFvvEPK10MethodInfoPvPS4_
hyf:_Array_IndexOf_TisUICharInfo_t75501106_m3198896198_gshared
rSc:__ZNK2UI11CanvasGroup22GetTypeVirtualInternalEv
Jqe:_Context_get_Current_m2853615040
K7e:_CultureInfo_construct_internal_locale_from_lcid_m2668301444
v5f:_PrimeGeneratorBase__ctor_m2973488305
Cqc:__Z21CleanupGlobalGUIStatev
KZf:_Type_IsContextfulImpl_m3693603908
VSh:__ZL81RuntimeArray_CustomAttributesCacheGenerator_Array_GetValue_m120423883____indices0P21CustomAttributesCache
vki:__ZL79Event_t2956885303_CustomAttributesCacheGenerator_Event_get_modifiers_m995073384P21CustomAttributesCache
KHg:_Enumerator_VerifyState_m2873941769_gshared
aDb:__Z18Transfer_BlittableI18StreamedBinaryReadILb0EELb1EN4math12int3_storageEEvRK29SerializationCommandArgumentsR31RuntimeSerializationCommandInfo
PWg:__Z56RuntimeInvoker_RuntimeObject_RuntimeObject_RuntimeObjectPFvvEPK10MethodInfoPvPS4_
sIa:__ZN22VertexDeclarationCache5ClearEv
tGd:_CspParameters__ctor_m3852972821
PVe:_AppDomainInitializer_EndInvoke_m2095010821
L0b:__ZN17PersistentManager12SetPathRemapERKN4core12basic_stringIcNS0_20StringStorageDefaultIcEEEES6_
gXb:__ZN6Camera24PrepareCullingParametersERK23CameraCullingParameters13RenderingPathR11CullResults
gfc:__Z12SetIUISystemP9IUISystem
Nib:__ZN19RuntimeSceneManager22EndIntegrateMainThreadEP10UnitySceneNS_11LoadingModeE
Gqh:_Array_Sort_TisUICharInfo_t75501106_m3474449559_gshared
Uig:__ZN21InterfaceFuncInvoker0IP34MessageTypeSubscribers_t1684935770E6InvokeEjP11Il2CppClassP12Il2CppObject
nvb:__Z26Transfer_UnityEngineObjectI17RemapPPtrTransferLb0EEvRK29SerializationCommandArgumentsR31RuntimeSerializationCommandInfo
Imb:__ZN17WeakPtrSharedDataD0Ev
dGi:_QuickSearch_GetShiftDistance_m2542665852
Pab:__Z32TransferEnumWithNameForceIntSizeI14SafeBinaryRead11IndexFormatEvRT_RT0_PKc17TransferMetaFlags
qth:_Array_InternalArray__get_Item_TisCustomAttributeTypedArgument_t2723150157_m2639399822_gshared
h4f:_BigInteger_GenerateRandom_m3141592944
Ixb:__Z29Transfer_Blittable_ArrayFieldI24GenerateTypeTreeTransfer4AABBEvRT_R9ArrayInfoRK23StaticTransferFieldInfo
URe:_Interval_Contains_m1454846757
Ogd:_Graphic_CacheCanvas_m1120385152
G6d:_InternalEnumerator_1_MoveNext_m1262906009_gshared
Jfd:_U3CDelayedDestroyDropdownListU3Ec__Iterator0_Dispose_m100123149
MSj:_emscripten_GetProcAddress
IJg:_List_1_System_Collections_Generic_IEnumerableU3CTU3E_GetEnumerator_m944444416_gshared
Ca:invoke_fiiifii
gUj:_modff
BZa:__ZN20SphericalHarmonicsL219AddDirectionalLightERKN4math7_float3ERKNS0_7_float4E
lPe:_X509ChainElementCollection_get_IsSynchronized_m3980338507
$ea:__Z26ScheduleJobForEachInternalR8JobFencePFvPvjES1_iPFvS1_E11JobPriority
sNb:__ZZ23InitPlayerLoopCallbacksvEN41PostLateUpdateProfilerEndFrameRegistrator7ForwardEv
zfc:__ZN9Scripting18RaiseMonoExceptionEPKcz
TRc:__ZN2UI13UIInstruction19ClearSharedMeshDataER8JobFence
Cbc:__ZN10GameObject17WillHandleMessageERK17MessageIdentifier
wnf:_StrongNamePublicKeyBlob_Equals_m3655422942
tof:_SecurityContext__ctor_m1730177197
M3i:_RectTransformUtility_GetTransposed_m3952754222
B9b:__ZN9ShaderLab16FastPropertyName15InitBy28BitHashEj
K7i:__ZN6il2cpp2vm5Class7GetNameEP11Il2CppClass
LMg:_List_1_System_Collections_IList_set_Item_m4182383657_gshared
mBg:_EqualityComparer_1_System_Collections_IEqualityComparer_GetHashCode_m3723747923_gshared
Iph:_Array_Resize_TisOrderBlock_t1585977831_m3449774576_gshared
k0g:__Z96RuntimeInvoker_Void_t1185182177_Int32_t2950945753_Single_t1397266774_RuntimeObject_RuntimeObjectPFvvEPK10MethodInfoPvPS4_
SFh:_ReadOnlyCollection_1_CopyTo_m3722791265_gshared
whh:__Z59RuntimeInvoker_Int32_t2950945753_KeyValuePair_2_t3699644050PFvvEPK10MethodInfoPvPS4_
v9d:_Enumerator_System_Collections_IDictionaryEnumerator_get_Key_m195047678_AdjustorThunk
c8e:_DateTimeFormatInfo_get_RawAbbreviatedMonthNames_m2395953416
A2i:_Canvas_get_pixelPerfect_m333060872
_ab:__ZN17PackedFloatVector12UnpackFloatsEPfiiii
pld:_TypeBuilder_ToString_m3497908325
Pz:__ZN17AnimationPlayable28UpdateInternalStateRecursiveILi3ELb0EEEvPK35AnimationPlayableEvaluationConstant
Qsa:__ZN13GfxDeviceGLES21DestroyComputeProgramER12ObjectHandleI18ComputeProgram_TagPvE
CFi:_PatternCompiler_EmitIfDefined_m2075050865
XMf:_Decimal_System_IConvertible_ToInt64_m1446427516_AdjustorThunk
Oca:__ZN17UniqueIDGenerator16DestroyPureIndexEj
Iye:_NotImplementedException__ctor_m3095902440
h0:__ZL21AppendNestedClassName17ScriptingClassPtrRN4core17string_with_labelILi1EEE
Jia:__ZN14SafeBinaryRead21TransferSTLStyleArrayINSt3__26vectorIN9ShaderLab20SerializedSubProgram12UAVParameterENS1_9allocatorIS5_EEEEEEvRT_17TransferMetaFlags
u1i:_FontTextureRebuildCallback_Invoke_m3604797831
Kta:__ZN13GfxDeviceGLES32InitStereoGlobalsBuffersPlatformEiijPKv
jW:__ZNK13BaseAllocator10IsAssignedEv
KS:__ZN24TextDOMTransferWriteBaseI9JSONWriteE12PushMetaFlagEi
E_h:__ZL59_PropertyBuilder_t1366136710_CustomAttributesCacheGeneratorP21CustomAttributesCache
wBa:__ZN6prcoreL26RemapGenericIntegerToFloatI17TexFormatARGB888815TexFormatRFloatEEvPKNS_9InnerInfoE
yW:__ZN5Mutex6UnlockEv
Qfj:__ZN6il2cpp2vm10ThreadPool10InitializeEv
jQg:_List_1__ctor_m808270210_gshared
Mqj:__ZN6il2cpp2vm17TypeNameParseInfoD2Ev
IEg:_PrimeHelper_ToPrime_m3704362632_gshared
kJ:__ZN4FMOD7Channel7setModeEj
FMf:_Decimal_System_IConvertible_ToType_m2919262279
hrg:_Vector2_get_right_m1027081661
NX:__ZNK8Renderer8GetLayerEv
uif:_Stream_Close_m771352034
q7d:__ZN21InterfaceFuncInvoker1Ii19TimeSpan_t881159249E6InvokeEjP11Il2CppClassP12Il2CppObjectS0_
Py:__ZN7mecanim9animation22DestroyBlendTreeOutputEPNS0_15BlendTreeOutputERNS_6memory9AllocatorE
QRb:__ZNK6Camera20GetReplacementShaderEv
jTg:_List_1_System_Collections_IList_Remove_m4226673807_gshared
gQj:__ZNSt3__26__treeINS_12__value_typeINS_12basic_stringIcNS_11char_traitsIcEENS_9allocatorIcEEEEPFvvEEENS_19__map_value_compareIS7_SA_NS_4lessIS7_EELb1EEENS5_ISA_EEE4findIS7_EENS_15__tree_iteratorISA_PNS_11__tree_nodeISA_PvEEiEERKT_
Lya:__ZL23stbir__calculate_memoryP11stbir__info
Zce:_KeyCollection_System_Collections_Generic_ICollectionU3CTKeyU3E_Clear_m1261840136_gshared
Nlj:__ZNK15dense_hashtableINSt3__24pairIK10KeyWrapperINS1_IPK10MethodInfoP11Il2CppClassEEEjEES9_17ReflectionMapHashIS8_EN14dense_hash_mapIS9_jSD_NS9_14EqualsComparerINS0_8equal_toIS8_EEEENS0_9allocatorISB_EEE9SelectKeyESI_SK_E12test_deletedERK24dense_hashtable_iteratorISB_S9_SD_SM_SI_SK_E
aRe:_Interpreter_Close_m126356671
fyh:_Collection_1_InsertItem_m168969280_gshared
lSc:__ZNSt3__227__insertion_sort_incompleteIRPFbPN2UI6CanvasES3_EPS3_EEbT0_S8_T_
tab:__ZNK6Camera18GetRenderRectangleEv
ecj:__ZN6il2cpp5utils13dynamic_arrayIPK10Il2CppTypeLj4EE7reserveEj
O8a:__ZN13sorted_vectorIN4core12basic_stringIcNS0_20StringStorageDefaultIcEEEENSt3__24lessIS4_EE13stl_allocatorIS4_L18MemLabelIdentifier81ELi16EEE4findIS4_EENS5_11__wrap_iterIPS4_EERKT_
uGi:_Parser_HandleExplicitNumericGroups_m1412234891
Pth:_Array_InternalArray__get_Item_TisRaycastHit2D_t2279581989_m2440275162_gshared
SCe:_CustomAttributeNamedArgument_Equals_m1414002036
Jxc:__ZL26Transfer_SimpleNativeClassI8JSONRead10RectOffsetLb1EEvRK29SerializationCommandArgumentsR31RuntimeSerializationCommandInfo
Zgg:_Material_SetInt_m475299667
FVc:__Z44CanvasRenderer_CUSTOM_INTERNAL_CALL_SetColorP12Il2CppObjectRK10ColorRGBAf
JIg:_List_1__ctor_m3376109328_gshared
wFe:_FieldBuilder_GetFieldOffset_m725157755
lie:_Enumerator_MoveNext_m3045873697_AdjustorThunk
mGg:_Enumerator_System_Collections_IEnumerator_Reset_m959124362_AdjustorThunk
oQf:_Enum_ToObject_m121831801
Qai:__ZL57AsyncOperation_t1445031843_CustomAttributesCacheGeneratorP21CustomAttributesCache
bjd:_Image_get_hasBorder_m3423344180
yuc:__Z18Transfer_BlittableI9JSONWriteLb1EsEvRK29SerializationCommandArgumentsR31RuntimeSerializationCommandInfo
bZc:__Z48UnityAnalyticsHandler_CUSTOM_SendCustomEventNameP12Il2CppObjectP12Il2CppString
A2:__ZN6ObjectD2Ev
ggc:__ZN9Transform16SetLocalRotationERK11Quaternionf
igd:_FontData_set_richText_m993590067
Jai:__ZL90Application_t1852185770_CustomAttributesCacheGenerator_Application_get_isEditor_m857789090P21CustomAttributesCache
eOb:__ZN13RenderManager37RenderCamerasWithScriptableRenderLoopEi
AEd:_RuntimeMethodHandle__ctor_m2229201676
wXf:_TimeSpan__ctor_m3689759052
lRh:__ZL49UInt16_t2177724958_CustomAttributesCacheGeneratorP21CustomAttributesCache
GB:__ZN7mecanim8skeleton25SkeletonPoseComputeLocalQEPKNS0_8SkeletonEPKNS0_13SkeletonPoseTIN4math4trsXEEEPS7_ii
zmh:__Z37RuntimeInvoker_Enumerator_t3123848928PFvvEPK10MethodInfoPvPS4_
ACj:__ZN6il2cpp2os19ReleaseSocketHandleEj
sO:__ZN11AudioModule16GetDSPSampleRateEv
RHj:__ZN15dense_hashtableINSt3__24pairIK10KeyWrapperIPK19Il2CppGenericMethodEP10MethodInfoEES6_N6il2cpp8metadata23Il2CppGenericMethodHashEN14dense_hash_mapIS6_S9_SD_NS6_14EqualsComparerINSC_26Il2CppGenericMethodCompareEEENS0_9allocatorISA_EEE9SelectKeyESH_SJ_E5clearEv
Lcc:__ZN16PropertyAccessor5ClearEv
TKb:__ZN15InstancingProps11NewConstantERKN9ShaderLab16FastPropertyNameEj15ShaderParamTypehhjjP6Object
I8d:_Comparer_1__ctor_m3649041856_gshared
fjd:_Image_OnBeforeSerialize_m3415525254
yJd:_InputField_get_characterValidation_m4196664041
OYf:_Type_get_Attributes_m58528356
oQh:__ZN23GenericVirtFuncInvoker1Ib19Vector2_t2156229523E6InvokeEPK10MethodInfoP12Il2CppObjectS0_
hSb:__ZN6Camera28DefaultPerformRenderFunctionD0Ev
NSe:_Array_GetUpperBound_m4018715963
dDi:_X509Store__ctor_m2736551756
BEj:__ZN6il2cpp2os5posix15PosixWaitObjectC2ENS2_4TypeE
bQb:__ZN6Camera21PostMultiCustomRenderENS_10RenderFlagEb
nnh:_Array_InternalArray__Insert_TisMonoResource_t4103430009_m1997865927_gshared
slf:_SHA512Managed_HashFinal_m2173184560
Tif:_RIPEMD160__ctor_m860963627
HKb:__ZN23ShaderVariantCollection13WarmupShadersEv
xXa:__ZNK4PPtrI8MaterialEptEv
m7b:__ZN13ProduceHelperI9TransformLb0EE7ProduceE10MemLabelId18ObjectCreationMode
Dyi:_SslStreamBase_Finalize_m3260913635
R$:__Z25GetCommonScriptingClassesv
kjb:__Z27scripting_gc_collect_unsafei
tle:_MD5SHA1_HashFinal_m4115488658
xO:__ZN11AudioModule20SuspendVideoTexturesEv
Lzf:_Array_InternalArray__ICollection_Add_TisKeyValuePair_2_t71524366_m3468275433_gshared
e1i:_AudioSettings_InvokeOnAudioManagerUpdate_m4044425648
yQ:__Z59Register_UnityEngine_AudioExtensionManager_GetAudioListenerv
pWh:__ZL78Calendar_t1661121569_CustomAttributesCacheGenerator_Calendar_Clone_m1356182658P21CustomAttributesCache
$wb:__Z26Transfer_UnityEngineObjectI24GenerateTypeTreeTransferLb0EEvRK29SerializationCommandArgumentsR31RuntimeSerializationCommandInfo
PGf:_Convert_ToDouble_m278900635
TEc:_UNITY_FT_GlyphLoader_CheckPoints
wdg:_DebugLogHandler_LogException_m302830419
uLd:_InputField_LineDownCharacterPosition_m2798128425
GEg:_PrimeHelper_TestPrime_m2318568626_gshared
uVh:__ZL63KeyNotFoundException_t2292407383_CustomAttributesCacheGeneratorP21CustomAttributesCache
Yae:_Enumerator_System_Collections_IDictionaryEnumerator_get_Value_m684446183_AdjustorThunk
UXa:__ZN15SharedLightData7PrecalcEv
$1:__ZN10Matrix4x4fmLERKS_
Nq:__ZN4PPtrI9TransformE8TransferI18StreamedBinaryReadILb0EEEEvRT_
nlg:_Vector2__ctor_m3970636864
xAb:__Z35Transfer_Blittable_FixedBufferFieldI18StreamedBinaryReadILb1EEsEvRK29SerializationCommandArgumentsR31RuntimeSerializationCommandInfo
uR:__ZNK4PPtrI4MeshEdeEv
G4e:_Environment_InternalGetFolderPath_m468390978
QOa:__ZN15ArchiveReadFileD0Ev
m7h:__ZL65StackOverflowException_t3629451388_CustomAttributesCacheGeneratorP21CustomAttributesCache
Sde:_KeyCollection_System_Collections_IEnumerable_GetEnumerator_m2779004382_gshared
wPg:_List_1_System_Collections_Generic_ICollectionU3CTU3E_get_IsReadOnly_m2562366358_gshared
wle:_RSASslSignatureFormatter__ctor_m1299283008
P_c:__ZN11UnityEngine15PlatformWrapper18GetOperatingSystemEv
Joa:__ZNSt3__26vectorIP14DataBufferGLESNS_9allocatorIS2_EEE21__push_back_slow_pathIKS2_EEvRT_
bpf:_SecurityFrame_ToString_m339310712
H7h:__ZL54ThreadStart_t1006689297_CustomAttributesCacheGeneratorP21CustomAttributesCache
yUh:__ZL62ParamArrayAttribute_t3664765590_CustomAttributesCacheGeneratorP21CustomAttributesCache
lyc:__ZN8GUIStyle8TransferI8JSONReadEEvRT_
$ei:__ZL98Transform_t3600365921_CustomAttributesCacheGenerator_Transform_INTERNAL_set_localScale_m1089294020P21CustomAttributesCache
jSi:_GUIStyleState_t1397964415_marshal_pinvoke
Gp:__ZN15SerializeTraitsI13dynamic_arrayIiLj4EEE19ResizeSTLStyleArrayERS1_i
Yph:_Array_Resize_TisVector4_t3319028937_m1507893064_gshared
C3h:__ZL94Interlocked_t2273387594_CustomAttributesCacheGenerator_Interlocked_CompareExchange_m3023855514P21CustomAttributesCache
Hkf:_SHA1Managed_HashFinal_m2365675383
$9c:_TouchInputModule_ProcessTouchPress_m3504077560
wVi:_FieldWithTarget_get_typeString_m238478345
tUd:_Selectable_IsInteractable_m2611421038
wEc:_FT_MSB
CAg:_EqualityComparer_1_get_Default_m2572737998_gshared
Z2j:_emscripten_glReadPixels__wrapper
ZEg:_HashSet_1_Add_m1971460364_gshared
wQj:__ZN6il2cpp6icalls8mscorlib4Mono8Security12Cryptography18KeyPairPersistence10_CanSecureEP12Il2CppString
$ke:_MD4__ctor_m919379109
Stf:_Array_InternalArray__ICollection_Contains_TisParameterModifier_t1461694466_m1000453323_gshared
PYh:__ZL57FieldAttributes_t400321159_CustomAttributesCacheGeneratorP21CustomAttributesCache
Mwg:_Dictionary_2_System_Collections_ICollection_CopyTo_m4047192178_gshared
Fij:__ZN6il2cpp2os4File11GetFileStatERKNSt3__212basic_stringIcNS2_11char_traitsIcEENS2_9allocatorIcEEEEPNS0_8FileStatEPi
Vif:_RIPEMD160Managed_Initialize_m2173168986
r$h:__ZL54IMessageCtrl_t317049502_CustomAttributesCacheGeneratorP21CustomAttributesCache
o9b:__ZN9TransformC2E10MemLabelId18ObjectCreationMode
apa:__ZN13GfxDeviceGLES14SetRasterStateEPK17DeviceRasterState
FBe:_Assembly_ToString_m2053237013
trb:__Z30TransferField_LinearCollectionI14SafeBinaryReadEvRK29SerializationCommandArgumentsR31RuntimeSerializationCommandInfo
Chg:_Vector4_Equals_m1779210055
z5e:_Exception_set_HResult_m3489164646
NGc:_otv_Coverage_get_count
Ppd:_ParameterModifier_t1461694466_marshal_pinvoke_back
S2:__ZN14SafeBinaryRead11EndTransferEv
dDg:_EqualityComparer_1__cctor_m2741186979_gshared
Nrb:__ZN14SafeBinaryRead8TransferI8MonoPPtrEEvRT_PKc17TransferMetaFlags
Z8h:__ZL70Uri_t100236324_CustomAttributesCacheGenerator_Uri_Unescape_m3373094076P21CustomAttributesCache
FTd:_ScrollRect_set_verticalNormalizedPosition_m1452826170
eQf:_Enum_System_IConvertible_ToUInt16_m4216751959
ebh:__Z61RuntimeInvoker_Boolean_t97287965_PlayableHandleU26_t645981773PFvvEPK10MethodInfoPvPS4_
CGa:__ZN21UniformBufferTFMethod13MapBoneBufferEj
fCf:_Array_InternalArray__Insert_TisInt32_t2950945753_m4073217122_gshared
wjf:_RNGCryptoServiceProvider_RngClose_m3915778345
mDf:_SortedList_Remove_m2784369438
Ixa:__ZN4crnd12crn_unpacker10unpack_dxnEPPhjjj
VKf:_DateTime_get_Kind_m2154871796_AdjustorThunk
KHb:__ZN9TextAsset15ThreadedCleanupEv
VEi:_MatchCollection_get_SyncRoot_m1957585059
B0:__ZN14SerializedFileD2Ev
afa:__Z21CompleteFenceInternalR8JobFence
jrc:__Z30Event_Get_Custom_PropModifiersP12Il2CppObject
Wmh:__Z79RuntimeInvoker_RuntimeObject_OrderBlock_t1585977831_RuntimeObject_RuntimeObjectPFvvEPK10MethodInfoPvPS4_
qu:__ZN7mecanim9animation16CreateClipOutputEPKNS0_4ClipERNS_6memory9AllocatorE
_yd:_SoapAttribute_SetReflectionObject_m4109300849
aQd:_RawImage_get_mainTexture_m2396337033
R5i:_CustomEventData_Add_m1638466298
mjj:__ZN6il2cpp2vm10Reflection17GetAssemblyObjectEPK14Il2CppAssembly
QQf:_DecoderFallbackBuffer_Reset_m3069554060
lFb:__ZNSt3__218__stable_sort_moveIRN10vector_mapI17ScriptingClassPtrPKN5Unity4TypeENS_4lessIS2_EENS_9allocatorINS_4pairIS2_S6_EEEEE13value_compareENS_11__wrap_iterIPSB_EEEEvT0_SJ_T_NS_15iterator_traitsISJ_E15difference_typeEPNSM_10value_typeE
lha:__ZN6Shader21AwakeFromLoadThreadedEv
yAa:__ZN6prcoreL17RemapGenericFloatI17TexFormatRGBFloat17TexFormatRGBAHalfEEvPKNS_9InnerInfoE
F_f:_UInt16_System_IConvertible_ToSingle_m2654722405_AdjustorThunk
Wqg:_Vector2_GetHashCode_m3916089713_AdjustorThunk
$3c:__ZN13RuntimeStaticINSt3__26vectorIjNS0_9allocatorIjEEEELb0EE16StaticInitializeEPv
iU:__ZN13UploadHandler10OnSentDataEj
IRj:__ZN6il2cpp2os9SemaphoreC2Eii
Prb:__ZNSt3__26vectorI8MonoPPtr13stl_allocatorIS1_L18MemLabelIdentifier1ELi16EEE8__appendEj
GQb:__ZN14qsort_internal30FindAndMovePivotToLastPositionIP17RODataReplacementi19ROSorterReplacementEEvT_S4_T0_T1_
NGa:__ZN15UniformTFMethod20IsBoneCountSupportedEi
rwi:__ZL76StandardEventPayload_t1629891255_CustomAttributesCacheGenerator_m_ParametersP21CustomAttributesCache
VGh:_ReadOnlyCollection_1_System_Collections_IList_get_Item_m3076053687_gshared
b1f:_UnauthorizedAccessException__ctor_m246605039
J8b:__Z12BuildTextureIA4_tPFvP9Texture2DPS0_iiiiEES2_PKcii13TextureFormatRKT0_17TextureColorSpaceb
wYj:dynCall_viidi
St:__ZN8Playable18OnApplicationPauseEb
Jce:_KeyCollection__ctor_m1356492051_gshared
h$:__ZN24ScriptingMethodFiltering17FilterOnSignatureENS_18MethodSearchFilterE
j0b:__ZN18ScreenManagerWebGL13SetLockCursorE14CursorLockMode
Yne:_CipherSuite_DecryptRecord_m1495386860
UBi:_X509Certificate_VerifySignature_m3538124832
yif:_StreamAsyncResult_SetComplete_m1102187093
zIi:_CharacterClass_GetIntervalCost_m4036989868
Gui:__ZL64HorizontalLayoutGroup_t2586782146_CustomAttributesCacheGeneratorP21CustomAttributesCache
c6b:__ZN13MonoBehaviour19HandleNotificationsEPviR11MessageData
img:_RectOffset_Init_m2028508611
kSj:__ZN6il2cpp2os9EventImpl5ResetEv
VRg:_List_1_Sort_m933660666_gshared
Kme:_Alert__ctor_m3135936936
ndf:_Int64_System_IConvertible_ToInt32_m772105781
Oyi:_TlsClientSettings__ctor_m3220697265
nnj:__ZNK15dense_hashtableINSt3__24pairIK10KeyWrapperINS1_IPK9EventInfoP11Il2CppClassEEEjEES9_17ReflectionMapHashIS8_EN14dense_hash_mapIS9_jSD_NS9_14EqualsComparerINS0_8equal_toIS8_EEEENS0_9allocatorISB_EEE9SelectKeyESI_SK_E23find_position_with_hashERSA_j
cIi:_CaptureAssertion_set_CapturingGroup_m2003123956
U$j:b58
lch:__Z103RuntimeInvoker_Boolean_t97287965_RuntimeObject_Vector2_t2156229523_RuntimeObject_Vector2U26_t2376273893PFvvEPK10MethodInfoPvPS4_
awg:_Dictionary_2_make_pair_m2250450206_gshared
FSf:_ForwardingDecoder_GetChars_m4228908854
vRe:_InterpreterFactory_get_GroupCount_m2226373271
N$j:b53
A$j:b50
B$j:b51
S$j:b56
T$j:b57
O$j:b54
R$j:b55
QKg:_List_1_System_Collections_IList_get_IsReadOnly_m3531293387_gshared
VL:__ZN4PPtrI15AudioMixerGroupE8TransferI18StreamedBinaryReadILb0EEEEvRT_
Y2f:_SimpleCollator_IsSafe_m310268646
gxf:_Array_InternalArray__IEnumerable_GetEnumerator_TisWorkRequest_t1354518612_m2622205355_gshared
PZe:_Byte_System_IConvertible_ToByte_m162267264_AdjustorThunk
HTe:_X509Certificate_get_RawData_m2387471414
z1j:_glDetachShader__wrapper
dYe:_ArrayTypeMismatchException__ctor_m3375008173
Lee:_Transform_1_BeginInvoke_m1757796657_gshared
hrj:__ZNSt3__214__split_bufferINS_12basic_stringIcNS_11char_traitsIcEENS_9allocatorIcEEEERNS4_IS6_EEEC2EjjS8_
GFg:_KeyValuePair_2__ctor_m1794021352_AdjustorThunk
ahh:__Z88RuntimeInvoker_Int32_t2950945753_UIVertex_t4057497605_UIVertex_t4057497605_RuntimeObjectPFvvEPK10MethodInfoPvPS4_
Xac:__ZN10GameObject12CleanupClassEv
Qpa:__ZN9GfxDevice25SetShaderPropertiesSharedERK19ShaderPropertySheet
Oad:_BaseMeshEffect_get_graphic_m1852367505
M2e:_CaseInsensitiveHashCodeProvider_GetHashCode_m2168170016
uHb:__ZN10MonoScript17MainThreadCleanupEv
osf:_String_CreateString_m3400201881
z5d:_InternalEnumerator_1_Dispose_m28687982_AdjustorThunk
kac:__ZL25InitializeDefaultMaterialv
eWc:__Z53Register_UnityEngine_CanvasRenderer_get_materialCountv
Wjd:_PropertyBuilder_GetCustomAttributes_m3798356764
Vff:_Stream__ctor_m3881936881
Tpd:_PropertyInfo_get_MemberType_m2794839864
zPa:__ZN19FileAccessorHandlerD2Ev
_Ui:_EventTrigger_RemoveRule_m1596811726
tIg:_Enumerator_Dispose_m2367589020_AdjustorThunk
q8d:_Comparer_1_System_Collections_IComparer_Compare_m4179495191_gshared
bNa:__ZN17PersistentManager12UnloadStreamERKN4core12basic_stringIcNS0_20StringStorageDefaultIcEEEEb
QPa:__ZN10MemoryFile4ReadEyyPvPy
Lnh:_Array_InternalArray__Insert_TisUICharInfo_t75501106_m2924156520_gshared
eCg:_EqualityComparer_1_System_Collections_IEqualityComparer_Equals_m3139704160_gshared
Bzf:_MonoProperty_GetterAdapterFrame_TisRuntimeObject_TisRuntimeObject_m458718082_gshared
X6a:__ZN13ScreenManager17RequestResolutionEiibi
Qsj:_il2cpp_unity_liveness_calculation_from_statics
$x:__ZNK26AnimatorControllerPlayable11DerivesFromE17ScriptingClassPtr
Xyd:_SoapAttribute__ctor_m1857608874
G5d:_InternalEnumerator_1_System_Collections_IEnumerator_get_Current_m2649471526_gshared
iBg:_EqualityComparer_1_System_Collections_IEqualityComparer_Equals_m3218482536_gshared
l6:__ZN8Renderer8TransferI17RemapPPtrTransferEEvRT_
Fyi:_InternalAsyncResult_get_AsyncState_m1436290550
vYd:_InternalEnumerator_1_Dispose_m2018798800_AdjustorThunk
opa:__ZN13GfxDeviceGLES26UpdateViewProjectionMatrixEv
r9d:_Enumerator_System_Collections_IDictionaryEnumerator_get_Entry_m522483686_gshared
$7f:_PrivateKeyInfo_RemoveLeadingZero_m3921889925
eWf:_Thread_get_CurrentContext_m1695017876
$F:__ZN9AudioClip20OnBeforeDomainUnloadEv
tuh:_Mesh_GetAllocArrayFromChannel_TisColor32_t2600501292_m3180365313_gshared
f_b:__Z24LookRotationToQuaternionRK8Vector3fS1_P11Quaternionf
d_b:__ZN16ReflectionProbes9GetCameraEv
bna:__ZL18IsGpuProgramUsable20ShaderGpuProgramTypePK6Shader
GUc:__ZN2UI6Canvas17SetSortingLayerIDEi
Wad:_Button_get_onClick_m2332132945
yEj:__ZN6il2cpp2vm11MethodStack23CleanupForCurrentThreadEv
NEh:_Collection_1_ConvertItem_m618594517_gshared
Iri:__ZL61Image_t2670269651_CustomAttributesCacheGenerator_m_FillMethodP21CustomAttributesCache
yJf:_Convert_ToUInt64_m388601487
RVa:__ZN20TierGraphicsSettings8TransferI24GenerateTypeTreeTransferEEvRT_
Sbj:__ZN15dense_hashtableINSt3__24pairIK10KeyWrapperIN6il2cpp5utils13dynamic_arrayIPK10Il2CppTypeLj4EEEEPFvvEEESA_NS3_8metadata19Il2CppSignatureHashEN14dense_hash_mapISA_SD_SG_NSA_14EqualsComparerINSF_22Il2CppSignatureCompareEEENS0_9allocatorISE_EEE9SelectKeyESK_SM_E16reset_thresholdsEv
$hg:_Mesh_get_vertices_m3585684815
Ctb:__ZN14SafeBinaryRead21TransferSTLStyleArrayI13dynamic_arrayI4AABBLj4EEEEvRT_17TransferMetaFlags
opg:_TouchScreenKeyboard_get_text_m1797464608
q$b:__ZN26CustomRenderTextureManager25UpdateCustomRenderTextureEP19CustomRenderTexturei
bga:__ZNSt3__26__treeINS_12__value_typeIiN11TypeManager18TypeCallbackStructEEENS_19__map_value_compareIiS4_NS_4lessIiEELb1EEENS_9allocatorIS4_EEE7destroyEPNS_11__tree_nodeIS4_PvEE
Mti:__ZL60Slider_t3903728902_CustomAttributesCacheGenerator_m_FillRectP21CustomAttributesCache
iHb:__ZN13MonoBehaviour18TransferEngineDataI24GenerateTypeTreeTransferEE4PPtrI10MonoScriptERT_
Dfh:__Z71RuntimeInvoker_Void_t1185182177_CornerU26_t2243868623_Int32_t2950945753PFvvEPK10MethodInfoPvPS4_
mfg:_TextureMixerPlayable_Equals_m1074187513_AdjustorThunk
Fcc:__ZNK14PlayableOutput23GetSourcePlayableUnsafeEv
JZc:__ZN11UnityEngine7Connect17XRDeviceInfoEventD0Ev
J$h:__ZL60SoapTypeAttribute_t1750930817_CustomAttributesCacheGeneratorP21CustomAttributesCache
kCe:_Binder_ConvertArgs_m2124461494
fW:__ZN21UnityDefaultAllocatorI17LowLevelAllocatorE10DeallocateEPv
Cs:__ZN15PackedIntVector8TransferI14SafeBinaryReadEEvRT_
jrg:_Vector3__ctor_m3353183577_AdjustorThunk
u_d:_InternalEnumerator_1_System_Collections_IEnumerator_get_Current_m1514266661_gshared
sle:_MD5SHA1_Initialize_m675470944
wAf:_Array_InternalArray__ICollection_Add_TisKeyframe_t4206410242_m442111799_gshared
alb:__ZN29AssetBundleLoadAssetOperation10GetGCRootsER13dynamic_arrayIiLj4EE
E3h:__ZL58ManualResetEvent_t451242010_CustomAttributesCacheGeneratorP21CustomAttributesCache
IJh:_ReadOnlyCollection_1_System_Collections_IList_get_IsReadOnly_m2041535988_gshared
FBi:_X509Certificate_set_KeyAlgorithmParameters_m2010117999
NH:__ZN13AudioListener8DoUpdateEv
_cf:_Int32_GetTypeCode_m1648562395_AdjustorThunk
fwe:__Z13bankers_roundd
kgb:__ZN14SafeBinaryRead8TransferI5RectTIfEEEvRT_PKc17TransferMetaFlags
wi:_emscripten_glGenFramebuffers
Xfa:__ZN17BaseObjectManager16StaticInitializeEPv
Obe:_Enumerator_MoveNext_m1127886695_gshared
Tha:__ZNSt3__26vectorIN9ShaderLab26SerializedShaderDependencyENS_9allocatorIS2_EEE26__swap_out_circular_bufferERNS_14__split_bufferIS2_RS4_EE
A4h:__ZL80Convert_t2465617642_CustomAttributesCacheGenerator_Convert_ToBoolean_m3613483153P21CustomAttributesCache
gMg:_List_1_CheckCollection_m2602703205_gshared
sKa:__ZN9Behaviour23VirtualRedirectTransferER17RemapPPtrTransfer
UXc:__ZN21UnityAnalyticsManager23VirtualRedirectTransferER19StreamedBinaryWriteILb0EE
evc:__Z18Transfer_BlittableI9JSONWriteLb0EyEvRK29SerializationCommandArgumentsR31RuntimeSerializationCommandInfo
q$a:__ZN13RenderTexture15ThreadedCleanupEv
OMe:_X509BasicConstraintsExtension__ctor_m3721156175
H2a:__ZN12CubemapArray23VirtualRedirectTransferER14SafeBinaryRead
_ni:__ZL70EventSystem_t1003666588_CustomAttributesCacheGenerator_m_DragThresholdP21CustomAttributesCache
uu:__ZN21AnimationClipPlayable16ProcessHumanPassEPK35AnimationPlayableEvaluationConstantPK32AnimationPlayableEvaluationInputP33AnimationPlayableEvaluationOutput
X4e:_Path_GetFileName_m1354558116
n6f:_BitConverterLE_ToDouble_m1601000678
w0j:_emscripten_glUniform3i__wrapper
Slg:_Rect_Contains_m1232228501_AdjustorThunk
ZEa:__ZN18ProceduralMaterial9ReloadAllEbb
Nlc:__Z43RectTransform_CUSTOM_INTERNAL_set_sizeDeltaP12Il2CppObjectRK13Vector2fIcall
wdf:_Int64_System_IConvertible_ToType_m3223988955_AdjustorThunk
oAj:__ZN15dense_hashtableINSt3__24pairIK10KeyWrapperINS1_IPKcS4_EEEiEES6_24NamespaceAndNamePairHashN14dense_hash_mapIS6_iS9_NS6_14EqualsComparerI26NamespaceAndNamePairEqualsEENS0_9allocatorIS8_EEE9SelectKeyESD_SF_E6insertERKS8_
i6:__ZN24GenerateTypeTreeTransfer18BeginArrayTransferEPKcS1_Ri17TransferMetaFlags
Nth:_Array_InternalArray__get_Item_TisPlayableBinding_t354260709_m3837494573_gshared
wm:___syscall51
Tpc:__Z26BeforeDomainReloadCallbackv
REi:_MatchCollection_get_FullList_m1829231879
Am:___syscall54
VWe:_Array_GetValue_m2528415604
s$h:__ZL55IMessageSink_t2514424906_CustomAttributesCacheGeneratorP21CustomAttributesCache
Elf:_SymmetricAlgorithm_Clear_m3302238152
cqg:_Transform_INTERNAL_CALL_TransformPoint_m4261269221
Haf:_Guid_AppendShort_m791023083
fpi:__ZL109PointerEventData_t3807901092_CustomAttributesCacheGenerator_PointerEventData_get_eligibleForClick_m3788762543P21CustomAttributesCache
gRg:_List_1__ctor_m4212503576_gshared
iUf:_UTF32Encoding_GetBytes_m2832872594
loa:__ZN9ShaderLab9SubShader19CreateFromSubShaderERKS0_
_yb:__Z18Transfer_BlittableI19StreamedBinaryWriteILb0EELb1EjEvRK29SerializationCommandArgumentsR31RuntimeSerializationCommandInfo
UEc:_cff_builder_add_point1
xBj:__ZN6il2cpp2vm5Image21GetCachedResourceDataEPK11Il2CppImageRKNSt3__212basic_stringIcNS5_11char_traitsIcEENS5_9allocatorIcEEEE
wqb:__Z18Transfer_BlittableI14SafeBinaryReadLb0E10ColorRGBAfEvRK29SerializationCommandArgumentsR31RuntimeSerializationCommandInfo
za:invoke_iiiiiiiiii
Tdg:_DrivenRectTransformTracker_Clear_m371772582
aQ:__ZN11AudioSource25GetNumExtensionPropertiesEv
IBf:_Array_InternalArray__ICollection_CopyTo_TisUILineInfo_t4195266810_m104406798_gshared
gO:__ZNK7Texture10GetVRUsageEv
Q6b:__ZZL31RegisterRectTransformPropertiesR22GenericPropertyBindingEN32Wrapper_RectTransformAnchorMaxx013GetFloatValueEPv
zyg:_DefaultComparer__ctor_m41012692_gshared
hdg:_Debug_LogErrorFormat_m3558239521
Kgd:_Graphic_get_canvas_m3320066409
SKd:_InputField_ActivateInputFieldInternal_m3360893886
DVg:_List_1_Insert_m1781696722_gshared
IDi:_RijndaelManagedTransform__ctor_m1033522223
r2b:__ZN10FileSystem19SetCurrentDirectoryERKN4core12basic_stringIcNS0_20StringStorageDefaultIcEEEE
gcg:_Component_get_gameObject_m442555142
iwe:_Math_Log_m2526073084
r7b:__ZN23TransformChangeDispatch24RemovePermanentInterestsE15TransformAccessPKN5Unity4TypeE
B6b:__ZN32TransformHierarchyChangeDispatch31RegisterPermanentInterestSystemEPKcPKN5Unity4TypeENS_12InterestTypeEPFvPK15TransformAccessjE
uic:__Z47Register_UnityEngine_Coroutine_ReleaseCoroutinev
yI:__ZN15AudioReverbZone13SetFMODValuesEv
XZ:__ZN14SafeBinaryRead4InitERK16TypeTreeIteratorxx24TransferInstructionFlags10MemLabelId
fha:__ZL19StaticDestroyShaderPv
fe:_glRenderbufferStorageMultisample
occ:__ZN8Playable4PlayEv
OCf:_SyncHashtable_Clone_m3726939774
lz:__ZN23AnimationPlayableOutput17SetTargetAnimatorEP8Animator
cZh:__ZL62ParameterAttributes_t1826424051_CustomAttributesCacheGeneratorP21CustomAttributesCache
Bwc:__ZN9JSONWrite8TransferI13dynamic_arrayIN4math12int3_storageELj4EEEEvRT_PKc17TransferMetaFlags
WSb:__ZN22MotionVectorRenderLoopD2Ev
uhf:_MemoryStream_get_CanRead_m1639425566
jdg:_Debug_LogException_m2207318968
XQf:_DecoderReplacementFallback_GetHashCode_m1611165826
zjd:_Image_get_minWidth_m755066479
c6j:_pthread_cond_broadcast__wrapper
Fzf:_Array_InternalArray__ICollection_Add_TisClientCertificateType_t1004704908_m2622721177_gshared
Ks:__ZN17PackedFloatVector8TransferI18StreamedBinaryReadILb0EEEEvRT_
I3a:__ZN7Cubemap23VirtualRedirectTransferER17RemapPPtrTransfer
qoc:__Z37Register_UnityEngine_Screen_get_widthv
s5i:_UnityAnalyticsHandler_SendCustomEvent_m1223269116
eKi:_Uri_get_Authority_m3816772302
Ddc:__ZN22BlockMemoryCacheWriter11GetPathNameEv
sje:_BigInteger_op_Division_m3713793389
fpg:_Touch_get_position_m3109777936
iVc:__ZZN2UI14CanvasRenderer15InitializeClassEvEN38FunctorImpl_902kCanvasHierarchyChanged4CallEPviR11MessageData
Xod:_ParameterInfo__ctor_m3269320476
PPe:_X509SubjectKeyIdentifierExtension_FromHexChars_m3244835916
Opf:_Single_CompareTo_m2785801815
DAi:_PKCS12_MAC_m3355614022
v$h:__ZL63IMethodReturnMessage_t3705538073_CustomAttributesCacheGeneratorP21CustomAttributesCache
jp:stackAlloc
Oic:__Z44Camera_CUSTOM_INTERNAL_CALL_ScreenPointToRayP12Il2CppObjectRK8Vector3fR3Ray
aQa:__ZN25SingleBlockMemoryFileData4LockEPPv
ynb:__ZN12HandlerChain5TouchER13FileEntryData
c4j:_glProgramParameteri__wrapper
jMh:_ReadOnlyCollection_1_System_Collections_Generic_ICollectionU3CTU3E_get_IsReadOnly_m1215739200_gshared
SZ:__ZN17PersistentManager23PostReadActivationQueueEiPK8TypeTreeb
h9f:_AnimationCurve_t3046754366_marshal_pinvoke
rkc:__Z32RectOffset_Get_Custom_PropBottomP12Il2CppObject
cdg:_Debug_LogError_m2850623458
kYi:__ZL24UnresolvedVirtualCall_79P12Il2CppObjectPK10MethodInfo
VBh:_Collection_1_CheckWritable_m3225530705_gshared
b0i:__ZN25GenericVirtActionInvoker1IP24SingleU5BU5D_t1444911251E6InvokeEPK10MethodInfoP12Il2CppObjectS1_
Rui:__ZL74LayoutElement_t1785403678_CustomAttributesCacheGenerator_m_PreferredHeightP21CustomAttributesCache
sUj:_stat
D4:__ZN9ShaderLab10SubProgram7CompileEv
VKb:__ZN15InstancingProps14CombineBuiltinEN10Instancing11BuiltinPropES1_S1_
GRg:_List_1_Contains_m353222571_gshared
Pjd:_PropertyBuilder_get_CanRead_m3783190070
E0:__ZN14SerializedFile14SerializedTypeD2Ev
r7h:__ZL64ThreadStaticAttribute_t3840787420_CustomAttributesCacheGeneratorP21CustomAttributesCache
Mzf:_Array_InternalArray__ICollection_Add_TisKeyValuePair_2_t3699644050_m4052349323_gshared
joe:_CipherSuiteCollection_System_Collections_IList_get_Item_m2175128671
ZSa:__ZN6CameraD2Ev
la:invoke_iiiiiiiiiiii
BKf:_DateTime_System_IConvertible_ToType_m1242864300_AdjustorThunk
ltg:_ValueCollection_get_Count_m994935123_gshared
Q4d:_InternalEnumerator_1_get_Current_m2446410893_AdjustorThunk
CWa:__Z29CalculateDefaultChannelsToAdd17ShaderChannelMaskS_
Whi:__ZL89PlayableBinding_t354260709_CustomAttributesCacheGenerator_U3CstreamTypeU3Ek__BackingFieldP21CustomAttributesCache
CSa:__ZN10TagManager13RegisterLayerEjRKN4core12basic_stringIcNS0_20StringStorageDefaultIcEEEE
zIa:__ZNSt3__26__treeI20DeviceBlendStateGLES14MemoryCompLessI16DeviceBlendStateENS_9allocatorIS1_EEE7destroyEPNS_11__tree_nodeIS1_PvEE
k3i:_CanvasRenderer_SetMaterial_m633746949
vL:__ZN10AudioMixer12RebindOutputEv
iuj:__ZNK15dense_hashtableINSt3__24pairIK10KeyWrapperIP11Il2CppClassES4_EES5_N6il2cpp8metadata16SZArrayClassHashEN14dense_hash_mapIS5_S4_SA_NS5_14EqualsComparerINS9_19SZArrayClassCompareEEENS0_9allocatorIS7_EEE9SelectKeyESE_SG_E5beginEv
B_d:_InternalEnumerator_1__ctor_m819716934_gshared
XNd:_LayoutRebuilder_PerformLayoutControl_m4241054021
i7i:__ZN6il2cpp2vm17SetupFieldsLockedEP11Il2CppClassRKNS_2os12FastAutoLockE
C_i:__ZL25UnresolvedVirtualCall_205P12Il2CppObjectiS0_PK10MethodInfo
JNd:_U3CDelayedSetDirtyU3Ec__Iterator0_System_Collections_IEnumerator_get_Current_m3096581881
IJb:__ZNK9GfxDevice20IsViewportFullscreenEv
Gee:_Transform_1__ctor_m2638607165_gshared
lDa:__ZN18GlslGpuProgramGLES13SwitchProgramEj
OQa:__ZN20ArchiveStorageReaderC2E10MemLabelId
CYg:__Z132RuntimeInvoker_Int32_t2950945753_RuntimeObject_Int32_t2950945753_Int32_t2950945753_RuntimeObject_Int32_t2950945753_Int32_t2950945753PFvvEPK10MethodInfoPvPS4_
Qob:__ZN16MemoryFileSystem4NameEv
lpf:_Single_System_IConvertible_ToBoolean_m1716619219_AdjustorThunk
loc:__Z13SetCopyBufferRKN4core12basic_stringIcNS_20StringStorageDefaultIcEEEE
aHg:_Enumerator_get_Current_m2468920150_AdjustorThunk
fzi:_TlsException__ctor_m818940807
RTe:_X509CertificateEnumerator_System_Collections_IEnumerator_get_Current_m418791713
rXc:__ZN14UnityAnalyticsD2Ev
Qgc:__Z42ScriptingGetComponentsOfTypeFromGameObjectRK26ScriptingGetComponentsArgs
KOh:_Func_3_BeginInvoke_m2985061395_gshared
fhi:__ZL73ArgumentCache_t2187958399_CustomAttributesCacheGenerator_m_ObjectArgumentP21CustomAttributesCache
Vcg:_StateChanged_EndInvoke_m3313423087
jrh:_Array_swap_TisRaycastResult_t3360306849_TisRaycastResult_t3360306849_m3400922624_gshared
M0i:_AudioListener_ReadExtensionName_m929423100
sGd:_CspParameters__ctor_m2741097571
IEe:_EnumBuilder_get_DeclaringType_m4266754303
Q1a:__ZNSt3__27__sort4IRPFbRKNS_4pairIN9ShaderLab16FastPropertyNameEN18UnityPropertySheet11UnityTexEnvEEES8_EPS6_EEjT0_SD_SD_SD_T_
GGi:_Assertion_get_TrueExpression_m2743006331
SDc:_cf2_hintmap_build
Eej:_NativeHeaderAttribute_set_Header_m3310668383
Sog:_Texture_get_width_m888163864
$Mc:_Line_Up
kCb:__Z29Transfer_Blittable_ArrayFieldI18StreamedBinaryReadILb1EExEvRT_R9ArrayInfoRK23StaticTransferFieldInfo
Mph:_Array_Resize_TisRaycastResult_t3360306849_m1277390301_gshared
me:_emscripten_glBufferSubData
Lrf:_String_ReplaceUnchecked_m1381393810
C8f:_SymmetricTransform_CBC_m435753239
evb:__Z18Transfer_BlittableI17RemapPPtrTransferLb1EyEvRK29SerializationCommandArgumentsR31RuntimeSerializationCommandInfo
xui:__ZL76ContentSizeFitter_t3850442145_CustomAttributesCacheGenerator_m_HorizontalFitP21CustomAttributesCache
v7d:_DefaultComparer_Compare_m3278268937_gshared
aq:__Z17CalculateGlobalRS23TransformAccessReadOnly
Llj:__ZN24dense_hashtable_iteratorINSt3__24pairIK10KeyWrapperINS1_IPK10MethodInfoP11Il2CppClassEEEjEES9_17ReflectionMapHashIS8_EN14dense_hash_mapIS9_jSD_NS9_14EqualsComparerINS0_8equal_toIS8_EEEENS0_9allocatorISB_EEE9SelectKeyESI_SK_E30advance_past_empty_and_deletedEv
VOj:__ZNSt3__210__list_impIPN6il2cpp5utils10MemoryPool6RegionENS_9allocatorIS5_EEE5clearEv
Z3c:__ZN13RuntimeStaticINSt3__26vectorIN5physx25PxVehicleWheelQueryResultENS0_9allocatorIS3_EEEELb0EE16StaticInitializeEPv
ytb:__ZN14SafeBinaryRead21TransferSTLStyleArrayI13dynamic_arrayI9BoundsIntLj4EEEEvRT_17TransferMetaFlags
klb:__ZN22MemoryCacherReadBlocks14LockCacheBlockEjPPhS1_
zif:_StreamAsyncResult_get_NBytes_m548041729
vqj:__ZN6il2cpp2vm14TypeNameParser17ParseAssemblyNameEv
oab:__ZNK9GfxDevice26GetSinglePassStereoEyeMaskEv
tdg:_DebugLogHandler_Internal_Log_m4175774469
QIj:__ZN4utf88internal15increase_safelyIPKcEENS0_9utf_errorERT_S5_
zai:__ZL66StaticAccessorAttribute_t2432663902_CustomAttributesCacheGeneratorP21CustomAttributesCache
wof:_SecurityContext_get_CompressedStack_m3401528670
GOc:__ZN20TextRenderingPrivate8FontImpl16CacheFontForTextEPtiifjPK13dynamic_arrayINS_16TextFormatChangeELj4EE
N$e:_CharEnumerator_get_Current_m525608209
P1d:_InternalEnumerator_1_Dispose_m887344916_AdjustorThunk
E5c:__Z21ArrayElementTypeCheckP11Il2CppArrayPv
h3j:_emscripten_glTexSubImage2D__wrapper
COf:_StackTrace_init_frames_m641783388
BMe:_PublicKey_DecodeRSA_m1824703659
jWj:__ZNSt3__212basic_stringIcNS_11char_traitsIcEENS_9allocatorIcEEE6appendEjc
bFb:__Z13TransferFieldI18StreamedBinaryReadILb0EELb0E16Converter_StringEvRK23StaticTransferFieldInfoR31RuntimeSerializationCommandInfoRT1_
yFb:__ZN4core8hash_mapINS_12basic_stringIcNS_20StringStorageDefaultIcEEEEiNS_4hashIS4_EENSt3__28equal_toIS4_EEE4growEi
kXc:__Z42Register_UnityEngine_Canvas_get_rootCanvasv
y4h:__ZL78Convert_t2465617642_CustomAttributesCacheGenerator_Convert_ToBoolean_m40300963P21CustomAttributesCache
I0e:_ArrayListWrapper_set_Item_m3849584877
Ve:_TTF_RenderText_Solid
z9f:__ZN23InterfaceActionInvoker3IP8String_tS1_iE6InvokeEjP11Il2CppClassP12Il2CppObjectS1_S1_i
CKg:_List_1__ctor_m3947764094_gshared
SQh:__ZL52IComparable_t36111218_CustomAttributesCacheGeneratorP21CustomAttributesCache
XIi:_Parser_IsIgnorePatternWhitespace_m2107132682
NJe:_HttpRequestCreator_Create_m400548686
O1c:__ZN11UnityEngine7Connect16PersistentValuesC2Ev
q2g:__Z49RuntimeInvoker_RuntimeObject_StringU26_t181565287PFvvEPK10MethodInfoPvPS4_
kLh:_ReadOnlyCollection_1_System_Collections_IList_Insert_m134149130_gshared
Kuc:__Z18Transfer_BlittableI9JSONWriteLb0E5RectTIiEEvRK29SerializationCommandArgumentsR31RuntimeSerializationCommandInfo
g4f:_BigInteger_get_Rng_m4216817480
$Cc:_cf2_getStdVW
Iuf:_Array_InternalArray__ICollection_Remove_TisDateTime_t3738529785_m2250893026_gshared
L1h:__ZL67RijndaelManagedTransform_t4102601014_CustomAttributesCacheGeneratorP21CustomAttributesCache
EDa:__Z15IsIEEE754Format14GraphicsFormat
svb:__Z19TransferField_ArrayI17RemapPPtrTransfer27Converter_UnityEngineObjectEvRK23StaticTransferFieldInfoR31RuntimeSerializationCommandInfoRT0_
Za:invoke_iifiii
w3e:_KeyNotFoundException__ctor_m541499307
Mba:__ZN13RuntimeStaticINSt3__23mapIN4core12basic_stringIcNS2_20StringStorageDefaultIcEEEES6_NS0_4lessIS6_EE13stl_allocatorINS0_4pairIKS6_S6_EEL18MemLabelIdentifier13ELi16EEEELb0EE16StaticInitializeEPv
cwf:_SetPropertyUtility_SetStruct_TisSpriteState_t1362986479_m665096788_gshared
YYg:__Z61RuntimeInvoker_Single_t1397266774_RuntimeObject_RuntimeObjectPFvvEPK10MethodInfoPvPS4_
mEi:_Enumerator__ctor_m1228633090
Ouf:_Array_InternalArray__ICollection_Remove_TisIntPtr_t_m3807208150_gshared
H9g:__Z71RuntimeInvoker_Void_t1185182177_Vector3_t3722313464_Vector3_t3722313464PFvvEPK10MethodInfoPvPS4_
y1d:_InternalEnumerator_1_get_Current_m2316281569_AdjustorThunk
MFf:_DateTime__ctor_m1095105629
jra:__ZN13GfxDeviceGLES15UploadTexture2DE9TextureID16TextureDimensionPKhiii14GraphicsFormati18TextureUploadFlags16TextureUsageMode
Ikh:__Z41RuntimeInvoker_KeyValuePair_2_t3699644050PFvvEPK10MethodInfoPvPS4_
WPi:_Event_Cleanup_m2477919477
rK:__ZN4FMOD6System9createDSPEP20FMOD_DSP_DESCRIPTIONPPNS_3DSPE
U3h:__ZL87Thread_t2300836069_CustomAttributesCacheGenerator_Thread_GetCompressedStack_m2923422412P21CustomAttributesCache
fog:_HitInfo_t3229609740_marshal_pinvoke_back
ute:_SslClientStream_get_ClientCertificates_m998716871
std:__ZN21InterfaceFuncInvoker0IP8String_tE6InvokeEjP11Il2CppClassP12Il2CppObject
qG:__ZN4FMOD8ChannelI11EndCallbackEv
Oqc:__ZN8GUIStyle14SetDefaultFontEPN13TextRendering4FontE
nMg:_List_1_ToArray_m2860284581_gshared
p6a:__ZN15QualitySettings23VirtualRedirectTransferER24GenerateTypeTreeTransfer
PCd:_ObjectReader_ReadValue_m3145979203
lsg:_TypeInferenceRuleAttribute_ToString_m4089326196
Dbd:_CanvasScaler_OnDisable_m3424669401
vhe:_Transform_1_BeginInvoke_m500585065_gshared
Vta:__ZThn9568_N13GfxDeviceGLES32InitStereoGlobalsBuffersPlatformEiijPKv
Vsi:__ZL68Scrollbar_t1494447233_CustomAttributesCacheGenerator_m_NumberOfStepsP21CustomAttributesCache
oSd:_ScrollRect_set_content_m321343743
faj:__ZN30dense_hashtable_const_iteratorINSt3__24pairIK10KeyWrapperIPK19Il2CppGenericMethodEPK26Il2CppGenericMethodIndicesEES6_N6il2cpp8metadata23Il2CppGenericMethodHashEN14dense_hash_mapIS6_SA_SE_NS6_14EqualsComparerINSD_26Il2CppGenericMethodCompareEEENS0_9allocatorISB_EEE9SelectKeyESI_SK_EppEv
FCc:_UNITY_FT_Request_Metrics
__a:__ZN7Texture8TransferI18StreamedBinaryReadILb0EEEEvRT_
jzj:__ZN6il2cpp6icalls8mscorlib6System10Reflection10MonoMethod29get_IsGenericMethodDefinitionEP22Il2CppReflectionMethod
Evj:__ZN6il2cpp2vm6Thread21AllocThreadStaticDataEi
Nni:__ZL63AnalyticsSessionState_t681173134_CustomAttributesCacheGeneratorP21CustomAttributesCache
f9e:_NumberFormatInfo_get_PercentNegativePattern_m1304634118
mCe:_Default_SelectMethod_m469311730
uHf:_Convert_ToInt16_m1223489986
_n:FUNCTION_TABLE_difi
XHj:__ZN30dense_hashtable_const_iteratorINSt3__24pairIK10KeyWrapperIPK19Il2CppGenericMethodEP10MethodInfoEES6_N6il2cpp8metadata23Il2CppGenericMethodHashEN14dense_hash_mapIS6_S9_SD_NS6_14EqualsComparerINSC_26Il2CppGenericMethodCompareEEENS0_9allocatorISA_EEE9SelectKeyESH_SJ_EppEv
_$f:_UInt32_ToString_m2066897296_AdjustorThunk
pP:__Z13RegisterClassI13AudioListenerEvv
GQd:__ZN21InterfaceFuncInvoker3IP30RaycastHit2DU5BU5D_t428665156015Ray_t3785851493fiE6InvokeEjP11Il2CppClassP12Il2CppObjectS2_fi
N3e:_Enumerator_Reset_m4274366540
huc:__Z18Transfer_BlittableI9JSONWriteLb0E8Vector3fEvRK29SerializationCommandArgumentsR31RuntimeSerializationCommandInfo
Hca:__ZN13RuntimeStaticI17UniqueIDGeneratorLb0EE13StaticDestroyEPv
Uf:_emscripten_glUniform4i
PGc:_otv_FeatureList_validate
ef:_emscripten_glUniform4f
Dj:___unlock
VKj:_GC_default_oom_fn
XFc:_otv_validate
N0b:__ZN13sorted_vectorINSt3__24pairIN4core12basic_stringIcNS2_20StringStorageDefaultIcEEEES6_EEN10vector_mapIS6_S6_27compare_tstring_insensitiveIS6_E13stl_allocatorIS7_L18MemLabelIdentifier38ELi16EEE13value_compareESD_E9erase_oneIS6_EEjRKT_
Oyg:_DefaultComparer__ctor_m963958896_gshared
Nmf:_X509Certificate_Equals_m3784196370
WUg:_List_1__ctor_m3376067838_gshared
NM:__ZN20SoundChannelInstance19setReverbPropertiesEP29FMOD_REVERB_CHANNELPROPERTIES
QHg:_Enumerator_MoveNext_m1446151600_gshared
Bkf:_SHA1Internal_ProcessFinalBlock_m1403775421
Hmi:__ZL87Canvas_t3310196443_CustomAttributesCacheGenerator_Canvas_get_sortingLayerID_m3685979122P21CustomAttributesCache
S6h:__ZL69Math_t1671470975_CustomAttributesCacheGenerator_Math_Sqrt_m1297338011P21CustomAttributesCache
Wnc:__Z40Register_UnityEngine_Transform_IsChildOfv
bAd:_RemotingServices_GetOrCreateClientIdentity_m648299611
S6d:_InternalEnumerator_1_get_Current_m2356858238_AdjustorThunk
Cjc:__Z45Register_UnityEngine_Display_GetSystemExtImplv
p8f:_RSAManaged_ImportParameters_m1844641996
wYh:__ZL67AssemblyProductAttribute_t1000945320_CustomAttributesCacheGeneratorP21CustomAttributesCache
PJa:__ZN9GfxDevice31DrawIndexedNullGeometryIndirectE16GfxPrimitiveTypeP9GfxBuffer15ComputeBufferIDj
y9d:_Enumerator_System_Collections_IDictionaryEnumerator_get_Value_m3325938730_AdjustorThunk
uv:__ZN7mecanim9animation23TransformValuesFromClipEiiiRKNS_10ValueArrayERKNS0_10ClipOutputERKNS0_12ClipBindingsERS1_RNS_14ValueArrayMaskEb
fph:_Array_qsort_TisOrderBlock_t1585977831_TisOrderBlock_t1585977831_m1675918557_gshared
itg:_ValueCollection_System_Collections_ICollection_get_SyncRoot_m1114275063_gshared
Y4i:__ZL17log2withScale_128yyi
xaf:_Guid_Equals_m1866984197
mTc:__ZNSt3__218__insertion_sort_3IRNS_6__lessIN2UI14DepthSortEntryES3_EEPS3_EEvT0_S7_T_
Iae:_Enumerator__ctor_m65667165_gshared
p6b:__ZN2UI13RectTransform15InitializeClassEv
dBe:_PlatformNotSupportedException__ctor_m1787918017
Xda:__ZN13RuntimeStaticI15DirectorManagerLb0EE16StaticInitializeEPv
qIh:_ReadOnlyCollection_1_System_Collections_ICollection_CopyTo_m2643246984_gshared
Yeb:__ZN11TimeManager6UpdateEv
CIg:_Enumerator_System_Collections_IEnumerator_get_Current_m209407522_gshared
sEd:_StreamingContext_GetHashCode_m2281950854_AdjustorThunk
cZd:_InternalEnumerator_1__ctor_m619554185_AdjustorThunk
wbd:_CanvasScaler_get_fallbackScreenDPI_m2811935689
LAd:_WellKnownServiceTypeEntry_get_ObjectUri_m560402900
B6e:_DateTimeFormatInfo_ReadOnly_m890935083
iKh:_ReadOnlyCollection_1_System_Collections_ICollection_get_SyncRoot_m1280260618_gshared
Ewi:__ZL81ValueProperty_t1868393739_CustomAttributesCacheGenerator_m_EnumTypeIsCustomizableP21CustomAttributesCache
zUj:_fflush
T3:__ZN17LightProbeContext4InitERK16LightmapSettingsRK14RenderSettings
H$g:__Z82RuntimeInvoker_Int32_t2950945753_RuntimeObject_Int32_t2950945753_SByte_t1669577662PFvvEPK10MethodInfoPvPS4_
dWb:__ZN18DeferredRenderLoop14RenderLightingER21ActiveLightingContextP13RenderTexture9TextureIDPS3_iRK8Vector4fRK14LightingLayersR10MinMaxAABBb12ObjectHandleI17RenderSurface_TagP17RenderSurfaceBaseE
Nng:_SceneManager_Internal_ActiveSceneChanged_m3676176255
FSj:__GLOBAL__sub_I_Error_cpp
EIi:_ExpressionAssertion_set_Negate_m1236561973
_Of:_Double_System_IConvertible_ToInt16_m3591921965
y9a:__ZN9Texture3DD2Ev
BCh:_Collection_1_set_Item_m4280581817_gshared
Pid:_Image_get_fillMethod_m1027254375
Qti:__ZL60Slider_t3903728902_CustomAttributesCacheGenerator_m_MaxValueP21CustomAttributesCache
A7:__ZN10ColorRGBAf8TransferI19StreamedBinaryWriteILb0EEEEvRT_
y3h:__ZL97CompressedStack_t1202932761_CustomAttributesCacheGenerator_CompressedStack_CreateCopy_m2591279216P21CustomAttributesCache
aFf:_Convert_ToChar_m2796006345
Knh:_Array_InternalArray__Insert_TisContentType_t1787303396_m3566390691_gshared
tEj:__ZNSt3__26vectorI20Il2CppStackFrameInfoNS_9allocatorIS1_EEE7reserveEj
B$h:__ZL82MethodDictionary_t207894204_CustomAttributesCacheGenerator_U3CU3Ef__switchU24map21P21CustomAttributesCache
b1e:_ArrayListWrapper_GetEnumerator_m2336495952
vYb:__Z34ProcessIndexListIsNodeVisibleStep2RK22SceneCullingParametersPK9SceneNodePK4AABBR9IndexList
sHb:__ZN10MonoScriptD2Ev
Rza:__ZN6prcoreL12RemapGenericI17TexFormatARGB888817TexFormatBGRA8888EEvPKNS_9InnerInfoE
AHa:__ZN19ConstantBuffersGLES8UpdateCBE5CbKeyPKvj
dbd:_U3COnFinishSubmitU3Ec__Iterator0_System_Collections_Generic_IEnumeratorU3CobjectU3E_get_Current_m2586882303
q0i:_AudioSource_get_spatializeInternal_m2117549793
Okc:__Z39Input_CUSTOM_INTERNAL_get_mousePositionP8Vector3f
iDd:_SerializationCallbacks_GetMethodsByAttribute_m2095490433
CIc:_tt_cmap13_char_next
aoi:__ZL117EventSystem_t1003666588_CustomAttributesCacheGenerator_EventSystem_t1003666588____lastSelectedGameObject_PropertyInfoP21CustomAttributesCache
ioa:__ZN9ShaderLab4Pass16SetupPassOptionsEv
BUg:_List_1_GetIndex_m1042356532_gshared
ih:_JS_Sound_ReleaseInstance
gqa:__ZN13GfxDeviceGLES19DrawBuffersIndirectEP9GfxBufferPK18VertexStreamSourceiP17VertexDeclaration17ShaderChannelMask16GfxPrimitiveType15ComputeBufferIDj
$9e:_Guid_CheckArray_m921056615
eud:_ConfigHandler_ReadLifetine_m208994800
P3g:__Z96RuntimeInvoker_IntPtr_t_SByte_t1669577662_SByte_t1669577662_RuntimeObject_BooleanU26_t4125257963PFvvEPK10MethodInfoPvPS4_
qlj:__ZNK15dense_hashtableINSt3__24pairIK10KeyWrapperINS1_IPK10MethodInfoP11Il2CppClassEEEjEES9_17ReflectionMapHashIS8_EN14dense_hash_mapIS9_jSD_NS9_14EqualsComparerINS0_8equal_toIS8_EEEENS0_9allocatorISB_EEE9SelectKeyESI_SK_E12test_deletedEj
n_f:_UInt16_System_IConvertible_ToByte_m3185614807_AdjustorThunk
ete:_SecurityParameters_set_ServerWriteMAC_m3003817350
tEb:__Z29Transfer_Blittable_ArrayFieldI18StreamedBinaryReadILb0EEaEvRT_R9ArrayInfoRK23StaticTransferFieldInfo
ylg:_Rect_get_max_m350137314_AdjustorThunk
Km:FUNCTION_TABLE_diddi
Rvj:__ZN6il2cpp6icalls8mscorlib6System5Array8FastCopyEP11Il2CppArrayiS5_ii
OKi:_CachedInvokableCall_1_Invoke_m2909479018_gshared
cmc:__Z26Material_CUSTOM_SetIntImplP12Il2CppObjectii
Xgj:__ZNSt3__26vectorIPK10MethodInfoNS_9allocatorIS3_EEE21__push_back_slow_pathIRKS3_EEvOT_
vgh:__Z54RuntimeInvoker_Boolean_t97287965_LabelFixup_t858502054PFvvEPK10MethodInfoPvPS4_
zac:__ZN8GUILayerD2Ev
CSg:_List_1_Clear_m2244610185_gshared
Ekc:__Z42Register_UnityEngine_RectOffset_get_bottomv
QWh:__ZL55BinaryReader_t2428077293_CustomAttributesCacheGeneratorP21CustomAttributesCache
aUj:_newlocale
NAe:_ObjectDisposedException_get_Message_m1666887471
ztb:__ZN9BoundsInt8TransferI14SafeBinaryReadEEvRT_
k1j:_emscripten_glUniform1f__wrapper
fYj:dynCall_di
ITe:_X509Certificate_get_SubjectName_m3160893681
feg:_BaseInvokableCall_AllowInvoke_m878393606
e_i:__ZL25UnresolvedVirtualCall_181P12Il2CppObject19Vector2_t2156229523S1_PK10MethodInfo
Qtc:__Z28RegisterModule_JSONSerializev
ctj:_il2cpp_monitor_enter
Zlb:__ZN2UI13RectTransform8TransferI14SafeBinaryReadEEvRT_
avc:__Z35Transfer_Blittable_FixedBufferFieldI9JSONWriteaEvRK29SerializationCommandArgumentsR31RuntimeSerializationCommandInfo
kag:_Behaviour_get_enabled_m753527255
afc:__Z20IsHumanControllingUsv
usg:_Enumerator_MoveNext_m181298207_gshared
Tkh:__Z44RuntimeInvoker_ParameterModifier_t1461694466PFvvEPK10MethodInfoPvPS4_
WW:__ZNK20DynamicHeapAllocatorI17LowLevelAllocatorE10GetPtrSizeEPKv
iVg:_List_1_System_Collections_IList_get_IsReadOnly_m3278465421_gshared
KWh:__ZL51TextInfo_t3810425522_CustomAttributesCacheGeneratorP21CustomAttributesCache
qNa:__ZN10systeminfo21GetPersistentDataPathEv
_Si:_SymmetricTransform_get_KeepLastBlock_m2492071306
Vpa:__ZN13GfxDeviceGLES17DestroyGpuProgramEPK10GpuProgram
Joh:_Array_InternalArray__set_Item_TisRaycastResult_t3360306849_m730888808_gshared
Vpb:__Z44InitializeTransferFunctionScriptingTraitsForI18StreamedBinaryReadILb0EEEvR31TransferFunctionScriptingTraits
Yhe:_Enumerator_System_Collections_IEnumerator_Reset_m53411943_gshared
yUb:__ZNSt3__218__insertion_sort_3IR23CompareReflectionProbesP31RuntimeReflectionProbeBlendInfoEEvT0_S5_T_
Cvb:__ZN12NativeBufferI27Converter_SimpleNativeClassI8GradientEE15SetupForWritingER9ArrayInfo
O4f:_Kernel_RightShift_m2207393597
Cga:__ZNSt3__213__stable_sortIRNS_4lessIN4core12basic_stringIcNS2_20StringStorageDefaultIcEEEEEENS_11__wrap_iterIPS6_EEEEvT0_SC_T_NS_15iterator_traitsISC_E15difference_typeEPNSF_10value_typeEi
Vvi:__ZL48Shadow_t773074319_CustomAttributesCacheGeneratorP21CustomAttributesCache
x8:__ZN12_GLOBAL__N_113StaticDestroyEPv
Y5j:_glUnmapBuffer__wrapper
vge:_Transform_1__ctor_m3369371265_gshared
Iyc:__ZN8JSONRead21TransferSTLStyleArrayINSt3__26vectorI8Gradient13stl_allocatorIS3_L18MemLabelIdentifier1ELi16EEEEEEvRT_17TransferMetaFlags
jve:_NullTextWriter_Write_m432139305
tfb:__ZNSt3__218__insertion_sort_3IRNS_6__lessINS_4pairIPKN5Unity4TypeE7Hash128EES8_EEPS8_EEvT0_SC_T_
WJd:_InputField_set_onValueChanged_m3658917578
kxb:__ZN10RectOffset8TransferI24GenerateTypeTreeTransferEEvRT_
Tyi:_TlsClientSettings_get_ClientCertificate_m3139459118
Hef:_BinaryReader__ctor_m2266204403
Xne:__ZN21InterfaceFuncInvoker5IiP22ByteU5BU5D_t4116647657iiS1_iE6InvokeEjP11Il2CppClassP12Il2CppObjectS1_iiS1_i
DGg:_Enumerator_VerifyState_m3047769867_AdjustorThunk
wwb:__Z18Transfer_BlittableI24GenerateTypeTreeTransferLb1E5RectTIiEEvRK29SerializationCommandArgumentsR31RuntimeSerializationCommandInfo
Dqc:__ZN16GUIKeyboardStateD2Ev
YSc:__ZN2UI13CanvasManager19RemoveDirtyRendererEPNS_6CanvasEPNS_14CanvasRendererE
cTj:_isspace
ZAd:_BinaryFormatter__ctor_m2620705134
UIb:__Z15GetIApplicationv
B_c:__ZN11UnityEngine15PlatformWrapper25GetGraphicsRendererStringEv
rUf:_UTF7Encoding_InternalGetBytes_m797138468
L6b:__ZZL31RegisterRectTransformPropertiesR22GenericPropertyBindingEN39Wrapper_RectTransformAnchoredPositiony113SetFloatValueEPvf
CV:__ZN11UnityEngine15CloudWebService17WebFileDownloaderINS0_20WebRequestRestClientENS0_23WebRequestRestHeaderMapEED2Ev
Sb:invoke_vi
oUe:_SmallXmlParser_HandleWhitespaces_m549588711
pwc:__ZN9JSONWrite8TransferI13dynamic_arrayI9BoundsIntLj4EEEEvRT_PKc17TransferMetaFlags
Qb:invoke_vd
rb:invoke_vf
NEi:_Regex_get_RightToLeft_m2317867572
C3:__ZNK10GameObject8IsActiveEv
jjc:__Z34Component_Get_Custom_PropTransformP12Il2CppObject
Jmi:__ZL83Canvas_t3310196443_CustomAttributesCacheGenerator_Canvas_get_rootCanvas_m3165691493P21CustomAttributesCache
nmi:__ZL67g_UnityEngine_PhysicsModule_Assembly_CustomAttributesCacheGeneratorP21CustomAttributesCache
MBi:_X509Certificate_get_SignatureAlgorithm_m122054440
aDa:__ZN18GfxFramebufferGLES23SetupDefaultFramebufferEPP17RenderSurfaceBaseS2_N2gl6HandleILNS3_10ObjectTypeE9EEE
EHh:_ReadOnlyCollection_1_get_Item_m3437922467_gshared
qed:_DefaultControls_CreateDropdown_m3286664171
t7a:__ZN13ScreenManager18RequestOrientationE17ScreenOrientation
H7i:__ZN6il2cpp2vm5Class12SetupMethodsEP11Il2CppClass
pgc:__Z39DeleteLastPathNameComponentWithAnySlashRKN4core12basic_stringIcNS_20StringStorageDefaultIcEEEE
Opc:__ZN10GUIManager14InitGUIManagerEv
F7g:__Z77RuntimeInvoker_Void_t1185182177_RegexOptionsU26_t1638284957_SByte_t1669577662PFvvEPK10MethodInfoPvPS4_
fvi:__ZL78LayoutRebuilder_t541313304_CustomAttributesCacheGenerator_U3CU3Ef__amU24cache1P21CustomAttributesCache
Bhj:__ZNSt3__26vectorIP11Il2CppClassNS_9allocatorIS2_EEE26__swap_out_circular_bufferERNS_14__split_bufferIS2_RS4_EE
P_f:_UInt16_Equals_m642257745
vWe:_Array_System_Collections_IList_IndexOf_m3301661616
PBe:_AssemblyFileVersionAttribute__ctor_m3720707642
asg:_WaitForSeconds__ctor_m2199082655
rrd:_RuntimeResourceSet_CloneDisposableObjectIfPossible_m2725520898
jId:_HMACSHA384_set_ProduceLegacyHmacValues_m76936446
Xrc:__Z37Register_UnityEngine_GUIStyle_Cleanupv
Ma:invoke_iiifii
zoc:__Z26Mesh_CUSTOM_SetIndicesImplP12Il2CppObjecti16GfxPrimitiveTypeP11Il2CppArrayihi
JUd:_SliderEvent__ctor_m3149452941
zTe:_DeriveBytes__cctor_m1212925033
ead:_UIBehaviour_OnDestroy_m1613239498
Cac:__ZN8GUILayer12AddToManagerEv
_gd:_Graphic_OnDisable_m1097930217
ohj:__ZN6il2cpp6icalls8mscorlib6System8MonoType13IsPointerImplEP20Il2CppReflectionType
Vi:_emscripten_glFramebufferRenderbuffer
iXb:__ZN19CullingGroupManager17CullAndSendEventsERK22SceneCullingParametersiRK13CullingOutputRK8JobFence
utd:__ZN21InterfaceFuncInvoker3IP12Il2CppObjectP8String_tS1_PS3_E6InvokeEjP11Il2CppClassS1_S3_S1_S4_
_3i:_AnimationLayerMixerPlayable_GetHandle_m3854437798_AdjustorThunk
kNg:_List_1_ToArray_m2949058867_gshared
iei:__ZL98DataUtility_t2196215967_CustomAttributesCacheGenerator_DataUtility_Internal_GetMinSize_m2628270685P21CustomAttributesCache
$Ra:__ZN9Transform30EnsureTransformHierarchyExistsEv
LYf:_Type_FilterName_impl_m2651733559
jXe:_Array_GetValue_m116098292
Gwg:_Dictionary_2_System_Collections_Generic_ICollectionU3CSystem_Collections_Generic_KeyValuePairU3CTKeyU2CTValueU3EU3E_Add_m1448015620_gshared
eic:__Z46Register_UnityEngine_Application_get_isPlayingv
xEh:_Collection_1_ClearItems_m2182923889_gshared
B0b:__ZNSt3__26vectorINS_4pairIN4core12basic_stringIcNS2_20StringStorageDefaultIcEEEEPK17MessageIdentifierEENS_9allocatorISA_EEE12__move_rangeEPSA_SE_SE_
HQb:__ZN14qsort_internal17MedianOfThreeSwapIP17RODataReplacement19ROSorterReplacementEEvT_S4_S4_T0_
Nqf:_String_Split_m3646115398
wmg:_RectOffset_ToString_m2007443979
x6i:__ZNK15dense_hashtableINSt3__24pairIK10KeyWrapperIPK22Il2CppGenericParameterEP11Il2CppClassEES6_N6il2cpp5utils11PointerHashIS4_EEN14dense_hash_mapIS6_S9_SE_NS6_14EqualsComparerINS0_8equal_toIS5_EEEENS0_9allocatorISA_EEE9SelectKeyESJ_SL_E3endEv
lgc:__ZN17TransformInternal36OnScaleChangedCalculateTransformTypeE15TransformAccess
cOa:__ZN17ArchiveFileSystem10ToAbsoluteEPKc
m$c:__ZN19UnityConnectService15GetPlayerUserIdEv
wLi:_InvokableCall_1__ctor_m2610016537_gshared
Vyf:_Array_InternalArray__IndexOf_TisSByte_t1669577662_m4156538463_gshared
sr:__ZN7mecanim6CRCKeyENS_7eStringE
dXi:__ZL24UnresolvedVirtualCall_18P12Il2CppObjectiPK10MethodInfo
Xdc:__ZL12SetPrefValueRKN4core12basic_stringIcNS_20StringStorageDefaultIcEEEERK9PrefValue
Tki:__ZL81GUIStyle_t3956901511_CustomAttributesCacheGenerator_GUIStyle_get_name_m2109418832P21CustomAttributesCache
sia:__ZL30ReconstructParamNamesFromTableIN9ShaderLab20SerializedSubProgram15MatrixParameterEEvRK14dense_hash_mapIiN4core17string_with_labelILi1EEE18SInt32HashFunctionNSt3__28equal_toIiEE13stl_allocatorINS8_4pairIKiS6_EEL18MemLabelIdentifier1ELi16EEERNS8_6vectorIT_NS8_9allocatorISL_EEEE
bab:__ZN19ShaderPropertySheet20ReservePropertyCountEj
wIj:__ZN6il2cpp5utils11StringUtils6PrintfEPKcz
yuj:__ZNSt3__26vectorIN6il2cpp8metadata18GenericArrayMethodENS_9allocatorIS3_EEE7reserveEj
Pma:__ZN15NameToObjectMapI6ShaderNSt3__23mapI4PPtrIS0_EN4core12basic_stringIcNS5_20StringStorageDefaultIcEEEENS1_4lessIS4_EENS1_9allocatorINS1_4pairIKS4_S9_EEEEEENS1_8multimapIS9_S4_NSA_IS9_EENSC_INSD_IKS9_S4_EEEEEEE4FindERSK_
f3a:__ZN24GenerateTypeTreeTransfer21TransferResourceImageE19ActiveResourceImagePKcR13StreamingInfoPvjiPKN5Unity4TypeE
Tqh:_Array_Sort_TisVector3_t3722313464_m1030213405_gshared
_Dj:__ZN6il2cpp2vm6Object5CloneEP12Il2CppObject
eji:__ZL94TextGenerator_t3211863866_CustomAttributesCacheGenerator_TextGenerator_Dispose_cpp_m1826354328P21CustomAttributesCache
uQj:__ZN6il2cpp6icalls8mscorlib6System9Threading5Mutex20CreateMutex_internalEbP12Il2CppStringPb
s5j:_emscripten_glLinkProgram__wrapper
vcg:_Coroutine_Finalize_m1957108547
MSi:_KeyBuilder_Key_m2503211157
HYa:__ZNSt3__212__deque_baseI18ReflectionProbeJobNS_9allocatorIS1_EEED2Ev
Rz:__ZN11UnityEngine9Animation27DestroyAnimationSetBindingsEPNS0_20AnimationSetBindingsERN7mecanim6memory9AllocatorE
yia:__ZN15dense_hashtableINSt3__24pairIKiN4core17string_with_labelILi1EEEEEi18SInt32HashFunctionN14dense_hash_mapIiS5_S7_NS0_8equal_toIiEE13stl_allocatorIS6_L18MemLabelIdentifier1ELi16EEE9SelectKeyESA_SD_E13set_empty_keyERKS6_
jcg:_Component_GetComponentInChildren_m388868270
iEg:_GenericEqualityComparer_1_Equals_m1705889345_gshared
AE:__ZN8Animator12CleanupClassEv
Gyc:__Z13TransferFieldI8JSONReadLb0E27Converter_SimpleNativeClassI10RectOffsetEEvRK23StaticTransferFieldInfoR31RuntimeSerializationCommandInfoRT1_
Rhd:__ZN21InterfaceFuncInvoker0IiE6InvokeEjP11Il2CppClassP12Il2CppObject
DJe:_FtpWebRequest__cctor_m699542155
gXi:__ZL24UnresolvedVirtualCall_21P12Il2CppObjectS0_iPK10MethodInfo
ABj:__GLOBAL__sub_I_GenericMetadata_cpp
$Sh:__ZL70RuntimeArray_CustomAttributesCacheGenerator_Array_SetValue_m3412648248P21CustomAttributesCache
CIe:_NameObjectCollectionBase_GetEnumerator_m3677320185
YXb:__Z24CalculateSpotLightBoundsffRK10Matrix4x4fR15SpotLightBounds
GPi:_ListPool_1_Get_m3176656818_gshared
tvg:_Dictionary_2_TryGetValue_m3495031886_gshared
z_a:__ZNK13RenderTexture21GetShadowSamplingModeEv
IR:__ZN23CloudWebServicesManager23VirtualRedirectTransferER14SafeBinaryRead
xTe:_PKCS12_AddCertificate_m3857004455
DQd:_GetRayIntersectionAllCallback__ctor_m391992746
_Gb:__Z19ShouldTransferFieldR32SerializationCommandQueueBuilder17ScriptingClassPtriR18TransferField_InfoRK20CoreScriptingClasses
D1h:__ZL67RSACryptoServiceProvider_t2683512874_CustomAttributesCacheGeneratorP21CustomAttributesCache
emh:__Z56RuntimeInvoker_Int32_t2950945753_SpriteState_t1362986479PFvvEPK10MethodInfoPvPS4_
dof:_SecurityElement_IsValidText_m1346599242
F3b:__Z33PPtrToObjectDontLoadNoThreadCheckI8MaterialEPT_4PPtrIS1_E
_Ha:__ZN26SinglePassStereoSupportExt21SetStereoMatrixCommonE21MonoOrStereoscopicEye24BuiltinShaderMatrixParamRK10Matrix4x4f
$K:__ZN5audio5mixer22UpdateAudioMixerMemoryERKNS0_18AudioMixerConstantERNS0_16AudioMixerMemoryEfPN4FMOD6SystemEf
SBc:__ZL21InitializeCachedStripPv
Mvg:_Dictionary_2_System_Collections_Generic_ICollectionU3CSystem_Collections_Generic_KeyValuePairU3CTKeyU2CTValueU3EU3E_Add_m3652125112_gshared
T3h:__ZL80Thread_t2300836069_CustomAttributesCacheGenerator_Thread_GetHashCode_m3479107071P21CustomAttributesCache
Mwj:__ZN6il2cpp6icalls8mscorlib6System9Threading6Thread23GetCachedCurrentCultureEP12Il2CppThread
AY:__ZNK6Camera22GetWorldToCameraMatrixEv
qXj:runPostSets
oEj:__ZN6il2cpp2vm12GenericClass11IsValueTypeEP18Il2CppGenericClass
VFb:__ZN13MonoBehaviour7SetNameEPKc
Nxd:_MethodDictionary_IsOverridenKey_m946843558
AQh:__ZN23GenericVirtFuncInvoker1Ib19Vector4_t3319028937E6InvokeEPK10MethodInfoP12Il2CppObjectS0_
rgf:_FileStream_BeginRead_m2419864669
UOi:_U3CStartU3Ec__Iterator0_MoveNext_m4270440387_gshared
Bbj:__ZN10KeyWrapperIN6il2cpp5utils13dynamic_arrayIPK10Il2CppTypeLj4EEEEC2ERKS7_
WKb:__ZN17InstancingBatcher22FindCBUpperBoundKonstsEv
j8:__GLOBAL__sub_I_runtime_shaders_shaderimpl_0_cpp
yXc:__ZN11UnityEngine9Analytics15AnalyticsConfig13ConfigChangedERKN4core12basic_stringIcNS2_20StringStorageDefaultIcEEEER8JSONRead
Qib:__ZN18AwakeFromLoadQueue5ClearEv
Ogf:_FileStream_SetLength_m99749826
zWb:__ZNSt3__27__sort5IR15ReflProbeSorterPP15ReflectionProbeEEjT0_S6_S6_S6_S6_T_
Lea:__ZN8Playable10DisconnectEPS_i
Ck:_glGenTransformFeedbacks
TMa:__ZN13LoadOperationD2Ev
Imi:__ZL86Canvas_t3310196443_CustomAttributesCacheGenerator_Canvas_set_sortingLayerID_m861680532P21CustomAttributesCache
SJg:_List_1_System_Collections_ICollection_get_SyncRoot_m1990178029_gshared
pbf:_Int16_System_IConvertible_ToType_m3672347013
DPd:_Navigation_set_mode_m3709908198_AdjustorThunk
EZf:_Type_GetProperty_m4206634422
Eje:_PrimalityTest__ctor_m763620166
SJb:__Z21PlayerStartFirstSceneb
CVg:_List_1_CheckIndex_m3933537097_gshared
R1a:__ZNSt3__27__sort5IRPFbRKNS_4pairIN9ShaderLab16FastPropertyNameEN18UnityPropertySheet11UnityTexEnvEEES8_EPS6_EEjT0_SD_SD_SD_SD_T_
mva:__ZNK7ApiGLES18GetExtensionStringEv
bVg:_List_1_System_Collections_IList_IndexOf_m2444653486_gshared
q8g:__Z50RuntimeInvoker_SecurityCompressionType_t4242483129PFvvEPK10MethodInfoPvPS4_
DZi:__ZL25UnresolvedVirtualCall_152P12Il2CppObjectfaPK10MethodInfo
l1j:_emscripten_glVertexAttrib1f__wrapper
Pyg:_DefaultComparer_GetHashCode_m402448534_gshared
Zmb:__ZNK12HandlerChain4SizeERK13FileEntryData
hp:FUNCTION_TABLE_iiiiiiiii
fbe:_Enumerator_Dispose_m1360775770_AdjustorThunk
Gwh:_Collection_1_ClearItems_m1096166028_gshared
PIh:_ReadOnlyCollection_1_System_Collections_Generic_ICollectionU3CTU3E_Remove_m4177779688_gshared
s$e:_Char_IsLetter_m3996985877
sWg:_Queue_1_Peek_m2302800625_gshared
wSh:__ZL51Delegate_t1188392813_CustomAttributesCacheGeneratorP21CustomAttributesCache
C7h:__ZL56WeakReference_t1334886716_CustomAttributesCacheGeneratorP21CustomAttributesCache
OMg:_List_1_AddCollection_m4263017124_gshared
sLj:_GC_allochblk
ovd:__ZN21InterfaceFuncInvoker1IbP19Context_t3285446944E6InvokeEjP11Il2CppClassP12Il2CppObjectS1_
$ib:__Z15UnloadGameScenev
BBf:_Array_InternalArray__ICollection_CopyTo_TisKeyframe_t4206410242_m2132255743_gshared
T5j:_glCheckFramebufferStatus__wrapper
Hid:_Image__ctor_m2551076292
dug:_Dictionary_2_System_Collections_ICollection_CopyTo_m3143696177_gshared
uoj:__ZN15dense_hashtableINSt3__24pairIK10KeyWrapperIPK14Il2CppAssemblyEPK22Il2CppMonoAssemblyNameEES6_N6il2cpp5utils11PointerHashIS4_EEN14dense_hash_mapIS6_SA_SF_NS6_14EqualsComparerINS0_8equal_toIS5_EEEENS0_9allocatorISB_EEE9SelectKeyESK_SM_E5clearEv
X_g:__Z103RuntimeInvoker_Void_t1185182177_Int32_t2950945753_Int32_t2950945753_Int32_t2950945753_SByte_t1669577662PFvvEPK10MethodInfoPvPS4_
cE:__ZN16MecanimAnimationD0Ev
PXi:__ZL24UnresolvedVirtualCall_56P12Il2CppObjectS0_iiS0_S0_PK10MethodInfo
uoc:__Z36Renderer_Get_Custom_PropSortingOrderP12Il2CppObject
Jkj:__ZNK15dense_hashtableINSt3__24pairIK10KeyWrapperIPK10Il2CppTypeEjEES6_N6il2cpp8metadata14Il2CppTypeHashEN14dense_hash_mapIS6_jSB_NS6_14EqualsComparerINSA_26Il2CppTypeEqualityComparerEEENS0_9allocatorIS8_EEE9SelectKeyESF_SH_E13find_positionERS7_
p_a:__ZN7Texture5ResetEv
Yvb:__Z18Transfer_BlittableI24GenerateTypeTreeTransferLb0E8Vector2fEvRK29SerializationCommandArgumentsR31RuntimeSerializationCommandInfo
S1h:__ZL54SHA384Managed_t74158575_CustomAttributesCacheGeneratorP21CustomAttributesCache
_ud:_Context_get_HasDynamicSinks_m3952434387
HSf:_Latin1Encoding_GetByteCount_m1145650505
Nvb:__Z18Transfer_BlittableI24GenerateTypeTreeTransferLb1EhEvRK29SerializationCommandArgumentsR31RuntimeSerializationCommandInfo
HCb:__Z13TransferFieldI18StreamedBinaryReadILb1EELb0E16Converter_StringEvRK23StaticTransferFieldInfoR31RuntimeSerializationCommandInfoRT1_
Dzg:_DefaultComparer_GetHashCode_m177499767_gshared
$bb:__ZN10VertexData10DeallocateEv
Fqj:__ZNSt3__214__split_bufferIiRNS_9allocatorIiEEEC2EjjS3_
Qhc:__ZNK16TypeTreeIterator10ByteOffsetEv
AYj:dynCall_iiifii
Gda:__ZnwjRKSt9nothrow_t
$C:__ZN8Animator11ClearObjectEv
Zgf:__ZN21InterfaceFuncInvoker3IiP22ByteU5BU5D_t4116647657iiE6InvokeEjP11Il2CppClassP12Il2CppObjectS1_ii
RVe:_ApplicationException__ctor_m2557611022
K0a:__ZN14SafeBinaryRead19TransferSTLStyleMapINSt3__23mapI39DeprecatedFastPropertyNameSerializationN18UnityPropertySheet11UnityTexEnvENS1_4lessIS3_EENS1_9allocatorINS1_4pairIKS3_S5_EEEEEEEEvRT_17TransferMetaFlags
GSg:_List_1_CheckMatch_m579516778_gshared
JZe:_Buffer_ByteLengthInternal_m1388208719
Ooi:__ZL92PointerEventData_t3807901092_CustomAttributesCacheGenerator_U3CworldNormalU3Ek__BackingFieldP21CustomAttributesCache
bBf:_Array_InternalArray__ICollection_CopyTo_TisInt64_t3736567304_m2845057751_gshared
Lhc:__Z35UnregisterSerializationCacheBuilderPFv17ScriptingClassPtrR23CachedSerializationDataRbE
MRh:__ZL52ICloneable_t724424198_CustomAttributesCacheGeneratorP21CustomAttributesCache
Adf:_Int64_System_IConvertible_ToUInt32_m109903525_AdjustorThunk
l4:__Z30GetBuiltinVectorParamArraySize24BuiltinShaderVectorParam
HBf:_Array_InternalArray__ICollection_CopyTo_TisUICharInfo_t75501106_m4268526610_gshared
Pjj:__ZNSt3__218uninitialized_copyIPNS_4pairIK10KeyWrapperINS1_IPK14Il2CppAssemblyP11Il2CppClassEEEjEESC_EET0_T_SE_SD_
i_a:__ZN13RenderTextureC2E10MemLabelId18ObjectCreationMode
Fbf:_Int32_GetFormatException_m519586683
$2h:__ZL46StringBuilder_t_CustomAttributesCacheGeneratorP21CustomAttributesCache
gGg:_Enumerator_MoveNext_m1131351993_gshared
cff:_BinaryReader_ReadSByte_m3736742795
Wth:_Array_InternalArray__get_Item_TisVector2_t2156229523_m2502961026_gshared
K6:__ZN21RendererUpdateManager11AddRendererER8Renderer
p5b:__Z13RegisterClassI15ResourceManagerEvv
d1i:_AudioConfigurationChangeHandler_Invoke_m1233557945
Eqb:__Z35Transfer_Blittable_FixedBufferFieldI14SafeBinaryReadsEvRK29SerializationCommandArgumentsR31RuntimeSerializationCommandInfo
ebb:__ZN14SafeBinaryRead21TransferSTLStyleArrayI13dynamic_arrayIfLj4EEEEvRT_17TransferMetaFlags
fFf:_Convert_ToDateTime_m3802186295
xIj:__ZN6il2cpp5utils11StringUtils11Utf16ToUtf8EPKDs
Ahb:__ZN18StreamedBinaryReadILb0EE21TransferSTLStyleArrayINSt3__26vectorIN15ResourceManager10DependencyE13stl_allocatorIS5_L18MemLabelIdentifier52ELi16EEEEEEvRT_17TransferMetaFlags
I0f:_UInt64_CompareTo_m1614517204_AdjustorThunk
S_c:__ZN11UnityEngine15PlatformWrapper20IsRootedOrJailbrokenEv
ANb:__ZZ23InitPlayerLoopCallbacksvEN52PreLateUpdateScriptRunBehaviourLateUpdateRegistrator7ForwardEv
TXb:__Z33IntersectAABBPlaneBoundsOptimizedRK4AABBPKN4math7_float4Ei
Szi:_AuthorityKeyIdentifierExtension__ctor_m373495498
$_b:__ZN19ScriptingInvocation6InvokeI28ScriptingSystemTypeObjectPtrEET_P21ScriptingExceptionPtrb
kqa:__ZN9GfxDevice19EndGeometryJobFrameEv
IQi:_GUILayoutUtility_Layout_m1159951704
ZId:_InputField_get_shouldActivateOnSelect_m3055465770
mzg:_DefaultComparer_Equals_m2269092119_gshared
Hvb:__ZN27Converter_SimpleNativeClassI17AnimationCurveTplIfEE17ScriptingToNativeER18ScriptingObjectPtrPS1_
KYf:_Type__cctor_m2371893800
fRj:__ZN6il2cpp8metadata24Il2CppGenericInstCompare7CompareERK10KeyWrapperIPK17Il2CppGenericInstES8_
caj:__ZNK15dense_hashtableINSt3__24pairIK10KeyWrapperIPK19Il2CppGenericMethodEPK26Il2CppGenericMethodIndicesEES6_N6il2cpp8metadata23Il2CppGenericMethodHashEN14dense_hash_mapIS6_SA_SE_NS6_14EqualsComparerINSD_26Il2CppGenericMethodCompareEEENS0_9allocatorISB_EEE9SelectKeyESI_SK_E5beginEv
H6c:_ExecuteEvents_Execute_m3049310229
Gt:__ZN27AnimationLayerMixerPlayable21UpdateLayerParametersEv
Dei:__ZL84Object_t631007953_CustomAttributesCacheGenerator_Object_DestroyImmediate_m2288369078P21CustomAttributesCache
AGe:__ZN21InterfaceFuncInvoker1IiP12MemberInfo_tE6InvokeEjP11Il2CppClassP12Il2CppObjectS1_
MWe:_Array_get_IsSynchronized_m3066873806
kw:__ZN7mecanim9animation16CopyMotionOutputEPKNS0_18AnimationNodeStateEPS1_bbRKNS_6bitsetILj83EEE
p3b:__ZNK17AnimationCurveTplIfE8EvaluateEfPNS0_5CacheE
EMb:__Z31ManagerContextInitializeClassesv
YIh:_ReadOnlyCollection_1_System_Collections_IList_Contains_m2650112051_gshared
GKf:_DateTime_System_IConvertible_ToUInt64_m2275741153
GIh:_ReadOnlyCollection_1_CopyTo_m1950082901_gshared
KJc:_ft_smooth_transform
eKc:_UNITY_FT_List_Finalize
OQj:__ZN6il2cpp6icalls8mscorlib6System7Runtime8Remoting10Activation18ActivationServices34AllocateUninitializedClassInstanceEP20Il2CppReflectionType
KRb:__Z20LightAttenuateApproxRKfS0_
C7:__ZN9Scripting30SetCachedPtrOnScriptingWrapperE18ScriptingObjectPtrP6Object
t4e:_HashKeys_get_IsSynchronized_m174400341
jX:__ZN17LowLevelAllocator6MallocEj
vhh:__Z57RuntimeInvoker_Int32_t2950945753_KeyValuePair_2_t71524366PFvvEPK10MethodInfoPvPS4_
Uv:__ZN17AnimationPlayable17SetInternalWeightEf
DNi:_UnityEvent_1__ctor_m1789019280_gshared
iRe:_RepeatContext_get_IsMinimum_m3640286252
jYg:__Z64RuntimeInvoker_Boolean_t97287965_RuntimeObject_Int32_t2950945753PFvvEPK10MethodInfoPvPS4_
I$d:_InternalEnumerator_1__ctor_m4055378331_AdjustorThunk
CDd:_ObjectRecord_ChainFixup_m1889316362
_Xa:__ZN18BlockRangeInternal16PopLastNodeIndexEP10BlockRangeji
dKj:__ZN6il2cpp2vm13CachedCCWBaseINS0_13ManagedObjectEE6AddRefEv
Tlj:__ZN6il2cpp2gc19AppendOnlyGCHashMapINSt3__24pairIPK11Il2CppImageP11Il2CppClassEEP22Il2CppReflectionModule17ReflectionMapHashIS9_ENS2_8equal_toIS9_EEE10CopyValuesEPv
U9c:_TouchInputModule_UpdateModule_m2582897964
Aab:__ZN4MeshD0Ev
j4c:__ZL42RequestRecreateEyeTexturesBeforeNextUpdatev
Nje:__ZN28GenericInterfaceFuncInvoker1IbiE6InvokeEPK10MethodInfoP12Il2CppObjecti
tv:__ZN21AnimationClipPlayable23ProcessRootMotionNoClipEPK35AnimationPlayableEvaluationConstantPK32AnimationPlayableEvaluationInputP33AnimationPlayableEvaluationOutput
OVc:__Z36CanvasRenderer_CUSTOM_SetPopMaterialP12Il2CppObjectS0_i
hvc:__Z18Transfer_BlittableI9JSONWriteLb0EdEvRK29SerializationCommandArgumentsR31RuntimeSerializationCommandInfo
vqf:_String_System_IConvertible_ToDouble_m3740733360
yTa:__ZN6Camera8TransferI19StreamedBinaryWriteILb0EEEEvRT_
nMf:_DBNull_System_IConvertible_ToSByte_m3533624679
xTj:_wctomb
i$e:_Char_CompareTo_m42489266
Xih:__Z67RuntimeInvoker_Void_t1185182177_Int32_t2950945753_Double_t594665363PFvvEPK10MethodInfoPvPS4_
Ric:__Z27Camera_CUSTOM_GetAllCamerasP11Il2CppArray
WFb:__ZNK13MonoBehaviour25GetNeedsPerObjectTypeTreeEv
QCb:__Z35Transfer_Blittable_FixedBufferFieldI18StreamedBinaryReadILb0EEiEvRK29SerializationCommandArgumentsR31RuntimeSerializationCommandInfo
_c:___cxa_rethrow
Ipd:_ParameterInfo_GetCustomAttributes_m2376494592
Mwc:__Z18Transfer_BlittableI8JSONReadLb1EhEvRK29SerializationCommandArgumentsR31RuntimeSerializationCommandInfo
Sgd:_Graphic_get_canvasRenderer_m315509948
jzh:_Collection_1_System_Collections_IList_Contains_m3397768605_gshared
GPd:_Navigation_set_selectOnUp_m827629728_AdjustorThunk
s1j:_glBindRenderbuffer__wrapper
YBi:_X509Certificate_GetSubjectName_m3288368674
ash:_Dictionary_2_Do_CopyTo_TisInt32_t2950945753_TisInt32_t2950945753_m3384108308_gshared
Mfc:__ZN10systeminfo23SupportsLocationServiceEv
L7e:_CultureInfo_construct_internal_locale_from_name_m3254739477
Zse:_RSASslSignatureDeformatter_VerifySignature_m1061897602
Adj:__ZN6il2cpp2vm13MetadataCache14AddPointerTypeEP11Il2CppClassS3_
N_b:__ZN13MonoBehaviour8SetClassE17ScriptingClassPtr18ScriptingObjectPtr
kDi:_RandomNumberGenerator_Create_m4162970280
lnh:_Array_InternalArray__Insert_TisLabelFixup_t858502054_m171542753_gshared
k6d:_InternalEnumerator_1_System_Collections_IEnumerator_get_Current_m3539708496_AdjustorThunk
Nnb:__ZN20LocalFileSystemPosix4ReadER13FileEntryDatayyPvPy
hVb:__ZNSt3__211__sift_downIRN23ForwardShaderRenderLoop18RenderObjectSorterILb0EEEP21ForwardRenderPassDataEEvT0_S7_T_NS_15iterator_traitsIS7_E15difference_typeES7_
Qmf:_SecurityPermission__ctor_m1462427327
QZj:dynCall_iiiiiiffiiiiiiiiiffffiiii
jGb:__ZN13MonoBehaviour5DoGUIENS_13GUILayoutTypeEii
gtd:_ChannelData_get_ClientProviders_m594662942
cGi:_QuickSearch_GetChar_m1297698557
GLa:__ZNK12TLSAllocatorI14StackAllocatorE8ContainsEPKv
_eb:__ZN11TimeManager8TransferI18StreamedBinaryReadILb0EEEEvRT_
tTg:_List_1_AddCollection_m1469681717_gshared
sFf:_DateTime__ParseEnum_m253019513
gJf:_Convert_ToUInt32_m2194577773
znf:_PermissionSet__ctor_m2328457660
$6:__ZN15dense_hashtableINSt3__24pairIKyP17VertexDeclarationEEy14GfxGenericHashIyEN14GfxDoubleCacheIyS4_S7_NS0_8equal_toIyEEN31GfxDoubleCacheConcurrencyPolicy11LocklessGetE42GfxDoubleCacheDefaultEmptyDeletedGeneratorIyEE9SelectKeyESA_13stl_allocatorIS5_L18MemLabelIdentifier24ELi16EEE12resize_deltaEjj
d4e:_Hashtable_Remove_m4032631466
I6f:_DSAManaged_GenerateKeyPair_m2236915969
K9h:__ZL91RSASslSignatureFormatter_t2709678514_CustomAttributesCacheGenerator_U3CU3Ef__switchU24map16P21CustomAttributesCache
T2a:__ZN7Texture25ReloadFromStorageIfNeededEPvb
pyf:_Array_InternalArray__IndexOf_TisBoolean_t97287965_m1161209222_gshared
YPj:__ZN6il2cpp2os12Cryptography24OpenCryptographyProviderEv
mmi:__ZL55RaycastHit2D_t2279581989_CustomAttributesCacheGeneratorP21CustomAttributesCache
P1e:_SynchronizedArrayListWrapper_Clear_m2191301493
gLc:_Update_Max
hPh:_Predicate_1__ctor_m2943702050_gshared
_vj:__ZN6il2cpp6icalls8mscorlib6SystemL15ThrowNoWideningEv
A3b:__ZNK23TransformChangeDispatch24GetChangeMaskForInterestENS_12InterestTypeE
znc:__Z45Transform_CUSTOM_INTERNAL_CALL_TransformPointP12Il2CppObjectRK8Vector3fRS1_
VFe:_GenericTypeParameterBuilder_InvokeMember_m1647304778
Eid:_HorizontalOrVerticalLayoutGroup_set_childControlWidth_m3261460516
$0a:__ZNSt3__26__treeINS_12__value_typeI39DeprecatedFastPropertyNameSerializationfEENS_19__map_value_compareIS2_S3_NS_4lessIS2_EELb1EEENS_9allocatorIS3_EEE7destroyEPNS_11__tree_nodeIS3_PvEE
aJc:_tt_cmap4_char_index
Cad:_AspectRatioFitter_GetParentSize_m3159144324
_of:_SecurityFrame_get_Assembly_m2874566710
UYd:_InternalEnumerator_1__ctor_m2336656763_AdjustorThunk
TVg:_Enumerator_System_Collections_IEnumerator_Reset_m1487823313_gshared
hnb:__ZNK12HandlerChain8IsHiddenERK13FileEntryData
IMg:_List_1_System_Collections_IList_get_IsFixedSize_m1752888098_gshared
Xub:__ZL26Transfer_SimpleNativeClassI17RemapPPtrTransfer10RectOffsetLb0EEvRK29SerializationCommandArgumentsR31RuntimeSerializationCommandInfo
bQc:__Z14ValidateFormatR13dynamic_arrayIN20TextRenderingPrivate16TextFormatChangeELj4EE
LTd:_ScrollRect_CalculateLayoutInputVertical_m3155297482
Zcf:_Int32_ToString_m2507389746_AdjustorThunk
QHf:_Decimal_op_Explicit_m438967917
S$h:__ZL55IChannelInfo_t3866172133_CustomAttributesCacheGeneratorP21CustomAttributesCache
s4i:_AnimatorControllerPlayable_SetHandle_m2260644454_AdjustorThunk
KMi:__ZN30GenericInterfaceActionInvoker2IP12Il2CppObjectS1_E6InvokeEPK10MethodInfoS1_S1_S1_
x4e:_Environment_get_SocketSecurityEnabled_m190813817
O9g:__Z53RuntimeInvoker_Void_t1185182177_Vector4U26_t200349727PFvvEPK10MethodInfoPvPS4_
whi:__ZL57UnityEventBase_t3960448221_CustomAttributesCacheGeneratorP21CustomAttributesCache
fif:_NullStream_Flush_m3382897993
Sja:__ZNSt3__26vectorIN9ShaderLab20SerializedSubProgram13BufferBindingENS_9allocatorIS3_EEEC2ERKS6_
QJd:_InputField_set_selectionColor_m2084640295
llh:__Z114RuntimeInvoker_Int32_t2950945753_CustomAttributeTypedArgument_t2723150157_CustomAttributeTypedArgument_t2723150157PFvvEPK10MethodInfoPvPS4_
_rh:_Dictionary_2_Do_CopyTo_TisKeyValuePair_2_t2401056908_TisKeyValuePair_2_t2401056908_m676905794_gshared
h4:__ZNK9ShaderLab20ShaderBlendStateDesc15ToGfxBlendStateEPK19ShaderPropertySheetS3_R13GfxBlendState
ece:_Enumerator_System_Collections_IEnumerator_get_Current_m1747693366_AdjustorThunk
$td:_ConfigHandler_OnIgnorableWhitespace_m278399491
e5h:__ZL77Convert_t2465617642_CustomAttributesCacheGenerator_Convert_ToInt64_m260173354P21CustomAttributesCache
vz:__ZN11UnityEngine9AnimationL22GenericBindingCallbackEPvS1_i
NKc:_Compute_Point_Displacement
qoa:__ZN9ShaderLab9IntShaderC2Ev
IOh:_Func_3__ctor_m1375075958_gshared
vhj:__ZN6il2cpp6icalls8mscorlib6SystemL9IsPrivateEPK9EventInfo
PPj:__ZN6il2cpp6icalls8mscorlib6System10Reflection4Emit11TypeBuilder20setup_internal_classEP27Il2CppReflectionTypeBuilderS7_
Fec:__Z18TransformPoints3x4RK10Matrix4x4fPK8Vector3fjPS2_ji
s9h:__ZL72PKCS12_t4101533061_CustomAttributesCacheGenerator_U3CU3Ef__switchU24mapCP21CustomAttributesCache
Oyf:_Array_InternalArray__IndexOf_TisILTokenInfo_t2325775114_m2602704009_gshared
zdi:__ZL52Matrix4x4_t1817901843_CustomAttributesCacheGeneratorP21CustomAttributesCache
Vvg:_Dictionary_2_System_Collections_IDictionary_GetEnumerator_m972834308_gshared
uQg:_List_1_System_Collections_ICollection_get_IsSynchronized_m967177678_gshared
wTf:_StringBuilder_AppendFormat_m3255666490
aBe:_OverflowException__ctor_m4029085969
tld:_TypeBuilder_GetGenericArguments_m2872156836
Ixd:_MethodCall_get_Uri_m1720935531
zYi:__ZL24UnresolvedVirtualCall_94P12Il2CppObjectS0_S0_iPK10MethodInfo
h6i:__ZN13Il2CppHashMapIPK22Il2CppGenericParameterP11Il2CppClassN6il2cpp5utils11PointerHashIS1_EENSt3__28equal_toIS2_EENS9_9allocatorINS9_4pairIK10KeyWrapperIS2_ES4_EEEEEC2EjRKS8_RKSB_
cyc:__ZN8JSONRead21TransferSTLStyleArrayI31ArrayOfManagedObjectsTransfererEEvRT_17TransferMetaFlags
sNa:__Z15CreateDirectoryRKN4core12basic_stringIcNS_20StringStorageDefaultIcEEEE
wZa:__Z21CalculateGlobalMatrix23TransformAccessReadOnly
uld:_TypeBuilder_GetGenericTypeDefinition_m1632720438
Atf:_Array_InternalArray__ICollection_Contains_TisLink_t544317964_m163190451_gshared
MLf:_DateTimeOffset_System_IComparable_CompareTo_m176229495_AdjustorThunk
Jgg:_ManagedStreamHelpers_ValidateLoadFromStream_m580138133
oli:__ZL104GUIUtility_t1868551600_CustomAttributesCacheGenerator_GUIUtility_EndContainerGUIFromException_m530164245P21CustomAttributesCache
dfb:__ZNK13BuildSettings22GetTypeVirtualInternalEv
fgd:_FontData_get_alignByGeometry_m2805576119
wMi:__ZN30GenericInterfaceActionInvoker1I17Scene_t2348375561E6InvokeEPK10MethodInfoP12Il2CppObjectS0_
D0d:_InternalEnumerator_1__ctor_m1486034688_gshared
$zb:__Z35Transfer_Blittable_FixedBufferFieldI18StreamedBinaryReadILb1EEhEvRK29SerializationCommandArgumentsR31RuntimeSerializationCommandInfo
l4h:__ZL56AppDomainSetup_t123196401_CustomAttributesCacheGeneratorP21CustomAttributesCache
ITg:_List_1_CheckIndex_m2250397830_gshared
n5b:__Z13RegisterClassI14RenderSettingsEvv
dkg:_PlayableOutput_GetHandle_m777137769_AdjustorThunk
A1i:_FontTextureRebuildCallback_EndInvoke_m3732346867
z:tempBigIntI
HRe:_Interval_get_Empty_m3617514670
Ykh:__Z31RuntimeInvoker_Mark_t3471605523PFvvEPK10MethodInfoPvPS4_
BBe:_Assembly_GetName_m981771927
P8h:__ZL53RegexOptions_t92845595_CustomAttributesCacheGeneratorP21CustomAttributesCache
Kx:__ZN7mecanim12statemachine24CreateStateMachineOutputEPKNS0_20StateMachineConstantEjRNS_6memory9AllocatorE
mEj:__ZN6il2cpp2vm12GenericClass8GetClassEP18Il2CppGenericClass
Lqa:__ZNK9GfxDevice27GetActiveRenderSurfaceWidthEv
Qpi:__ZL114StandaloneInputModule_t2760469101_CustomAttributesCacheGenerator_StandaloneInputModule_ForceAutoSelect_m2837047882P21CustomAttributesCache
D_c:__ZN11UnityEngine15PlatformWrapper28GetCleanGraphicsFixedVersionEv
qPd:_MaskableGraphic_RecalculateClipping_m1772937317
Kve:_UnmanagedMemoryStream_SetLength_m3752964620
Eob:__ZN16MemoryFileSystem5WriteER13FileEntryDatayyPvPy
Oxi:_SslStreamBase_RaiseLocalPrivateKeySelection_m4112368540
lrj:__ZN6il2cpp2vm4Type7GetTypeEPK10Il2CppType
Kdb:__ZN16SpriteRenderData28PrepareRenderingDataIfNeededEv
mPc:_open_face_PS_from_sfnt_stream
e1d:_InternalEnumerator_1_get_Current_m165106323_AdjustorThunk
gUf:_UTF32Encoding_GetByteCount_m3610769032
FAa:__ZN6prcoreL17RemapGenericFloatI18TexFormatRGBAFloat17TexFormatRGBAHalfEEvPKNS_9InnerInfoE
beb:__Z32TransferEnumWithNameForceIntSizeI14SafeBinaryRead14SpriteTileModeEvRT_RT0_PKc17TransferMetaFlags
fOb:__Z16FindCameraStacksRKNSt3__24listI4PPtrI6CameraENS_9allocatorIS3_EEEERNS_6vectorI11CameraStackNS4_ISA_EEEE
WEi:_MatchCollection_CopyTo_m3807326147
q5a:__ZN10GISettings8TransferI14SafeBinaryReadEEvRT_
Cn:FUNCTION_TABLE_vifff
_ti:__ZL54Text_t1901882714_CustomAttributesCacheGenerator_m_TextP21CustomAttributesCache
DId:_MD5CryptoServiceProvider__ctor_m3271163125
G$b:__ZN19CustomRenderTexture12ClearGPUDataEv
mfe:__ZN28GenericInterfaceFuncInvoker2I26KeyValuePair_2_t3699644050iP12Il2CppObjectE6InvokeEPK10MethodInfoS2_iS2_
qPi:_ListPool_1_Get_m2875520964_gshared
w3h:__ZL95UnicodeEncoding_t1959134050_CustomAttributesCacheGenerator_UnicodeEncoding_GetBytes_m3223155660P21CustomAttributesCache
y_a:__ZN13RenderTexture13ApplySettingsEv
zCd:_ObjectReader_RegisterObject_m1853376334
oHe:_ModuleBuilderTokenGenerator_GetToken_m2588853565
bZe:_Boolean_System_IConvertible_ToDecimal_m3176932461_AdjustorThunk
Ze:_JS_Sound_SetListenerPosition
un:FUNCTION_TABLE_fiffi
p9g:__Z54RuntimeInvoker_Int32_t2950945753_LayerMask_t3493934918PFvvEPK10MethodInfoPvPS4_
rTd:_ScrollRect_OnInitializePotentialDrag_m3139711961
HLa:__ZNK12TLSAllocatorI14StackAllocatorE10GetPtrSizeEPKv
SIh:_ReadOnlyCollection_1_System_Collections_Generic_IListU3CTU3E_set_Item_m711370667_gshared
VAj:__ZNK15dense_hashtableINSt3__24pairIK10KeyWrapperINS1_IPKcS4_EEEiEES6_24NamespaceAndNamePairHashN14dense_hash_mapIS6_iS9_NS6_14EqualsComparerI26NamespaceAndNamePairEqualsEENS0_9allocatorIS8_EEE9SelectKeyESD_SF_E10test_emptyERK24dense_hashtable_iteratorIS8_S6_S9_SH_SD_SF_E
xCe:_Default_check_arguments_with_score_m3467814020
X2j:_glGetActiveUniform__wrapper
gue:_StreamWriter_LowLevelWrite_m1081676583
cIg:_Enumerator__ctor_m3875432026_AdjustorThunk
eea:__ZZN15DirectorManager15InitializeClassEvEN45FixedUpdateDirectorFixedSampleTimeRegistrator7ForwardEv
Ykb:__ZNK8Material16MarkDependenciesER27GarbageCollectorThreadState
QUd:_Slider_set_handleRect_m1101657556
ZLf:_DateTimeOffset_ToString_m3985341516_AdjustorThunk
yDh:_Collection_1_System_Collections_IList_Contains_m3348135931_gshared
kvc:__ZL17Transfer_GUIStyleI9JSONWriteLb0EEvRK29SerializationCommandArgumentsR31RuntimeSerializationCommandInfo
CSb:__Z28GetHaloVertexPositionsStereoP8Vector3fRKS_S2_f
uBa:__ZN6prcoreL27StretchGenericFloatBilinearI15TexFormatRGHalfEEvPKNS_9InnerInfoE
f8:__GLOBAL__sub_I_runtime_misc_0_cpp
gug:_Dictionary_2_System_Collections_IDictionary_GetEnumerator_m751864982_gshared
N9e:_SortKey_GetHashCode_m3547067087
mDb:__Z18Transfer_BlittableI18StreamedBinaryReadILb0EELb1E9BoundsIntEvRK29SerializationCommandArgumentsR31RuntimeSerializationCommandInfo
Wti:__ZL71SpriteState_t1362986479_CustomAttributesCacheGenerator_m_DisabledSpriteP21CustomAttributesCache
A$c:__ZN22BaseUnityConnectClient28UpdateConfigFromServerStaticEPv
CMe:_PublicKey_DecodeDSA_m3490622362
amc:__Z49Register_UnityEngine_Resources_GetBuiltinResourcev
AZf:_Type_GetMethod_m1479779718
PIc:_tt_cmap10_char_index
myi:_TlsException__ctor_m3242533711
mke:_BitConverterLE_GetUIntBytes_m795219058
P5:__Z18GetITerrainManagerv
TCf:_SortedList__ctor_m3676552745
L6i:__ZN15dense_hashtableINSt3__24pairIK10KeyWrapperIPK22Il2CppGenericParameterEP11Il2CppClassEES6_N6il2cpp5utils11PointerHashIS4_EEN14dense_hash_mapIS6_S9_SE_NS6_14EqualsComparerINS0_8equal_toIS5_EEEENS0_9allocatorISA_EEE9SelectKeyESJ_SL_E3endEv
d9i:__ZNK15dense_hashtableINSt3__24pairIK10KeyWrapperIPK11Il2CppClassEPKcEES6_N6il2cpp5utils11PointerHashIS3_EEN14dense_hash_mapIS6_S9_SE_NS6_14EqualsComparerINS0_8equal_toIS5_EEEENS0_9allocatorISA_EEE9SelectKeyESJ_SL_E8min_sizeEjj
eQ:__ZN11AudioSource24ClearExtensionPropertiesE12PropertyName
Xge:_Transform_1_EndInvoke_m332304766_gshared
Yla:__ZN9ShaderLab22SerializedBindChannels8TransferI19StreamedBinaryWriteILb0EEEEvRT_
KZg:__Z52RuntimeInvoker_Decimal_t2948259380_Int32_t2950945753PFvvEPK10MethodInfoPvPS4_
htb:__ZN15SerializeTraitsI5RectTIiEE8TransferI14SafeBinaryReadEEvRS1_RT_
Rqc:__ZN5IMGUI20MoveWindowFromLayoutER8GUIStateiRK5RectTIfE
F4g:__Z50RuntimeInvoker_SByte_t1669577662_Int64_t3736567304PFvvEPK10MethodInfoPvPS4_
gJj:__ZN6il2cpp6icalls8mscorlib6System9Threading11Interlocked21CompareExchangeSingleEPfff
tFc:_UNITY_FT_Stream_ReadUShort
QAh:_Collection_1_System_Collections_IList_get_Item_m1677338752_gshared
Ikc:__Z51Register_UnityEngine_GUILayer_INTERNAL_CALL_HitTestv
bia:__ZNSt3__26__treeINS_12__value_typeIN4core12basic_stringIcNS2_20StringStorageDefaultIcEEEES6_EENS_19__map_value_compareIS6_S7_NS_4lessIS6_EELb1EEE13stl_allocatorIS7_L18MemLabelIdentifier1ELi16EEE7destroyEPNS_11__tree_nodeIS7_PvEE
pEe:_DerivedType_IsAssignableFrom_m1623073368
BWf:_Thread_get_ManagedThreadId_m1068113671
twa:__Z13IsDepthFormat14GraphicsFormat
qgb:__ZN12AspectRatios8TransferI24GenerateTypeTreeTransferEEvRT_
Kxe:_MonoType_GetFields_m4176012508
qBc:__Z12FormatBufferPciPKcz
j9e:_NumberFormatInfo_get_PositiveInfinitySymbol_m1141345134
DNc:__ZN15SerializeTraitsI13dynamic_arrayI4PPtrIN13TextRendering4FontEELj4EEE19ResizeSTLStyleArrayERS5_i
rBg:_EqualityComparer_1_System_Collections_IEqualityComparer_GetHashCode_m3423304513_gshared
gXh:__ZL57FileSystemInfo_t3745885336_CustomAttributesCacheGeneratorP21CustomAttributesCache
Y6i:__ZN6il2cpp2vm5Class13GetArrayClassEP11Il2CppClassj
m9c:_StandaloneInputModule_set_inputActionsPerSecond_m4057208843
bKb:__ZN19RuntimeSceneManager18LoadSceneAsyncIntoER10UnitySceneRKN4core12basic_stringIcNS2_20StringStorageDefaultIcEEEENS_11LoadingModeEb
dve:_TextWriter_Write_m164803641
Fuc:__Z35Transfer_Blittable_FixedBufferFieldI9JSONWritetEvRK29SerializationCommandArgumentsR31RuntimeSerializationCommandInfo
M$i:__ZL25UnresolvedVirtualCall_269P12Il2CppObjectiiPK10MethodInfo
Yqc:__ZN11IMGUIModule12AddGUIScriptER8ListNodeI13MonoBehaviourE
pb:invoke_difi
FQi:_GUILayoutUtility_BeginWindow_m2240221150
S1j:_glDeleteSamplers__wrapper
ida:__ZL50StaticRegisterSceneLoadedCallback_LightmapSettingsPv
QHe:_HybridDictionary_set_Item_m2997363718
PSb:__ZN29MotionVectorRenderLoopScratch15ThreadedCleanupEv
OMa:__ZNSt3__26__treeIiNS_4lessIiEE13stl_allocatorIiL18MemLabelIdentifier1ELi16EEE7destroyEPNS_11__tree_nodeIiPvEE
I6d:_InternalEnumerator_1_get_Current_m1477715453_AdjustorThunk
TMh:__ZN28GenericInterfaceFuncInvoker1IiP12Il2CppObjectE6InvokeEPK10MethodInfoS1_S1_
Ija:__ZN15SerializeTraitsI13dynamic_arrayItLj2EEE19ResizeSTLStyleArrayERS1_i
A0f:_UInt64_System_IConvertible_ToUInt32_m2784653358
_va:__ZN21GLESGpuProgramApplier11ApplyVectorERKN20GpuProgramParameters14ValueParameterEPK8Vector4ft
nXb:__Z17PrepareSceneNodesP11CullResults
rBa:__ZN6prcoreL27StretchGenericFloatBilinearI18TexFormatRGBAFloatEEvPKNS_9InnerInfoE
Azj:__ZN15dense_hashtableINSt3__24pairIK10KeyWrapperIP14Il2CppIUnknownEjEES5_N6il2cpp5utils11PointerHashIS3_EEN14dense_hash_mapIS5_jSB_NS5_14EqualsComparerINS0_8equal_toIS4_EEEENS0_9allocatorIS7_EEE9SelectKeyESG_SI_E12expand_arrayEjN21dense_hash_map_traits17integral_constantIbLb0EEE
YEd:_SByte_System_IConvertible_ToDecimal_m2548745278
tCc:_cff_size_done
OXb:__ZN29ExtractProjectionPlanesHelperILb1EE5ApplyERK10Matrix4x4fP5Plane
_ac:__ZN13ProduceHelperI7CubemapLb0EE7ProduceE10MemLabelId18ObjectCreationMode
Y$b:__ZN6Camera34UpdatePreviousViewProjectionMatrixEv
Sma:__ZN9ShaderLab11ShaderState25RemoveUnsupportedProgramsEPK6Shader
vZi:__ZL25UnresolvedVirtualCall_144P12Il2CppObject16Rect_t2360479859aPK10MethodInfo
$Qc:__Z28Font_Get_Custom_PropMaterialP12Il2CppObject
chg:_Mathf_Abs_m3281243566
Lue:_SynchronizedWriter_WriteLine_m1552352268
xrd:_DefaultDependencyAttribute__ctor_m502524668
W6g:__Z44RuntimeInvoker_X509KeyUsageFlags_t1431795504PFvvEPK10MethodInfoPvPS4_
dlg:_Rect_get_zero_m4034156123
Hfc:__Z26scripting_class_has_parent17ScriptingClassPtrS_
gca:__ZN13RuntimeStaticI21AssetReferenceStorageLb0EE16StaticInitializeEPv
m0c:__ZNSt3__26__treeINS_12__value_typeIN4core12basic_stringIcNS2_20StringStorageDefaultIcEEEEN11UnityEngine7Connect19RemoteSettingsValueEEENS_19__map_value_compareIS6_SA_NS_4lessIS6_EELb1EEE13stl_allocatorISA_L18MemLabelIdentifier6ELi16EEE16__construct_nodeERKNS_4pairIKS6_S9_EE
ecf:_Int32_System_IConvertible_ToByte_m3832391412_AdjustorThunk
MQ:__Z71Register_UnityEngine_AudioSource_INTERNAL_CALL_ClearExtensionPropertiesv
fTh:__ZL81RuntimeArray_CustomAttributesCacheGenerator_Array_GetValue_m116098292____indices0P21CustomAttributesCache
LC:__ZNK8Animator20IsInMatchTargetStateEv
S2d:_InternalEnumerator_1_System_Collections_IEnumerator_get_Current_m4088805473_gshared
Drc:__Z36Register_UnityEngine_GUI_set_changedv
gvd:_Context_GetServerContextSinkChain_m3154465897
Ard:_FixedBufferAttribute_get_Length_m1478886548
IQd:_GetRayIntersectionAllCallback_EndInvoke_m1583561415
xRi:_GUIStyle_get_fixedHeight_m2868324709
RSe:__ZN30GenericInterfaceActionInvoker2IiiE6InvokeEPK10MethodInfoP12Il2CppObjectii
THf:_Convert_ToInt64_m2075293963
oQj:__GLOBAL__sub_I_Il2CppCodeRegistration_cpp
Qw:__ZN7mecanim28TransformValueArrayBlendNodeEiiiRKNS_10ValueArrayERKNS_14ValueArrayMaskERS0_RS3_RNS_16ValueArrayWeightEf
Hxf:__ZN21InterfaceFuncInvoker2Ii20UICharInfo_t75501106S0_E6InvokeEjP11Il2CppClassP12Il2CppObjectS0_S0_
lJg:_List_1_GetIndex_m3112872964_gshared
MMi:_UnityAction_2_BeginInvoke_m1322091188_gshared
Ued:_Dropdown_set_value_m1048320169
O5i:_CustomEventData_Finalize_m1724721833
YVa:__ZN20TierGraphicsSettings8TransferI18StreamedBinaryReadILb0EEEEvRT_
Dcf:_Int32_System_IConvertible_ToUInt64_m2502338186_AdjustorThunk
Nfa:__Z33CleanupCubemapGPUUtilityMaterialsPv
nmc:__Z43Register_UnityEngine_Material_EnableKeywordv
O4i:__ZL9rshift128PyS_
gUe:__ZN23InterfaceActionInvoker1IP25SmallXmlParser_t973787839E6InvokeEjP11Il2CppClassP12Il2CppObjectS1_
tHg:_Enumerator_VerifyState_m169680537_AdjustorThunk
Mpj:__ZN14dense_hash_mapI10KeyWrapperINSt3__24pairIPK12PropertyInfoP11Il2CppClassEEEj17ReflectionMapHashIS8_ENS9_14EqualsComparerINS1_8equal_toIS8_EEEENS1_9allocatorINS2_IKS9_jEEEEE13set_empty_keyERSH_
Sg:_glRenderbufferStorage
sKg:_List_1_Sort_m3734202732_gshared
klc:__Z45Register_UnityEngine_Input_get_touchSupportedv
H_c:__ZN11UnityEngine15PlatformWrapper28GetTextureFormatSupportFlagsEv
uHc:_sfnt_is_postscript
Q0b:__ZNSt3__26vectorINS_4pairIN4core12basic_stringIcNS2_20StringStorageDefaultIcEEEES6_EE13stl_allocatorIS7_L18MemLabelIdentifier38ELi16EEE26__swap_out_circular_bufferERNS_14__split_bufferIS7_RSA_EEPS7_
vJi:_Uri_EscapeString_m3864445955
gDc:_cf2_setError
dvi:__ZL78LayoutRebuilder_t541313304_CustomAttributesCacheGenerator_U3CU3Ef__mgU24cache0P21CustomAttributesCache
Rab:__ZN14SafeBinaryRead21TransferSTLStyleArrayI13dynamic_arrayI12BoneWeights4Lj16EEEEvRT_17TransferMetaFlags
aae:_Enumerator_MoveNext_m465222849_AdjustorThunk
$Mb:__ZZ23InitPlayerLoopCallbacksvEN35PreUpdateSendMouseEventsRegistrator7ForwardEv
vmf:_X509Certificate__ctor_m1321742168
uMd:_U3CMouseDragOutsideRectU3Ec__Iterator1_System_Collections_Generic_IEnumeratorU3CobjectU3E_get_Current_m3688496850
XEa:__ZNK6Camera25GetNormalizedViewportRectEP13RenderTextureb
Ved:_Dropdown_Awake_m3140021404
dh:_glDisable
Aih:__Z52RuntimeInvoker_Void_t1185182177_UriScheme_t722425697PFvvEPK10MethodInfoPvPS4_
Ywi:__ZL72EventTrigger_t2527451695_CustomAttributesCacheGenerator_m_LifecycleEventP21CustomAttributesCache
V_a:__ZN13RenderTexture8TransferI24GenerateTypeTreeTransferEEvRT_
BZh:__ZL53IsVolatile_t2097058663_CustomAttributesCacheGeneratorP21CustomAttributesCache
_qg:_Vector2_get_sqrMagnitude_m837837635
RKa:__ZN4PPtrI9Texture2DE8TransferI14SafeBinaryReadEEvRT_
fai:__ZL59WritableAttribute_t812406054_CustomAttributesCacheGeneratorP21CustomAttributesCache
SIj:__ZN6il2cpp5utils11StringUtils15StringDuplicateEPKDsj
kHi:_Regex_Match_m4145799399
Mv:__ZN17AnimationPlayable17ProcessRootMotionEP35AnimationPlayableEvaluationConstantP32AnimationPlayableEvaluationInputP33AnimationPlayableEvaluationOutput
Grf:_String_IsNullOrEmpty_m2969720369
Fhe:_Enumerator_MoveNext_m2602845255_gshared
m2i:_TextGenerator_GetPreferredHeight_m3514897836
r4f:_BigInteger_LowestSetBit_m3082714978
bYg:__Z78RuntimeInvoker_Int16_t2552820387_RuntimeObject_Int32_t2950945753_RuntimeObjectPFvvEPK10MethodInfoPvPS4_
D6j:b118
E6j:b119
Iei:__ZL81Object_t631007953_CustomAttributesCacheGenerator_Object_set_hideFlags_m1648752846P21CustomAttributesCache
ZNb:__ZNK8Material12GetPassCountEv
Ujf:_RSAParameters_t1728406613_marshal_pinvoke
RRe:_Interval_IsDisjoint_m1532171337_AdjustorThunk
x6j:b112
uXj:_bitshift64Ashr
z6j:b114
A6j:b115
B6j:b116
C6j:b117
Zbj:__ZN30dense_hashtable_const_iteratorINSt3__24pairIK10KeyWrapperIN6il2cpp5utils13dynamic_arrayIPK10Il2CppTypeLj4EEEEPFvvEEESA_NS3_8metadata19Il2CppSignatureHashEN14dense_hash_mapISA_SD_SG_NSA_14EqualsComparerINSF_22Il2CppSignatureCompareEEENS0_9allocatorISE_EEE9SelectKeyESK_SM_E30advance_past_empty_and_deletedEv
SYj:dynCall_diii
qOd:_LayoutUtility_GetFlexibleWidth_m22831835
iCd:_BinaryFormatter__ctor_m971003555
WXd:_ArrayReadOnlyList_1_ReadOnlyError_m865416608_gshared
s7g:__Z91RuntimeInvoker_Void_t1185182177_Int32_t2950945753_Int32U26_t1369213839_Int32U26_t1369213839PFvvEPK10MethodInfoPvPS4_
Qdg:_DisplaysUpdatedDelegate_EndInvoke_m3857124817
X2e:_CollectionBase_System_Collections_IList_get_Item_m3743372945
Mnf:_Evidence_GetEnumerator_m302914965
T5i:_CustomEventData_Add_m3993893123
Txa:__ZN4crnd12crn_unpacker22decode_alpha_endpointsEv
lWg:_Queue_1__ctor_m2068090025_gshared
tYb:__Z23CullDynamicObjectsUmbraPK4AABBPKN5Umbra15OcclusionBufferER9IndexList
Nxi:_SslStreamBase_RaiseRemoteCertificateValidation2_m2908038766
WWi:__ZL23UnresolvedVirtualCall_9P12Il2CppObjectS0_iPK10MethodInfo
bJc:_tt_cmap4_char_next
W0f:_UIntPtr__ctor_m4250165422_AdjustorThunk
n_:__ZN4core8hash_mapIi17ThreadedAwakeDataNS_4hashIiEENSt3__28equal_toIiEEE4growEi
_Xg:__Z50RuntimeInvoker_Boolean_t97287965_Int16_t2552820387PFvvEPK10MethodInfoPvPS4_
KFg:_KeyValuePair_2_get_Value_m3464904234_gshared
BGf:_Convert_ToDecimal_m1233667008
g5d:_InternalEnumerator_1_MoveNext_m2734554195_gshared
RVb:__ZN23ForwardShaderRenderLoopD2Ev
L7:__GLOBAL__sub_I_runtime_assetbundles_1_cpp
ule:_MD5SHA1_HashCore_m4171647335
YI:__ZN4FMOD7Channel11setPositionEjj
Xh:_glBindSampler
xMj:_GC_reclaim_block
$ne:_ClientContext_get_ClientHelloProtocol_m1654639078
$h:_glGetVertexAttribiv
Whe:_Enumerator_System_Collections_IEnumerator_get_Current_m1975949486_gshared
DFi:_PatternCompiler_EmitSub_m193323684
b6g:__Z74RuntimeInvoker_RuntimeObject_RuntimeObject_SByte_t1669577662_RuntimeObjectPFvvEPK10MethodInfoPvPS4_
tSc:__ZN2UI11CanvasGroup23VirtualRedirectTransferER18StreamedBinaryReadILb0EE
bdf:_Int64_System_IConvertible_ToByte_m375085029
pyc:__ZN8JSONRead8TransferIbEEvRT_PKc17TransferMetaFlagsb
Hcg:_CullingGroup_t2096318768_marshal_pinvoke
qYf:_TimeSpan_ToString_m1128692466
Cng:_RequireComponent__ctor_m886241599
vTi:_AesManaged_CreateEncryptor_m2294080233
oXi:__ZL24UnresolvedVirtualCall_29P12Il2CppObjectS0_iPK10MethodInfo
lQi:_Event_GetHashCode_m3559153592
Uqc:__Z26RegisterModuleICalls_IMGUIv
Fma:__ZN9ShaderLab9SubShaderD2Ev
yBc:__ZN19ControllerHitReport13onObstacleHitERKN5physx23PxControllerObstacleHitE
t4g:__Z51RuntimeInvoker_Int16_t2552820387_Single_t1397266774PFvvEPK10MethodInfoPvPS4_
aLj:_GC_promote_black_lists
G7e:_CultureInfo_construct_datetime_format_m1928121315
dzc:__Z29Transfer_Blittable_ArrayFieldI8JSONRead8Vector4fEvRT_R9ArrayInfoRK23StaticTransferFieldInfo
ao:FUNCTION_TABLE_vf
Qxe:_Binder_GetDerivedLevel_m3216810447
Ao:FUNCTION_TABLE_vd
dRe:_RepeatContext_get_Start_m1076992038
d9:__ZN13RuntimeStaticI37UnityShaderCompilerExtPluginConfigureLb0EE16StaticInitializeEPv
xTf:_StringBuilder_AppendFormat_m2403596038
pHd:_DSASignatureDeformatter_SetHashAlgorithm_m3186995552
BGh:_ReadOnlyCollection_1_System_Collections_Generic_ICollectionU3CTU3E_Clear_m2772202961_gshared
swc:__ZN9JSONWrite8TransferI13dynamic_arrayI4AABBLj4EEEEvRT_PKc17TransferMetaFlags
jUi:_EventTrigger_get_lifecycleEvent_m3324346053
cF:__ZNK8Animator17HasBoundPlayablesEv
mrd:_ResourceSet_ReadResources_m3663669011
lAh:_Collection_1_GetEnumerator_m3990758110_gshared
_Vf:_SynchronizationContext_SetSynchronizationContext_m1249070039
z9h:__ZL74X509Crl_t1148767388_CustomAttributesCacheGenerator_U3CU3Ef__switchU24map13P21CustomAttributesCache
kcd:_CanvasUpdateRegistry_IsRebuildingGraphics_m1904586840
vTg:_List_1_AddEnumerable_m1267044261_gshared
BIc:_tt_cmap13_char_index
aij:__ZN6il2cpp2vm7Runtime9SetConfigEPKc
etc:__ZN5Unity9rapidjson12PrettyWriterI16TempBufferWriterNS0_4UTF8IcEES4_13JSONAllocatorE10StartArrayEv
ta:invoke_iiifiii
Qmg:_RectTransform_INTERNAL_get_pivot_m2970933031
oMi:_UnityAction_1_Invoke_m927447181_gshared
cxj:__ZN6il2cpp2vm9Exception11FromNameMsgEPK11Il2CppImagePKcS6_S6_
nBj:__ZNSt3__26__treeINS_12__value_typeIP24Il2CppReflectionAssemblyPvEENS_19__map_value_compareIS3_S5_NS_4lessIS3_EELb1EEENS_9allocatorIS5_EEE12__find_equalIS3_EERPNS_16__tree_node_baseIS4_EESH_RKT_
ln:FUNCTION_TABLE_fiiifii
hfa:__Z14GetTimeManagerv
bcg:_Color32_op_Implicit_m213813866
qmg:_RectOffset_set_top_m713260669
AMb:__ZN18AwakeFromLoadQueue15InitializeClassEv
XTh:__ZL61ArrayReadOnlyList_1_t221793636_CustomAttributesCacheGeneratorP21CustomAttributesCache
t2c:__ZN19TransportJavaScript7CleanupEv
AQa:__Z12GUIDToStringRK9UnityGUIDPc
eca:__ZN15FileSystemEntry4LockE12FileLockModeP12FileAccessor
E4j:_emscripten_glDrawArrays__wrapper
lGi:_Parser__ctor_m3200411199
Mcf:_Int32_Equals_m2976157357
Z8g:__Z110RuntimeInvoker_Int32_t2950945753_Int32_t2950945753_Int32_t2950945753_Int32U26_t1369213839_Int32U26_t1369213839PFvvEPK10MethodInfoPvPS4_
lUg:_List_1_System_Collections_IList_get_IsReadOnly_m1601400230_gshared
k2e:_BitArray_get_IsSynchronized_m3546284417
vM:__ZN11AudioSource22UnmuteActiveVideoSinksEv
ezi:_TlsException__ctor_m3717683709
PIj:__ZN4utf88internal20is_overlong_sequenceIiEEbjT_
abj:__ZN6il2cpp2vm13MetadataCache8RegisterEPK22Il2CppCodeRegistrationPK26Il2CppMetadataRegistrationPK20Il2CppCodeGenOptions
aod:_MonoMethod__ctor_m2104049215
Ifd:_U3CDelayedDestroyDropdownListU3Ec__Iterator0_System_Collections_IEnumerator_get_Current_m1619733476
z5h:__ZL79Convert_t2465617642_CustomAttributesCacheGenerator_Convert_ToUInt16_m4064261444P21CustomAttributesCache
Vq:__Z9SetLocalR15TransformAccessRKN4math7_float4Ey
pUb:__Z30SetupBakedOcclusionForGeometrybRK26SharedLightmapSettingsDataRK15LightmapIndicesR17ShaderPassContext
KGe:_MethodBuilder_get_Attributes_m2740229145
ujc:__Z41Register_UnityEngine_Cursor_get_lockStatev
MTb:__Z14SetupLightmapsRK8Vector4fS1_R17ShaderPassContext
koj:__ZN14dense_hash_mapI10KeyWrapperIPK14Il2CppAssemblyEPK22Il2CppMonoAssemblyNameN6il2cpp5utils11PointerHashIS2_EENS4_14EqualsComparerINSt3__28equal_toIS3_EEEENSD_9allocatorINSD_4pairIKS4_S7_EEEEE13set_empty_keyERSJ_
O$a:__ZL20InitializeGUIShadersv
uaf:_Guid_CompareTo_m243656946
N3b:__Z20DestroyObjectDelayedP6Objectf
QW:__ZN20DynamicHeapAllocatorI17LowLevelAllocatorED0Ev
nef:_IntPtr_ToPointer_m4157623054
gqe:_Context_get_LastHandshakeMsg_m2730646725
G7b:__ZN11TimeManagerC2E10MemLabelId18ObjectCreationMode
iRb:__ZN9DepthPassD2Ev
PH:__ZN11AudioFilter6GetDSPEv
D8f:_SymmetricTransform_CFB_m1051508796
ctd:_UrlAttribute_GetPropertiesForNewContext_m2281450996
Tjf:_RSACryptoServiceProvider_OnKeyGenerated_m863837376
dQg:_List_1_get_Capacity_m3047075120_gshared
Ddh:__Z31RuntimeInvoker_Mode_t1066900953PFvvEPK10MethodInfoPvPS4_
LRd:_Scrollbar_OnDrag_m4289602768
Taa:__ZN19RuntimeSceneManager14CanUnloadSceneEP10UnityScene
kRb:__Z22ExtractRenderNodeQueueRK11CullResults15ExtractionFlagsR15RenderNodeQueue
RDg:_GenericEqualityComparer_1_GetHashCode_m457148860_gshared
fGj:__ZN6il2cpp2vm6Method7GetNameEPK10MethodInfo
ksa:__ZN9GfxDevice16CreateTimerQueryEv
UG:__ZN24AudioScriptBufferManagerC2Ev
kAc:__ZN11UnityEngine9Analytics18SceneLoadTimeEvent12ToJsonStringER9JSONWrite
MOc:__ZNSt3__26vectorIh13stl_allocatorIhL18MemLabelIdentifier1ELi16EEE8__appendEj
M4d:_InternalEnumerator_1_System_Collections_IEnumerator_get_Current_m3854084659_AdjustorThunk
aJd:_OnValidateInput_Invoke_m1009124904
ZWd:_U3CGetEnumeratorU3Ec__Iterator0_System_Collections_IEnumerator_get_Current_m283764921_gshared
QBg:_EqualityComparer_1_System_Collections_IEqualityComparer_GetHashCode_m3578195399_gshared
OOc:__ZN20TextRenderingPrivate8FontImpl16ResetPackingDataEv
m6e:_CultureInfo_get_IcuName_m2258611679
cuc:__Z18Transfer_BlittableI9JSONWriteLb0EfEvRK29SerializationCommandArgumentsR31RuntimeSerializationCommandInfo
exa:__Z21GetAsyncUploadManagerv
Oj:_emscripten_glDetachShader
r5i:_CustomEventData_Add_m2564314129
ehe:_Transform_1_BeginInvoke_m3697921475_gshared
gng:_Vector2_op_Subtraction_m73004381
Uwa:__ZN17GenericDynamicVBO20ReleaseChunkInternalERK21DynamicVBOChunkHandlejj
_Qc:__ZL27CleanupModule_TextRenderingv
YTj:_fmodl
z1d:_InternalEnumerator_1__ctor_m39232262_gshared
E8f:_SymmetricTransform_OFB_m3842617151
sAb:__Z18Transfer_BlittableI18StreamedBinaryReadILb1EELb1E4AABBEvRK29SerializationCommandArgumentsR31RuntimeSerializationCommandInfo
YV:__Z37RegisterModuleICalls_CloudWebServicesv
HNa:__ZNSt3__26vectorIiNS_9allocatorIiEEE21__push_back_slow_pathIKiEEvRT_
gKb:__ZN19RuntimeSceneManager11CreateSceneEv
Gbg:_Color__ctor_m286683560
kFi:_PatternCompiler_Emit_m1540115729
lHc:_ps_get_standard_strings
oUb:__Z27SetupBakedOcclusionForLightbRK15SharedLightDataR17ShaderPassContext
GQj:__ZN6il2cpp2os5Mutex6UnlockEv
dif:_NullStream_get_Position_m4048431226
jRf:_EncoderFallbackException__ctor_m1051987327
XCh:__ZN21InterfaceFuncInvoker1I19Vector2_t2156229523iE6InvokeEjP11Il2CppClassP12Il2CppObjecti
yqe:_Context_set_RandomSC_m2364786761
U0h:__ZL73AsymmetricSignatureDeformatter_t2681190756_CustomAttributesCacheGeneratorP21CustomAttributesCache
zEh:_Collection_1_CopyTo_m2335349786_gshared
z4f:_BigInteger_ToString_m3278248272
HMf:_Decimal_System_IConvertible_ToBoolean_m1123794670
Zgh:__Z98RuntimeInvoker_Int32_t2950945753_RaycastResult_t3360306849_RaycastResult_t3360306849_RuntimeObjectPFvvEPK10MethodInfoPvPS4_
iba:__Z17CommitBatchDeleteR11BatchDelete
BOd:_Mask__ctor_m1269055150
a4h:__ZL99WaitHandle_t1743403487_CustomAttributesCacheGenerator_WaitHandle_t1743403487____Handle_PropertyInfoP21CustomAttributesCache
BLe:_WebRequest_AddPrefix_m3187775913
Dpi:__ZL98PointerEventData_t3807901092_CustomAttributesCacheGenerator_PointerEventData_get_button_m359423249P21CustomAttributesCache
yRj:__ZNSt3__26__treeINS_12__value_typeIPFvvEPK10MethodInfoEENS_19__map_value_compareIS3_S7_NS_4lessIS3_EELb1EEENS_9allocatorIS7_EEE4findIS3_EENS_15__tree_iteratorIS7_PNS_11__tree_nodeIS7_PvEEiEERKT_
R8e:_NumberFormatInfo_get_CurrencyNegativePattern_m2134016253
_8h:__ZL85UriParser_t3890150400_CustomAttributesCacheGenerator_UriParser_OnRegister_m3283921560P21CustomAttributesCache
Jqi:__ZL59Dropdown_t2274391225_CustomAttributesCacheGenerator_m_ValueP21CustomAttributesCache
FOb:__Z18RenderImageFiltersR10RenderLoopb
KVc:__Z43CanvasRenderer_Get_Custom_PropMaterialCountP12Il2CppObject
zUb:__ZNSt3__227__insertion_sort_incompleteIR23CompareReflectionProbesP31RuntimeReflectionProbeBlendInfoEEbT0_S5_T_
XPg:_List_1_Remove_m1457733883_gshared
yzc:__ZN8JSONRead21TransferSTLStyleArrayI13dynamic_arrayI11QuaternionfLj4EEEEvRT_17TransferMetaFlags
Ap:__ZN6Object23VirtualRedirectTransferER19StreamedBinaryWriteILb1EE
Yhc:__ZNK9BlobWrite24HasOffsetPtrWithDebugPtrEv
IRh:__ZL80String_t_CustomAttributesCacheGenerator_String_FormatHelper_m3913915042____args3P21CustomAttributesCache
tnd:_MonoEventInfo_GetEventInfo_m873645389
AJf:_Convert_ToUInt64_m1745056470
ile:_MD4Managed_Encode_m386285215
xca:__ZN10InputEventD2Ev
Eyb:__Z18Transfer_BlittableI19StreamedBinaryWriteILb0EELb0E5RectTIfEEvRK29SerializationCommandArgumentsR31RuntimeSerializationCommandInfo
A9d:_Enumerator_MoveNext_m3398155861_AdjustorThunk
_Z:__ZL23OutOfBoundsReadingErrorPKN5Unity4TypeEiiR6Object
l4d:_InternalEnumerator_1_MoveNext_m1590908934_AdjustorThunk
A3c:__ZN22UnityWebRequestManagerD2Ev
$Pi:_Event_get_character_m1666742088
Ylh:__Z112RuntimeInvoker_Boolean_t97287965_CustomAttributeNamedArgument_t287865710_CustomAttributeNamedArgument_t287865710PFvvEPK10MethodInfoPvPS4_
DTj:_isalpha
jSd:_U3CClickRepeatU3Ec__Iterator0_Dispose_m4248496038
$Ef:_Convert_ToChar_m1442101407
Nte:_SslClientStream_OnLocalPrivateKeySelection_m1934775249
qRi:_GUILayoutEntry_CalcWidth_m3962591050
$6b:__ZZL31RegisterRectTransformPropertiesR22GenericPropertyBindingEN28Wrapper_RectTransformPivoty113SetFloatValueEPvf
Thd:__ZN21InterfaceFuncInvoker1IP19Graphic_t1660335611iE6InvokeEjP11Il2CppClassP12Il2CppObjecti
$Lf:_DateTimeOffset_get_Offset_m2040541042_AdjustorThunk
kii:__ZL80Logger_t274032455_CustomAttributesCacheGenerator_U3ClogHandlerU3Ek__BackingFieldP21CustomAttributesCache
Bfj:__ZN6il2cpp2vmL17IsSocketAsyncCallEP14Il2CppDelegate
vCf:_Slot_t3975888750_marshal_pinvoke_back
_Ij:__ZN6il2cpp2vm6String6NewLenEPKcj
l5:__Z25GetBuiltinTexEnvParamNamei
WHb:__ZN17PersistentManager9AddStreamEv
mFj:__ZN6il2cpp2os6Thread12GetApartmentEv
IJa:__ZN9GfxDevice28UpdateComputeConstantBuffersEjP12ObjectHandleI18ConstantBuffer_TagPvEjjPKhPKjS8_PKi
gl:_time
Zcd:_ContentSizeFitter_set_verticalFit_m1831566876
pmf:_TripleDESCryptoServiceProvider_CreateDecryptor_m740960117
epc:__ZN16memory_pool_implILi28EE15AutoPoolWrapper12UninitializeEPv
$ch:__Z122RuntimeInvoker_Void_t1185182177_Color_t2555686324_Single_t1397266774_SByte_t1669577662_SByte_t1669577662_SByte_t1669577662PFvvEPK10MethodInfoPvPS4_
Wgg:_Material_EnableKeyword_m329692301
VDc:_cf2_stack_free
llf:_SHA512Managed_HashCore_m2377807474
Ldf:_Int64_Parse_m3309897583
Z6e:_CompareInfo_IndexOf_m667936183
YTg:_List_1__ctor_m2203182218_gshared
Av:__ZN7mecanim9animation19EvaluateFloatValuesEPKNS0_18ClipMuscleConstantEPKNS_18ValueArrayConstantEPKNS0_12ClipBindingsEPKNS0_10ClipOutputEPNS0_18AnimationNodeStateEfbb
ulg:_Rect_get_min_m847841034_AdjustorThunk
pD:__ZN8Animator31ClearInternalControllerPlayableEv
fIa:__ZN26SinglePassStereoSupportExt18AfterSetViewMatrixEv
pag:_Bounds__ctor_m1937678907_AdjustorThunk
log:_SetupCoroutine_InvokeMember_m2661944898
KEg:_HashSet_1__ctor_m620629637_gshared
cMe:_X509EnhancedKeyUsageExtension_ToString_m350388564
bHe:_MethodBuilder_get_Module_m2693263127
Yjj:__ZN15dense_hashtableINSt3__24pairIK10KeyWrapperINS1_IPK9FieldInfoP11Il2CppClassEEEjEES9_17ReflectionMapHashIS8_EN14dense_hash_mapIS9_jSD_NS9_14EqualsComparerINS0_8equal_toIS8_EEEENS0_9allocatorISB_EEE9SelectKeyESI_SK_E4findERSA_
C1e:_SimpleEnumerator_MoveNext_m3113120129
PEd:_RuntimeTypeHandle_GetHashCode_m3999856879_AdjustorThunk
fKb:__ZN13LoadOperationC2E10MemLabelId
cJd:_InputField_SendOnValueChanged_m2560301445
kIi:_CapturingGroup_get_Name_m3747712535
VZb:__ZN13RenderTexture19SetAutoGenerateMipsEb
Bya:__Z20GetTextureFormatInfo13TextureFormat
x5i:_CustomEventData_AddByte_m3440715081
hJe:_TypeConverterAttribute_Equals_m1580461255
sme:_RSAManaged_ToXmlString_m2369501989
ny:__ZN26AnimatorControllerPlayable8GetFloatEiRf
lMd:_InputField_get_layoutPriority_m2945430764
uKf:_DateTime_System_IConvertible_ToSingle_m2193708681_AdjustorThunk
PRe:_Interval_get_Size_m4163671410_AdjustorThunk
oHi:_Regex_ToString_m1548107455
yzf:_NoAllocHelpers_SafeLength_TisVector2_t2156229523_m3807819939_gshared
LSc:__ZN2UI14CanvasRenderer13AwakeFromLoadE17AwakeFromLoadMode
ARh:__ZL64String_t_CustomAttributesCacheGenerator_String_Split_m3580120853P21CustomAttributesCache
tBb:__ZN18StreamedBinaryReadILb1EE5AlignEv
YOj:__ZN6il2cpp5utils10MemoryPool6MallocEj
mG:__ZN11SoundHandle8InstanceD2Ev
Yqd:_ResourceEnumerator_Reset_m3754276504
Kfa:__ZN31CanvasBatchIntermediateRenderer13StaticDestroyEPv
w$:__ZNSt3__23mapIiP15MonoScriptCacheNS_4lessIiEE13stl_allocatorINS_4pairIKiS2_EEL18MemLabelIdentifier78ELi16EEEixERS7_
ydj:__ZNK15dense_hashtableINSt3__24pairIK10KeyWrapperIPK11Il2CppClassEPKcEES6_N6il2cpp5utils11PointerHashIS3_EEN14dense_hash_mapIS6_S9_SE_NS6_14EqualsComparerINS0_8equal_toIS5_EEEENS0_9allocatorISA_EEE9SelectKeyESJ_SL_E10test_emptyERK24dense_hashtable_iteratorISA_S6_SE_SN_SJ_SL_E
$mi:__ZL102CanvasRenderer_t2598313366_CustomAttributesCacheGenerator_CanvasRenderer_set_materialCount_m4286588063P21CustomAttributesCache
u_g:__Z78RuntimeInvoker_Int32_t2950945753_RuntimeObject_RuntimeObject_Int32_t2950945753PFvvEPK10MethodInfoPvPS4_
p2j:_emscripten_glBindProgramARB__wrapper
rjc:__Z41Register_UnityEngine_CullingGroup_Disposev
HFi:_PatternCompiler_EmitRepeat_m697083858
G3a:__ZN7Cubemap23VirtualRedirectTransferER19StreamedBinaryWriteILb0EE
lij:__ZN6il2cpp2vm7Runtime47RaiseExecutionEngineExceptionIfMethodIsNotFoundEPK10MethodInfoPK19Il2CppGenericMethod
Osd:_ConstructionLevelActivator__ctor_m3779412964
lPa:__ZN25MultiBlocksMemoryFileData5WriteEyyPKv
cDh:_Collection_1_GetEnumerator_m344341702_gshared
Ymj:__ZNSt3__218uninitialized_fillIPNS_4pairIK10KeyWrapperINS1_IPK12PropertyInfoP11Il2CppClassEEEjEESB_EEvT_SD_RKT0_
Aqd:_ResourceReader_Read7BitEncodedInt_m3568166465
s6f:_BlockProcessor_Core_m2138791525
Dgi:__ZL95Mesh_t3648964284_CustomAttributesCacheGenerator_Mesh_GetIndices_m1466450660____applyBaseVertex1P21CustomAttributesCache
W2i:_CanvasGroup_set_alpha_m4032573
FWe:_Array_get_LongLength_m978104875
jCa:__ZL17ProgramUniform2fvPK7ApiGLESjiihPKv
b3j:b83
OXg:__Z68RuntimeInvoker_Boolean_t97287965_RuntimeObject_UInt64U26_t1265593412PFvvEPK10MethodInfoPvPS4_
IOc:__ZN20TextRenderingPrivate8FontImpl21HasCharacterInTextureEjijfPj
xed:_OptionData__ctor_m2529924901
gqg:_Transform_SetAsFirstSibling_m253439912
Kui:__ZL93HorizontalOrVerticalLayoutGroup_t729725570_CustomAttributesCacheGenerator_m_ChildControlWidthP21CustomAttributesCache
DKf:_DateTime_System_IConvertible_ToUInt16_m4182197229_AdjustorThunk
IRe:_Interval_get_IsDiscontiguous_m3016063288
Pxi:_SslStreamBase_get_CheckCertRevocationStatus_m2739906607
YUj:_htonl
iua:__Z20GetBufferManagerGLESv
a3j:b82
vlf:_SHA512Managed_Sigma1_m922902398
iEb:__ZN18StreamedBinaryReadILb0EE21TransferSTLStyleArrayI31ArrayOfManagedObjectsTransfererEEvRT_17TransferMetaFlags
Mua:__ZNSt3__26__treeI22DeviceStencilStateGLES14MemoryCompLessI18DeviceStencilStateENS_9allocatorIS1_EEE12__find_equalIS1_EERPNS_16__tree_node_baseIPvEESD_RKT_
ZUj:_htons
nxc:__Z18Transfer_BlittableI8JSONReadLb0EtEvRK29SerializationCommandArgumentsR31RuntimeSerializationCommandInfo
xnj:__ZN15dense_hashtableINSt3__24pairIK10KeyWrapperINS1_IPK9EventInfoP11Il2CppClassEEEjEES9_17ReflectionMapHashIS8_EN14dense_hash_mapIS9_jSD_NS9_14EqualsComparerINS0_8equal_toIS8_EEEENS0_9allocatorISB_EEE9SelectKeyESI_SK_E12expand_arrayEjN21dense_hash_map_traits17integral_constantIbLb0EEE
IAb:__Z18Transfer_BlittableI18StreamedBinaryReadILb1EELb0E5RectTIiEEvRK29SerializationCommandArgumentsR31RuntimeSerializationCommandInfo
UZ:__Z16GenerateTypeTreeRK6ObjectR8TypeTree24TransferInstructionFlags
Q7e:_CultureInfo_CreateCulture_m1493441763
hmf:_TripleDES_IsWeakKey_m2147489852
U3a:__ZNK7Cubemap20GetTextureLayerCountEv
az:__ZN34AnimationStateMachineMixerPlayable13EndTransitionEv
_5h:__ZL79Convert_t2465617642_CustomAttributesCacheGenerator_Convert_ToUInt64_m2343585091P21CustomAttributesCache
bch:__Z65RuntimeInvoker_Void_t1185182177_RuntimeObject_RectU26_t1284589061PFvvEPK10MethodInfoPvPS4_
xI:__ZN12AudioManager21FixMasterGroupRoutingEv
pab:__ZNK19ShaderPropertySheet11HasPropertyERKN9ShaderLab16FastPropertyNameE
iZj:dynCall_viffffii
oC:__ZN15AllocatorTraitsIN8Animator11AnimatorJobELb0EE13CopyConstructEPS1_RKS1_10MemLabelId
Vfh:__Z81RuntimeInvoker_Boolean_t97287965_NavigationU26_t1807167253_Navigation_t3049316579PFvvEPK10MethodInfoPvPS4_
v4j:_emscripten_glUniform1fv__wrapper
vmb:__ZN2UI13RectTransform19SetAnchoredPositionERK8Vector2f
lid:_GridLayoutGroup_SetLayoutHorizontal_m2838109254
t8g:__Z65RuntimeInvoker_SecurityProtocolType_t1513093309_Int16_t2552820387PFvvEPK10MethodInfoPvPS4_
sed:_Dropdown_RefreshShownValue_m2806045241
zqb:__Z18Transfer_BlittableI14SafeBinaryReadLb1E4AABBEvRK29SerializationCommandArgumentsR31RuntimeSerializationCommandInfo
LEj:__ZN6il2cpp6icalls8mscorlib6System4Enum12get_hashcodeEP12Il2CppObject
_Nj:_GC_set_no_dls
scd:_ColorBlock_set_normalColor_m254595671_AdjustorThunk
xSj:__ZN6il2cpp8metadata26Il2CppGenericMethodCompare6EqualsEPK19Il2CppGenericMethodS4_
fDh:_Collection_1_InsertItem_m1996433897_gshared
P3d:_InternalEnumerator_1_get_Current_m1007906068_gshared
h7a:__ZNK13ScreenManager16GetScreenTimeoutEv
X8i:__ZN15dense_hashtableINSt3__24pairIK10KeyWrapperIPK11Il2CppClassEPKcEES6_N6il2cpp5utils11PointerHashIS3_EEN14dense_hash_mapIS6_S9_SE_NS6_14EqualsComparerINS0_8equal_toIS5_EEEENS0_9allocatorISA_EEE9SelectKeyESJ_SL_E15set_deleted_keyERKSA_
E1e:_SimpleEnumerator_Reset_m1520014659
n2h:__ZL53IPrincipal_t2343618843_CustomAttributesCacheGeneratorP21CustomAttributesCache
UVf:_SendOrPostCallback__ctor_m1566534627
aH:__ZN9AudioClip7WWWOpenEPKciPjPPvS4_
qqb:__Z18Transfer_BlittableI14SafeBinaryReadLb0E8Vector2fEvRK29SerializationCommandArgumentsR31RuntimeSerializationCommandInfo
aqe:_Context_set_ProtocolNegotiated_m2904861662
dXh:__ZL54FileOptions_t1024913468_CustomAttributesCacheGeneratorP21CustomAttributesCache
pAj:__ZN15dense_hashtableINSt3__24pairIK10KeyWrapperINS1_IPKcS4_EEEiEES6_24NamespaceAndNamePairHashN14dense_hash_mapIS6_iS9_NS6_14EqualsComparerI26NamespaceAndNamePairEqualsEENS0_9allocatorIS8_EEE9SelectKeyESD_SF_E12resize_deltaEjj
Vzd:_RemotingServices_GetRemoteObject_m2117098022
l3i:_CanvasRenderer_SetTexture_m1600559835
rMa:__ZN13dynamic_arrayIiLj4EE6insertEPiPKiS3_
dCh:_Collection_1_System_Collections_IList_IndexOf_m4256072926_gshared
k$g:__Z132RuntimeInvoker_Boolean_t97287965_RuntimeObject_Int32_t2950945753_Int32_t2950945753_RuntimeObject_Int32_t2950945753_Int32_t2950945753PFvvEPK10MethodInfoPvPS4_
flc:__Z53Register_UnityEngine_Input_INTERNAL_get_mousePositionv
bua:__ZN7ApiGLES12DrawElementsE16GfxPrimitiveTypePKvjjjj
V7f:_EncryptedPrivateKeyInfo_get_Salt_m3453455261
uFf:_DateTime__ParseNumber_m1240316250
Fpf:_Single_System_IConvertible_ToSingle_m1939829239_AdjustorThunk
d0d:_InternalEnumerator_1_get_Current_m3839250771_gshared
Tnc:__Z66Register_UnityEngine_Transform_INTERNAL_CALL_InverseTransformPointv
s7e:_CultureInfo_get_TextInfo_m2342840448
P5c:_EventSystem_set_pixelDragThreshold_m890385646
KJa:__ZN9GfxDevice22DispatchComputeProgramE12ObjectHandleI18ComputeProgram_TagPvEjjj
kd:_SDL_GetTicks
Ulj:__ZN15dense_hashtableINSt3__24pairIK10KeyWrapperINS1_IPK11Il2CppImageP11Il2CppClassEEEjEES9_17ReflectionMapHashIS8_EN14dense_hash_mapIS9_jSD_NS9_14EqualsComparerINS0_8equal_toIS8_EEEENS0_9allocatorISB_EEE9SelectKeyESI_SK_E6insertERKSB_
_Xb:__Z21CreateShadowCullerJobP30CreateUmbraShadowCullerJobData
VJh:_ReadOnlyCollection_1_System_Collections_Generic_ICollectionU3CTU3E_Remove_m4072504734_gshared
bCa:__ZL18ProgramUniform2uivPK7ApiGLESjiihPKv
